 copytrade

 Timestamp is 58ca85fc (Thu Mar 16 14:33:00 2017)

 Preferred load address is 10000000

 Start         Length     Name                   Class
 0001:00000000 0016f899H .text                   CODE
 0001:0016f8a0 00004734H .text$x                 CODE
 0001:00173fe0 00002ca8H .text$yc                CODE
 0001:00176c90 00001ab2H .text$yd                CODE
 0002:00000000 00000104H .CRT$XCA                DATA
 0002:00000104 00000104H .CRT$XCC                DATA
 0002:00000208 000001c4H .CRT$XCU                DATA
 0002:000003cc 00000104H .CRT$XCZ                DATA
 0002:000004d0 00000104H .CRT$XIA                DATA
 0002:000005d4 00000113H .CRT$XIC                DATA
 0002:000006e8 00000104H .CRT$XIZ                DATA
 0002:000007ec 00000104H .CRT$XPA                DATA
 0002:000008f0 00000109H .CRT$XPX                DATA
 0002:000009fc 00000104H .CRT$XPXA               DATA
 0002:00000b00 00000104H .CRT$XPZ                DATA
 0002:00000c04 00000104H .CRT$XTA                DATA
 0002:00000d08 00000104H .CRT$XTZ                DATA
 0002:00000e10 0002228bH .rdata                  DATA
 0002:0002309c 00000173H .rdata$debug            DATA
 0002:00023210 00000a07H .rdata$r                DATA
 0002:00023c20 000004a3H .rdata$sxdata           DATA
 0002:000240c4 00000104H .rtc$IAA                DATA
 0002:000241c8 0000012bH .rtc$IMZ                DATA
 0002:000242f4 00000104H .rtc$IZZ                DATA
 0002:000243f8 00000104H .rtc$TAA                DATA
 0002:000244fc 0000012bH .rtc$TMZ                DATA
 0002:00024628 00000104H .rtc$TZZ                DATA
 0002:00024730 00004a41H .xdata$x                DATA
 0002:00029180 000002e4H .edata                  DATA
 0003:00000000 00003385H .data                   DATA
 0003:000033a0 0000332cH .bss                    DATA
 0004:00000000 00000028H .idata$2                DATA
 0004:00000028 00000014H .idata$3                DATA
 0004:0000003c 00000330H .idata$4                DATA
 0004:0000036c 00000330H .idata$5                DATA
 0004:0000069c 00000c0bH .idata$6                DATA
 0005:00000000 000001c0H .rsrc$01                DATA
 0005:000001c0 000007d3H .rsrc$02                DATA

  Address         Publics by Value              Rva+Base       Lib:Object

 0000:00000000       __except_list              00000000     <absolute>
 0000:000000c2       ___safe_se_handler_count   000000c2     <absolute>
 0000:00000000       ___ImageBase               10000000     <linker-defined>
 0001:00003240       ??$_Allocate@D@std@@YAPADIPAD@Z 10004240 f i common.obj
 0001:000032c0       ??$_Allocate@U_Container_proxy@std@@@std@@YAPAU_Container_proxy@0@IPAU10@@Z 100042c0 f i common.obj
 0001:00003350       ??$_Debug_pointer@D@std@@YAXPBDPB_WI@Z 10004350 f i common.obj
 0001:000033b0       ??$addressof@D@std@@YAPADAAD@Z 100043b0 f i common.obj
 0001:000033f0       ??$construct@PADAAPAD@?$_Wrap_alloc@V?$allocator@D@std@@@std@@QAEXPAPADAAPAD@Z 100043f0 f i common.obj
 0001:00003460       ??$construct@PADAAPAD@?$allocator@D@std@@QAEXPAPADAAPAD@Z 10004460 f i common.obj
 0001:00003560       ??$construct@PADAAPAD@?$allocator_traits@V?$allocator@D@std@@@std@@SAXAAV?$allocator@D@1@PAPADAAPAD@Z 10004560 f i common.obj
 0001:000035c0       ??$construct@U_Container_proxy@std@@U12@@?$allocator@U_Container_proxy@std@@@std@@QAEXPAU_Container_proxy@1@$$QAU21@@Z 100045c0 f i common.obj
 0001:000036d0       ??$destroy@PAD@?$_Wrap_alloc@V?$allocator@D@std@@@std@@QAEXPAPAD@Z 100046d0 f i common.obj
 0001:00003730       ??$destroy@PAD@?$allocator@D@std@@QAEXPAPAD@Z 10004730 f i common.obj
 0001:00003770       ??$destroy@PAD@?$allocator_traits@V?$allocator@D@std@@@std@@SAXAAV?$allocator@D@1@PAPAD@Z 10004770 f i common.obj
 0001:000037c0       ??$destroy@U_Container_proxy@std@@@?$allocator@U_Container_proxy@std@@@std@@QAEXPAU_Container_proxy@1@@Z 100047c0 f i common.obj
 0001:00003800       ??$forward@AAPAD@std@@YAAAPADAAPAD@Z 10004800 f i common.obj
 0001:00003840       ??$forward@U_Container_proxy@std@@@std@@YA$$QAU_Container_proxy@0@AAU10@@Z 10004840 f i common.obj
 0001:00003880       ??0?$_String_alloc@$0A@U?$_String_base_types@DV?$allocator@D@std@@@std@@@std@@QAE@ABV?$allocator@D@1@@Z 10004880 f i common.obj
 0001:00003930       ??0?$_String_val@U?$_Simple_types@D@std@@@std@@QAE@XZ 10004930 f i common.obj
 0001:000039a0       ??0?$_Wrap_alloc@V?$allocator@D@std@@@std@@QAE@XZ 100049a0 f i common.obj
 0001:00003a00       ??0?$allocator@D@std@@QAE@XZ 10004a00 f i common.obj
 0001:00003a40       ??0?$allocator@U_Container_proxy@std@@@std@@QAE@XZ 10004a40 f i common.obj
 0001:00003a80       ??0?$basic_string@DU?$char_traits@D@std@@V?$allocator@D@2@@std@@QAE@PBD@Z 10004a80 f i common.obj
 0001:00003b50       ??0CSync@@QAE@XZ           10004b50 f i common.obj
 0001:00003bd0       ??0_Container_base12@std@@QAE@XZ 10004bd0 f i common.obj
 0001:00003c20       ??0_Container_proxy@std@@QAE@XZ 10004c20 f i common.obj
 0001:00003c70       ??0_Generic_error_category@std@@QAE@XZ 10004c70 f i common.obj
 0001:00003cd0       ??0_Iostream_error_category@std@@QAE@XZ 10004cd0 f i common.obj
 0001:00003d30       ??0_System_error_category@std@@QAE@XZ 10004d30 f i common.obj
 0001:00003d90       ??0error_category@std@@QAE@XZ 10004d90 f i common.obj
 0001:00003de0       ??0error_condition@std@@QAE@HABVerror_category@1@@Z 10004de0 f i common.obj
 0001:00003e30       ??0id@locale@std@@QAE@I@Z  10004e30 f i common.obj
 0001:00003e80       ??1?$_String_alloc@$0A@U?$_String_base_types@DV?$allocator@D@std@@@std@@@std@@QAE@XZ 10004e80 f i common.obj
 0001:00003ee0       ??1?$_String_val@U?$_Simple_types@D@std@@@std@@QAE@XZ 10004ee0 f i common.obj
 0001:00003f30       ??1CSync@@QAE@XZ           10004f30 f i common.obj
 0001:00003f90       ??1_Container_base12@std@@QAE@XZ 10004f90 f i common.obj
 0001:00003fe0       ??1_Generic_error_category@std@@UAE@XZ 10004fe0 f i common.obj
 0001:00004030       ??1_Iostream_error_category@std@@UAE@XZ 10005030 f i common.obj
 0001:00004080       ??1_System_error_category@std@@UAE@XZ 10005080 f i common.obj
 0001:000040d0       ??1error_category@std@@UAE@XZ 100050d0 f i common.obj
 0001:00004110       ??2@YAPAXIPAX@Z            10005110 f i common.obj
 0001:00004150       ??3@YAXPAX0@Z              10005150 f i common.obj
 0001:00004180       ??8error_category@std@@QBE_NABV01@@Z 10005180 f i common.obj
 0001:000041f0       ??8error_condition@std@@QBE_NABV01@@Z 100051f0 f i common.obj
 0001:000042a0       ??_E_Generic_error_category@std@@UAEPAXI@Z 100052a0 f i common.obj
 0001:000042a0       ??_G_Generic_error_category@std@@UAEPAXI@Z 100052a0 f i common.obj
 0001:00004310       ??_E_Iostream_error_category@std@@UAEPAXI@Z 10005310 f i common.obj
 0001:00004310       ??_G_Iostream_error_category@std@@UAEPAXI@Z 10005310 f i common.obj
 0001:00004380       ??_G_System_error_category@std@@UAEPAXI@Z 10005380 f i common.obj
 0001:00004380       ??_E_System_error_category@std@@UAEPAXI@Z 10005380 f i common.obj
 0001:000043f0       ??_Eerror_category@std@@UAEPAXI@Z 100053f0 f i common.obj
 0001:000043f0       ??_Gerror_category@std@@UAEPAXI@Z 100053f0 f i common.obj
 0001:00004460       ?CheckGroup@@YAHPADPBD@Z   10005460 f   common.obj
 0001:00004950       ?ClearLF@@YAXPAD@Z         10005950 f   common.obj
 0001:000049e0       ?GetCmd@@YAPBDH@Z          100059e0 f   common.obj
 0001:00004a40       ?GetDecimalPow@@YANH@Z     10005a40 f   common.obj
 0001:00004ab0       ?GetIntParam@@YAHPBD0PAH@Z 10005ab0 f   common.obj
 0001:00004b80       ?GetStrParam@@YAHPBD0PADH@Z 10005b80 f   common.obj
 0001:00004ca0       ?NormalizeDouble@@YINNH@Z  10005ca0 f   common.obj
 0001:00004e30       ?_Alloc_proxy@?$_String_alloc@$0A@U?$_String_base_types@DV?$allocator@D@std@@@std@@@std@@QAEXXZ 10005e30 f i common.obj
 0001:00004f00       ?_Copy@?$basic_string@DU?$char_traits@D@std@@V?$allocator@D@2@@std@@QAEXII@Z 10005f00 f i common.obj
 0001:000051c0       ?_Eos@?$basic_string@DU?$char_traits@D@std@@V?$allocator@D@2@@std@@QAEXI@Z 100061c0 f i common.obj
 0001:00005240       ?_Free_proxy@?$_String_alloc@$0A@U?$_String_base_types@DV?$allocator@D@std@@@std@@@std@@QAEXXZ 10006240 f i common.obj
 0001:00005310       ?_Getal@?$_String_alloc@$0A@U?$_String_base_types@DV?$allocator@D@std@@@std@@@std@@QBE?AU?$_Wrap_alloc@V?$allocator@D@std@@@2@XZ 10006310 f i common.obj
 0001:00005370       ?_Grow@?$basic_string@DU?$char_traits@D@std@@V?$allocator@D@2@@std@@QAE_NI_N@Z 10006370 f i common.obj
 0001:00005490       ?_Inside@?$basic_string@DU?$char_traits@D@std@@V?$allocator@D@2@@std@@QAE_NPBD@Z 10006490 f i common.obj
 0001:00005510       ?_Myptr@?$_String_val@U?$_Simple_types@D@std@@@std@@QAEPADXZ 10006510 f i common.obj
 0001:000055a0       ?_Myptr@?$_String_val@U?$_Simple_types@D@std@@@std@@QBEPBDXZ 100065a0 f i common.obj
 0001:00005630       ?_Orphan_all@_Container_base12@std@@QAEXXZ 10006630 f i common.obj
 0001:00005720       ?_Tidy@?$basic_string@DU?$char_traits@D@std@@V?$allocator@D@2@@std@@QAEX_NI@Z 10006720 f i common.obj
 0001:00005830       ?_Xlen@?$basic_string@DU?$char_traits@D@std@@V?$allocator@D@2@@std@@QBEXXZ 10006830 f i common.obj
 0001:00005890       ?_Xran@?$basic_string@DU?$char_traits@D@std@@V?$allocator@D@2@@std@@QBEXXZ 10006890 f i common.obj
 0001:000058f0       ?allocate@?$_Wrap_alloc@V?$allocator@D@std@@@std@@QAEPADI@Z 100068f0 f i common.obj
 0001:00005950       ?allocate@?$allocator@D@std@@QAEPADI@Z 10006950 f i common.obj
 0001:000059b0       ?allocate@?$allocator@U_Container_proxy@std@@@std@@QAEPAU_Container_proxy@2@I@Z 100069b0 f i common.obj
 0001:00005a10       ?assign@?$basic_string@DU?$char_traits@D@std@@V?$allocator@D@2@@std@@QAEAAV12@ABV12@II@Z 10006a10 f i common.obj
 0001:00005b20       ?assign@?$basic_string@DU?$char_traits@D@std@@V?$allocator@D@2@@std@@QAEAAV12@PBD@Z 10006b20 f i common.obj
 0001:00005bb0       ?assign@?$basic_string@DU?$char_traits@D@std@@V?$allocator@D@2@@std@@QAEAAV12@PBDI@Z 10006bb0 f i common.obj
 0001:00005cb0       ?assign@?$char_traits@D@std@@SAXAADABD@Z 10006cb0 f i common.obj
 0001:00005cf0       ?category@error_code@std@@QBEABVerror_category@2@XZ 10006cf0 f i common.obj
 0001:00005d30       ?category@error_condition@std@@QBEABVerror_category@2@XZ 10006d30 f i common.obj
 0001:00005d70       ?copy@?$char_traits@D@std@@SAPADPADPBDI@Z 10006d70 f i common.obj
 0001:00005df0       ?deallocate@?$_Wrap_alloc@V?$allocator@D@std@@@std@@QAEXPADI@Z 10006df0 f i common.obj
 0001:00005e50       ?deallocate@?$allocator@D@std@@QAEXPADI@Z 10006e50 f i common.obj
 0001:00005eb0       ?deallocate@?$allocator@U_Container_proxy@std@@@std@@QAEXPAU_Container_proxy@2@I@Z 10006eb0 f i common.obj
 0001:00005f10       ?default_error_condition@_System_error_category@std@@UBE?AVerror_condition@2@H@Z 10006f10 f i common.obj
 0001:00005fb0       ?default_error_condition@error_category@std@@UBE?AVerror_condition@2@H@Z 10006fb0 f i common.obj
 0001:00006010       ?equivalent@error_category@std@@UBE_NABVerror_code@2@H@Z 10007010 f i common.obj
 0001:000060b0       ?equivalent@error_category@std@@UBE_NHABVerror_condition@2@@Z 100070b0 f i common.obj
 0001:00006130       ?erase@?$basic_string@DU?$char_traits@D@std@@V?$allocator@D@2@@std@@QAEAAV12@I@Z 10007130 f i common.obj
 0001:000061b0       ?erase@?$basic_string@DU?$char_traits@D@std@@V?$allocator@D@2@@std@@QAEAAV12@II@Z 100071b0 f i common.obj
 0001:00006290       ?generic_category@std@@YAABVerror_category@1@XZ 10007290 f i common.obj
 0001:000062d0       ?insert@@YAPADPAXPBXIIP6AH11@Z@Z 100072d0 f   common.obj
 0001:00006440       ?length@?$char_traits@D@std@@SAIPBD@Z 10007440 f i common.obj
 0001:000064c0       ?max_size@?$_Wrap_alloc@V?$allocator@D@std@@@std@@QBEIXZ 100074c0 f i common.obj
 0001:00006520       ?max_size@?$allocator@D@std@@QBEIXZ 10007520 f i common.obj
 0001:00006560       ?max_size@?$allocator_traits@V?$allocator@D@std@@@std@@SAIABV?$allocator@D@2@@Z 10007560 f i common.obj
 0001:000065b0       ?max_size@?$basic_string@DU?$char_traits@D@std@@V?$allocator@D@2@@std@@QBEIXZ 100075b0 f i common.obj
 0001:00006650       ?message@_Generic_error_category@std@@UBE?AV?$basic_string@DU?$char_traits@D@std@@V?$allocator@D@2@@2@H@Z 10007650 f i common.obj
 0001:00006710       ?message@_Iostream_error_category@std@@UBE?AV?$basic_string@DU?$char_traits@D@std@@V?$allocator@D@2@@2@H@Z 10007710 f i common.obj
 0001:000067d0       ?message@_System_error_category@std@@UBE?AV?$basic_string@DU?$char_traits@D@std@@V?$allocator@D@2@@2@H@Z 100077d0 f i common.obj
 0001:00006890       ?move@?$char_traits@D@std@@SAPADPADPBDI@Z 10007890 f i common.obj
 0001:00006910       ?name@_Generic_error_category@std@@UBEPBDXZ 10007910 f i common.obj
 0001:00006950       ?name@_Iostream_error_category@std@@UBEPBDXZ 10007950 f i common.obj
 0001:00006990       ?name@_System_error_category@std@@UBEPBDXZ 10007990 f i common.obj
 0001:000069d0       ?size@?$basic_string@DU?$char_traits@D@std@@V?$allocator@D@2@@std@@QBEIXZ 100079d0 f i common.obj
 0001:00006a10       ?system_category@std@@YAABVerror_category@1@XZ 10007a10 f i common.obj
 0001:00006a50       ?value@error_code@std@@QBEHXZ 10007a50 f i common.obj
 0001:00006a90       ?value@error_condition@std@@QBEHXZ 10007a90 f i common.obj
 0001:00006ad0       ??$strncpy_s@$0MI@@@YAHAAY0MI@DPBDI@Z 10007ad0 f i Logger.obj
 0001:00006b30       ??0CLogger@@QAE@XZ         10007b30 f   Logger.obj
 0001:00006c40       ??1CLogger@@QAE@XZ         10007c40 f   Logger.obj
 0001:00006d50       ?Journal@CLogger@@QAEHPADH@Z 10007d50 f   Logger.obj
 0001:00006ee0       ?Lock@CSync@@QAEXXZ        10007ee0 f i Logger.obj
 0001:00006f40       ?Out@CLogger@@QAAXHPBD0ZZ  10007f40 f   Logger.obj
 0001:00007110       ?Unlock@CSync@@QAEXXZ      10008110 f i Logger.obj
 0001:00007170       ??0?$_Wrap_alloc@V?$allocator@D@std@@@std@@QAE@ABV?$allocator@D@1@@Z 10008170 f i ServerPlugin.obj
 0001:000071d0       ??0?$allocator@D@std@@QAE@ABV01@@Z 100081d0 f i ServerPlugin.obj
 0001:00007210       ??0?$basic_string@DU?$char_traits@D@std@@V?$allocator@D@2@@std@@QAE@ABV01@@Z 10008210 f i ServerPlugin.obj
 0001:00007300       ??0?$basic_string@DU?$char_traits@D@std@@V?$allocator@D@2@@std@@QAE@XZ 10008300 f i ServerPlugin.obj
 0001:000073c0       ??1?$basic_string@DU?$char_traits@D@std@@V?$allocator@D@2@@std@@QAE@XZ 100083c0 f i ServerPlugin.obj
 0001:00007420       ??4?$basic_string@DU?$char_traits@D@std@@V?$allocator@D@2@@std@@QAEAAV01@PBD@Z 10008420 f i ServerPlugin.obj
 0001:00007480       ?Initialize@CLogger@@QAEXPBD@Z 10008480 f i ServerPlugin.obj
 0001:00007520       ?MtSrvAbout@@YGXPAUPluginInfo@@@Z 10008520 f   ServerPlugin.obj
 0001:00007590       ?MtSrvCleanup@@YGXXZ       10008590 f   ServerPlugin.obj
 0001:000075c0       ?MtSrvPluginCfgAdd@@YGHPBUPluginCfg@@@Z 100085c0 f   ServerPlugin.obj
 0001:00007620       ?MtSrvPluginCfgDelete@@YGHPBD@Z 10008620 f   ServerPlugin.obj
 0001:000076a0       ?MtSrvPluginCfgGet@@YGHPBDPAUPluginCfg@@@Z 100086a0 f   ServerPlugin.obj
 0001:00007730       ?MtSrvPluginCfgNext@@YGHHPAUPluginCfg@@@Z 10008730 f   ServerPlugin.obj
 0001:00007790       ?MtSrvPluginCfgSet@@YGHPBUPluginCfg@@H@Z 10008790 f   ServerPlugin.obj
 0001:000077f0       ?MtSrvPluginCfgTotal@@YGHXZ 100087f0 f   ServerPlugin.obj
 0001:00007840       ?MtSrvStartup@@YGHPAUCServerInterface@@@Z 10008840 f   ServerPlugin.obj
 0001:000078d0       ?MtSrvTelnet@@YGHKPADH@Z   100088d0 f   ServerPlugin.obj
 0001:00007930       ?MtSrvTradeRequestApply@@YGXPAURequestInfo@@H@Z 10008930 f   ServerPlugin.obj
 0001:000079b0       ?MtSrvTradeRequestRestore@@YGXPAURequestInfo@@@Z 100089b0 f   ServerPlugin.obj
 0001:00007a30       ?MtSrvTradeTransaction@@YGHPAUTradeTransInfo@@PBUUserInfo@@PAH@Z 10008a30 f   ServerPlugin.obj
 0001:00007aa0       ?MtSrvTradesAdd@@YGXPAUTradeRecord@@PBUUserInfo@@PBUConSymbol@@@Z 10008aa0 f   ServerPlugin.obj
 0001:00007b20       ?MtSrvTradesAddExt@@YGXPAUTradeRecord@@PBUUserInfo@@PBUConSymbol@@H@Z 10008b20 f   ServerPlugin.obj
 0001:00007b80       ?MtSrvTradesCloseBy@@YGXPAUTradeRecord@@00PAUConSymbol@@PAUUserInfo@@@Z 10008b80 f   ServerPlugin.obj
 0001:00007be0       ?MtSrvTradesUpdate@@YGXPAUTradeRecord@@PAUUserInfo@@H@Z 10008be0 f   ServerPlugin.obj
 0001:00007d00       ?append@?$basic_string@DU?$char_traits@D@std@@V?$allocator@D@2@@std@@QAEAAV12@ABV12@II@Z 10008d00 f i ServerPlugin.obj
 0001:00007e20       ?append@?$basic_string@DU?$char_traits@D@std@@V?$allocator@D@2@@std@@QAEAAV12@PBD@Z 10008e20 f i ServerPlugin.obj
 0001:00007eb0       ?append@?$basic_string@DU?$char_traits@D@std@@V?$allocator@D@2@@std@@QAEAAV12@PBDI@Z 10008eb0 f i ServerPlugin.obj
 0001:00007ff0       ?c_str@?$basic_string@DU?$char_traits@D@std@@V?$allocator@D@2@@std@@QBEPBDXZ 10008ff0 f i ServerPlugin.obj
 0001:00008040       ?find@?$char_traits@D@std@@SAPBDPBDIABD@Z 10009040 f i ServerPlugin.obj
 0001:000080c0       ?find_last_of@?$basic_string@DU?$char_traits@D@std@@V?$allocator@D@2@@std@@QBEIPBDI@Z 100090c0 f i ServerPlugin.obj
 0001:00008150       ?find_last_of@?$basic_string@DU?$char_traits@D@std@@V?$allocator@D@2@@std@@QBEIPBDII@Z 10009150 f i ServerPlugin.obj
 0001:00008280       ?select_on_container_copy_construction@?$_Wrap_alloc@V?$allocator@D@std@@@std@@QBE?AU12@XZ 10009280 f i ServerPlugin.obj
 0001:000082f0       ?select_on_container_copy_construction@?$allocator@D@std@@QBE?AV12@XZ 100092f0 f i ServerPlugin.obj
 0001:00008350       ?select_on_container_copy_construction@?$allocator_traits@V?$allocator@D@std@@@std@@SA?AV?$allocator@D@2@ABV32@@Z 10009350 f i ServerPlugin.obj
 0001:000083b0       _DllMain@12                100093b0 f   ServerPlugin.obj
 0001:00008650       ??$?0AAV?$_Tree_iterator@V?$_Tree_val@U?$_Tree_simple_types@U?$pair@$$CBV?$basic_string@DU?$char_traits@D@std@@V?$allocator@D@2@@std@@UPluginCfg@@@std@@@std@@@std@@@std@@AAV01@@?$pair@V?$_Tree_iterator@V?$_Tree_val@U?$_Tree_simple_types@U?$pair@$$CBV?$basic_string@DU?$char_traits@D@std@@V?$allocator@D@2@@std@@UPluginCfg@@@std@@@std@@@std@@@std@@V12@@std@@QAE@AAV?$_Tree_iterator@V?$_Tree_val@U?$_Tree_simple_types@U?$pair@$$CBV?$basic_string@DU?$char_traits@D@std@@V?$allocator@D@2@@std@@UPluginCfg@@@std@@@std@@@std@@@1@0PAPAX@Z 10009650 f i Setting.obj
 0001:00008720       ??$?0AAV?$_Tree_iterator@V?$_Tree_val@U?$_Tree_simple_types@U?$pair@$$CBV?$basic_string@DU?$char_traits@D@std@@V?$allocator@D@2@@std@@UPluginCfg@@@std@@@std@@@std@@@std@@_N@?$pair@V?$_Tree_iterator@V?$_Tree_val@U?$_Tree_simple_types@U?$pair@$$CBV?$basic_string@DU?$char_traits@D@std@@V?$allocator@D@2@@std@@UPluginCfg@@@std@@@std@@@std@@@std@@_N@std@@QAE@AAV?$_Tree_iterator@V?$_Tree_val@U?$_Tree_simple_types@U?$pair@$$CBV?$basic_string@DU?$char_traits@D@std@@V?$allocator@D@2@@std@@UPluginCfg@@@std@@@std@@@std@@@1@$$QA_NPAPAX@Z 10009720 f i Setting.obj
 0001:000087f0       ??$?0ABV?$basic_string@DU?$char_traits@D@std@@V?$allocator@D@2@@std@@UPluginCfg@@@?$pair@V?$basic_string@DU?$char_traits@D@std@@V?$allocator@D@2@@std@@UPluginCfg@@@std@@QAE@ABV?$basic_string@DU?$char_traits@D@std@@V?$allocator@D@2@@1@$$QAUPluginCfg@@PAPAX@Z 100097f0 f i Setting.obj
 0001:000088c0       ??$?0U?$_Tree_node@U?$pair@$$CBV?$basic_string@DU?$char_traits@D@std@@V?$allocator@D@2@@std@@UPluginCfg@@@std@@PAX@std@@@?$allocator@U?$pair@$$CBV?$basic_string@DU?$char_traits@D@std@@V?$allocator@D@2@@std@@UPluginCfg@@@std@@@std@@QAE@ABV?$allocator@U?$_Tree_node@U?$pair@$$CBV?$basic_string@DU?$char_traits@D@std@@V?$allocator@D@2@@std@@UPluginCfg@@@std@@PAX@std@@@1@@Z 100098c0 f i Setting.obj
 0001:00008900       ??$?0U?$_Tree_node@U?$pair@$$CBV?$basic_string@DU?$char_traits@D@std@@V?$allocator@D@2@@std@@UPluginCfg@@@std@@PAX@std@@@?$allocator@U_Container_proxy@std@@@std@@QAE@ABV?$allocator@U?$_Tree_node@U?$pair@$$CBV?$basic_string@DU?$char_traits@D@std@@V?$allocator@D@2@@std@@UPluginCfg@@@std@@PAX@std@@@1@@Z 10009900 f i Setting.obj
 0001:00008940       ??$?0U?$_Wrap_alloc@V?$allocator@U?$_Tree_node@U?$pair@$$CBV?$basic_string@DU?$char_traits@D@std@@V?$allocator@D@2@@std@@UPluginCfg@@@std@@PAX@std@@@std@@@std@@@?$_Wrap_alloc@V?$allocator@U_Container_proxy@std@@@std@@@std@@QAE@ABU?$_Wrap_alloc@V?$allocator@U?$_Tree_node@U?$pair@$$CBV?$basic_string@DU?$char_traits@D@std@@V?$allocator@D@2@@std@@UPluginCfg@@@std@@PAX@std@@@std@@@1@@Z 10009940 f i Setting.obj
 0001:000089a0       ??$?0V?$_Tree_iterator@V?$_Tree_val@U?$_Tree_simple_types@U?$pair@$$CBV?$basic_string@DU?$char_traits@D@std@@V?$allocator@D@2@@std@@UPluginCfg@@@std@@@std@@@std@@@std@@V01@@?$pair@V?$_Tree_iterator@V?$_Tree_val@U?$_Tree_simple_types@U?$pair@$$CBV?$basic_string@DU?$char_traits@D@std@@V?$allocator@D@2@@std@@UPluginCfg@@@std@@@std@@@std@@@std@@V12@@std@@QAE@$$QAU01@PAPAX@Z 100099a0 f i Setting.obj
 0001:00008a70       ??$?0V?$_Tree_iterator@V?$_Tree_val@U?$_Tree_simple_types@U?$pair@$$CBV?$basic_string@DU?$char_traits@D@std@@V?$allocator@D@2@@std@@UPluginCfg@@@std@@@std@@@std@@@std@@_N@?$pair@V?$_Tree_iterator@V?$_Tree_val@U?$_Tree_simple_types@U?$pair@$$CBV?$basic_string@DU?$char_traits@D@std@@V?$allocator@D@2@@std@@UPluginCfg@@@std@@@std@@@std@@@std@@_N@std@@QAE@$$QAU01@PAPAX@Z 10009a70 f i Setting.obj
 0001:00008b40       ??$?0V?$_Tree_iterator@V?$_Tree_val@U?$_Tree_simple_types@U?$pair@$$CBV?$basic_string@DU?$char_traits@D@std@@V?$allocator@D@2@@std@@UPluginCfg@@@std@@@std@@@std@@@std@@_N@?$pair@V?$_Tree_iterator@V?$_Tree_val@U?$_Tree_simple_types@U?$pair@$$CBV?$basic_string@DU?$char_traits@D@std@@V?$allocator@D@2@@std@@UPluginCfg@@@std@@@std@@@std@@@std@@_N@std@@QAE@$$QAV?$_Tree_iterator@V?$_Tree_val@U?$_Tree_simple_types@U?$pair@$$CBV?$basic_string@DU?$char_traits@D@std@@V?$allocator@D@2@@std@@UPluginCfg@@@std@@@std@@@std@@@1@$$QA_NPAPAX@Z 10009b40 f i Setting.obj
 0001:00008c10       ??$?0V?$basic_string@DU?$char_traits@D@std@@V?$allocator@D@2@@std@@UPluginCfg@@@?$pair@$$CBV?$basic_string@DU?$char_traits@D@std@@V?$allocator@D@2@@std@@UPluginCfg@@@std@@QAE@$$QAU?$pair@V?$basic_string@DU?$char_traits@D@std@@V?$allocator@D@2@@std@@UPluginCfg@@@1@PAPAX@Z 10009c10 f i Setting.obj
 0001:00008ce0       ??$?0V?$basic_string@DU?$char_traits@D@std@@V?$allocator@D@2@@std@@UPluginCfg@@@?$pair@V?$basic_string@DU?$char_traits@D@std@@V?$allocator@D@2@@std@@UPluginCfg@@@std@@QAE@$$QAV?$basic_string@DU?$char_traits@D@std@@V?$allocator@D@2@@1@$$QAUPluginCfg@@PAPAX@Z 10009ce0 f i Setting.obj
 0001:00008db0       ??$?8DU?$char_traits@D@std@@V?$allocator@D@1@@std@@YA_NABV?$basic_string@DU?$char_traits@D@std@@V?$allocator@D@2@@0@PBD@Z 10009db0 f i Setting.obj
 0001:00008e30       ??$?MDU?$char_traits@D@std@@V?$allocator@D@1@@std@@YA_NABV?$basic_string@DU?$char_traits@D@std@@V?$allocator@D@2@@0@0@Z 10009e30 f i Setting.obj
 0001:00008eb0       ??$_Allocate@U?$_Tree_node@U?$pair@$$CBV?$basic_string@DU?$char_traits@D@std@@V?$allocator@D@2@@std@@UPluginCfg@@@std@@PAX@std@@@std@@YAPAU?$_Tree_node@U?$pair@$$CBV?$basic_string@DU?$char_traits@D@std@@V?$allocator@D@2@@std@@UPluginCfg@@@std@@PAX@0@IPAU10@@Z 10009eb0 f i Setting.obj
 0001:00008f40       ??$_Buynode@AAU?$pair@$$CBV?$basic_string@DU?$char_traits@D@std@@V?$allocator@D@2@@std@@UPluginCfg@@@std@@@?$_Tree_buy@U?$pair@$$CBV?$basic_string@DU?$char_traits@D@std@@V?$allocator@D@2@@std@@UPluginCfg@@@std@@V?$allocator@U?$pair@$$CBV?$basic_string@DU?$char_traits@D@std@@V?$allocator@D@2@@std@@UPluginCfg@@@std@@@2@@std@@QAEPAU?$_Tree_node@U?$pair@$$CBV?$basic_string@DU?$char_traits@D@std@@V?$allocator@D@2@@std@@UPluginCfg@@@std@@PAX@1@AAU?$pair@$$CBV?$basic_string@DU?$char_traits@D@std@@V?$allocator@D@2@@std@@UPluginCfg@@@1@@Z 10009f40 f i Setting.obj
 0001:000090b0       ??$_Buynode@U?$pair@V?$basic_string@DU?$char_traits@D@std@@V?$allocator@D@2@@std@@UPluginCfg@@@std@@@?$_Tree_buy@U?$pair@$$CBV?$basic_string@DU?$char_traits@D@std@@V?$allocator@D@2@@std@@UPluginCfg@@@std@@V?$allocator@U?$pair@$$CBV?$basic_string@DU?$char_traits@D@std@@V?$allocator@D@2@@std@@UPluginCfg@@@std@@@2@@std@@QAEPAU?$_Tree_node@U?$pair@$$CBV?$basic_string@DU?$char_traits@D@std@@V?$allocator@D@2@@std@@UPluginCfg@@@std@@PAX@1@$$QAU?$pair@V?$basic_string@DU?$char_traits@D@std@@V?$allocator@D@2@@std@@UPluginCfg@@@1@@Z 1000a0b0 f i Setting.obj
 0001:00009220       ??$_Buynode_if_nil@AAU?$pair@$$CBV?$basic_string@DU?$char_traits@D@std@@V?$allocator@D@2@@std@@UPluginCfg@@@std@@@?$_Tree@V?$_Tmap_traits@V?$basic_string@DU?$char_traits@D@std@@V?$allocator@D@2@@std@@UPluginCfg@@U?$less@V?$basic_string@DU?$char_traits@D@std@@V?$allocator@D@2@@std@@@2@V?$allocator@U?$pair@$$CBV?$basic_string@DU?$char_traits@D@std@@V?$allocator@D@2@@std@@UPluginCfg@@@std@@@2@$0A@@std@@@std@@IAEPAU?$_Tree_node@U?$pair@$$CBV?$basic_string@DU?$char_traits@D@std@@V?$allocator@D@2@@std@@UPluginCfg@@@std@@PAX@1@PAU21@AAU?$pair@$$CBV?$basic_string@DU?$char_traits@D@std@@V?$allocator@D@2@@std@@UPluginCfg@@@1@@Z 1000a220 f i Setting.obj
 0001:00009260       ??$_Copy@U?$integral_constant@_N$0A@@std@@@?$_Tree@V?$_Tmap_traits@V?$basic_string@DU?$char_traits@D@std@@V?$allocator@D@2@@std@@UPluginCfg@@U?$less@V?$basic_string@DU?$char_traits@D@std@@V?$allocator@D@2@@std@@@2@V?$allocator@U?$pair@$$CBV?$basic_string@DU?$char_traits@D@std@@V?$allocator@D@2@@std@@UPluginCfg@@@std@@@2@$0A@@std@@@std@@IAEXABV01@U?$integral_constant@_N$0A@@1@@Z 1000a260 f i Setting.obj
 0001:00009390       ??$_Copy_nodes@U?$integral_constant@_N$0A@@std@@@?$_Tree@V?$_Tmap_traits@V?$basic_string@DU?$char_traits@D@std@@V?$allocator@D@2@@std@@UPluginCfg@@U?$less@V?$basic_string@DU?$char_traits@D@std@@V?$allocator@D@2@@std@@@2@V?$allocator@U?$pair@$$CBV?$basic_string@DU?$char_traits@D@std@@V?$allocator@D@2@@std@@UPluginCfg@@@std@@@2@$0A@@std@@@std@@IAEPAU?$_Tree_node@U?$pair@$$CBV?$basic_string@DU?$char_traits@D@std@@V?$allocator@D@2@@std@@UPluginCfg@@@std@@PAX@1@PAU21@0U?$integral_constant@_N$0A@@1@@Z 1000a390 f i Setting.obj
 0001:000095c0       ??$_Copy_or_move@U?$integral_constant@_N$0A@@std@@U?$integral_constant@_N$00@2@@?$_Tree@V?$_Tmap_traits@V?$basic_string@DU?$char_traits@D@std@@V?$allocator@D@2@@std@@UPluginCfg@@U?$less@V?$basic_string@DU?$char_traits@D@std@@V?$allocator@D@2@@std@@@2@V?$allocator@U?$pair@$$CBV?$basic_string@DU?$char_traits@D@std@@V?$allocator@D@2@@std@@UPluginCfg@@@std@@@2@$0A@@std@@@std@@IAEPAU?$_Tree_node@U?$pair@$$CBV?$basic_string@DU?$char_traits@D@std@@V?$allocator@D@2@@std@@UPluginCfg@@@std@@PAX@1@PAU21@U?$integral_constant@_N$0A@@1@U?$integral_constant@_N$00@1@@Z 1000a5c0 f i Setting.obj
 0001:00009630       ??$_Debug_lt_pred@U?$less@V?$basic_string@DU?$char_traits@D@std@@V?$allocator@D@2@@std@@@std@@V?$basic_string@DU?$char_traits@D@std@@V?$allocator@D@2@@2@V32@@std@@YA_NU?$less@V?$basic_string@DU?$char_traits@D@std@@V?$allocator@D@2@@std@@@0@ABV?$basic_string@DU?$char_traits@D@std@@V?$allocator@D@2@@0@1PB_WI@Z 1000a630 f i Setting.obj
 0001:000096d0       ??$_Distance2@V?$_Tree_iterator@V?$_Tree_val@U?$_Tree_simple_types@U?$pair@$$CBV?$basic_string@DU?$char_traits@D@std@@V?$allocator@D@2@@std@@UPluginCfg@@@std@@@std@@@std@@@std@@I@std@@YAXV?$_Tree_iterator@V?$_Tree_val@U?$_Tree_simple_types@U?$pair@$$CBV?$basic_string@DU?$char_traits@D@std@@V?$allocator@D@2@@std@@UPluginCfg@@@std@@@std@@@std@@@0@0AAIUbidirectional_iterator_tag@0@@Z 1000a6d0 f i Setting.obj
 0001:000097b0       ??$_Distance@V?$_Tree_iterator@V?$_Tree_val@U?$_Tree_simple_types@U?$pair@$$CBV?$basic_string@DU?$char_traits@D@std@@V?$allocator@D@2@@std@@UPluginCfg@@@std@@@std@@@std@@@std@@I@std@@YAXV?$_Tree_iterator@V?$_Tree_val@U?$_Tree_simple_types@U?$pair@$$CBV?$basic_string@DU?$char_traits@D@std@@V?$allocator@D@2@@std@@UPluginCfg@@@std@@@std@@@std@@@0@0AAI@Z 1000a7b0 f i Setting.obj
 0001:000098e0       ??$_Insert_at@AAU?$pair@$$CBV?$basic_string@DU?$char_traits@D@std@@V?$allocator@D@2@@std@@UPluginCfg@@@std@@PAU?$_Tree_node@U?$pair@$$CBV?$basic_string@DU?$char_traits@D@std@@V?$allocator@D@2@@std@@UPluginCfg@@@std@@PAX@2@@?$_Tree@V?$_Tmap_traits@V?$basic_string@DU?$char_traits@D@std@@V?$allocator@D@2@@std@@UPluginCfg@@U?$less@V?$basic_string@DU?$char_traits@D@std@@V?$allocator@D@2@@std@@@2@V?$allocator@U?$pair@$$CBV?$basic_string@DU?$char_traits@D@std@@V?$allocator@D@2@@std@@UPluginCfg@@@std@@@2@$0A@@std@@@std@@IAE?AV?$_Tree_iterator@V?$_Tree_val@U?$_Tree_simple_types@U?$pair@$$CBV?$basic_string@DU?$char_traits@D@std@@V?$allocator@D@2@@std@@UPluginCfg@@@std@@@std@@@std@@@1@_NPAU?$_Tree_node@U?$pair@$$CBV?$basic_string@DU?$char_traits@D@std@@V?$allocator@D@2@@std@@UPluginCfg@@@std@@PAX@1@AAU?$pair@$$CBV?$basic_string@DU?$char_traits@D@std@@V?$allocator@D@2@@std@@UPluginCfg@@@1@1@Z 1000a8e0 f i Setting.obj
 0001:00009e60       ??$_Insert_hint@AAU?$pair@$$CBV?$basic_string@DU?$char_traits@D@std@@V?$allocator@D@2@@std@@UPluginCfg@@@std@@PAU?$_Tree_node@U?$pair@$$CBV?$basic_string@DU?$char_traits@D@std@@V?$allocator@D@2@@std@@UPluginCfg@@@std@@PAX@2@@?$_Tree@V?$_Tmap_traits@V?$basic_string@DU?$char_traits@D@std@@V?$allocator@D@2@@std@@UPluginCfg@@U?$less@V?$basic_string@DU?$char_traits@D@std@@V?$allocator@D@2@@std@@@2@V?$allocator@U?$pair@$$CBV?$basic_string@DU?$char_traits@D@std@@V?$allocator@D@2@@std@@UPluginCfg@@@std@@@2@$0A@@std@@@std@@IAE?AV?$_Tree_iterator@V?$_Tree_val@U?$_Tree_simple_types@U?$pair@$$CBV?$basic_string@DU?$char_traits@D@std@@V?$allocator@D@2@@std@@UPluginCfg@@@std@@@std@@@std@@@1@V?$_Tree_const_iterator@V?$_Tree_val@U?$_Tree_simple_types@U?$pair@$$CBV?$basic_string@DU?$char_traits@D@std@@V?$allocator@D@2@@std@@UPluginCfg@@@std@@@std@@@std@@@1@AAU?$pair@$$CBV?$basic_string@DU?$char_traits@D@std@@V?$allocator@D@2@@std@@UPluginCfg@@@1@PAU?$_Tree_node@U?$pair@$$CBV?$basic_string@DU?$char_traits@D@std@@V?$allocator@D@2@@std@@UPluginCfg@@@std@@PAX@1@@Z 1000ae60 f i Setting.obj
 0001:0000b5b0       ??$_Insert_nohint@AAU?$pair@$$CBV?$basic_string@DU?$char_traits@D@std@@V?$allocator@D@2@@std@@UPluginCfg@@@std@@PAU?$_Tree_node@U?$pair@$$CBV?$basic_string@DU?$char_traits@D@std@@V?$allocator@D@2@@std@@UPluginCfg@@@std@@PAX@2@@?$_Tree@V?$_Tmap_traits@V?$basic_string@DU?$char_traits@D@std@@V?$allocator@D@2@@std@@UPluginCfg@@U?$less@V?$basic_string@DU?$char_traits@D@std@@V?$allocator@D@2@@std@@@2@V?$allocator@U?$pair@$$CBV?$basic_string@DU?$char_traits@D@std@@V?$allocator@D@2@@std@@UPluginCfg@@@std@@@2@$0A@@std@@@std@@IAE?AU?$pair@V?$_Tree_iterator@V?$_Tree_val@U?$_Tree_simple_types@U?$pair@$$CBV?$basic_string@DU?$char_traits@D@std@@V?$allocator@D@2@@std@@UPluginCfg@@@std@@@std@@@std@@@std@@_N@1@_NAAU?$pair@$$CBV?$basic_string@DU?$char_traits@D@std@@V?$allocator@D@2@@std@@UPluginCfg@@@1@PAU?$_Tree_node@U?$pair@$$CBV?$basic_string@DU?$char_traits@D@std@@V?$allocator@D@2@@std@@UPluginCfg@@@std@@PAX@1@@Z 1000c5b0 f i Setting.obj
 0001:0000be20       ??$_Iter_cat@V?$_Tree_iterator@V?$_Tree_val@U?$_Tree_simple_types@U?$pair@$$CBV?$basic_string@DU?$char_traits@D@std@@V?$allocator@D@2@@std@@UPluginCfg@@@std@@@std@@@std@@@std@@@std@@YA?AUbidirectional_iterator_tag@0@ABV?$_Tree_iterator@V?$_Tree_val@U?$_Tree_simple_types@U?$pair@$$CBV?$basic_string@DU?$char_traits@D@std@@V?$allocator@D@2@@std@@UPluginCfg@@@std@@@std@@@std@@@0@@Z 1000ce20 f i Setting.obj
 0001:0000bea0       ??$_Kfn@$$CBV?$basic_string@DU?$char_traits@D@std@@V?$allocator@D@2@@std@@UPluginCfg@@@?$_Tmap_traits@V?$basic_string@DU?$char_traits@D@std@@V?$allocator@D@2@@std@@UPluginCfg@@U?$less@V?$basic_string@DU?$char_traits@D@std@@V?$allocator@D@2@@std@@@2@V?$allocator@U?$pair@$$CBV?$basic_string@DU?$char_traits@D@std@@V?$allocator@D@2@@std@@UPluginCfg@@@std@@@2@$0A@@std@@SAABV?$basic_string@DU?$char_traits@D@std@@V?$allocator@D@2@@1@ABU?$pair@$$CBV?$basic_string@DU?$char_traits@D@std@@V?$allocator@D@2@@std@@UPluginCfg@@@1@@Z 1000cea0 f i Setting.obj
 0001:0000bee0       ??$_Move@AAD@std@@YA$$QADAAD@Z 1000cee0 f i Setting.obj
 0001:0000bf20       ??$addressof@PAU?$_Tree_node@U?$pair@$$CBV?$basic_string@DU?$char_traits@D@std@@V?$allocator@D@2@@std@@UPluginCfg@@@std@@PAX@std@@@std@@YAPAPAU?$_Tree_node@U?$pair@$$CBV?$basic_string@DU?$char_traits@D@std@@V?$allocator@D@2@@std@@UPluginCfg@@@std@@PAX@0@AAPAU10@@Z 1000cf20 f i Setting.obj
 0001:0000bf60       ??$addressof@U?$pair@$$CBV?$basic_string@DU?$char_traits@D@std@@V?$allocator@D@2@@std@@UPluginCfg@@@std@@@std@@YAPAU?$pair@$$CBV?$basic_string@DU?$char_traits@D@std@@V?$allocator@D@2@@std@@UPluginCfg@@@0@AAU10@@Z 1000cf60 f i Setting.obj
 0001:0000bfa0       ??$construct@PAU?$_Tree_node@U?$pair@$$CBV?$basic_string@DU?$char_traits@D@std@@V?$allocator@D@2@@std@@UPluginCfg@@@std@@PAX@std@@AAPAU12@@?$_Wrap_alloc@V?$allocator@U?$_Tree_node@U?$pair@$$CBV?$basic_string@DU?$char_traits@D@std@@V?$allocator@D@2@@std@@UPluginCfg@@@std@@PAX@std@@@std@@@std@@QAEXPAPAU?$_Tree_node@U?$pair@$$CBV?$basic_string@DU?$char_traits@D@std@@V?$allocator@D@2@@std@@UPluginCfg@@@std@@PAX@1@AAPAU21@@Z 1000cfa0 f i Setting.obj
 0001:0000c010       ??$construct@PAU?$_Tree_node@U?$pair@$$CBV?$basic_string@DU?$char_traits@D@std@@V?$allocator@D@2@@std@@UPluginCfg@@@std@@PAX@std@@AAPAU12@@?$allocator@U?$_Tree_node@U?$pair@$$CBV?$basic_string@DU?$char_traits@D@std@@V?$allocator@D@2@@std@@UPluginCfg@@@std@@PAX@std@@@std@@QAEXPAPAU?$_Tree_node@U?$pair@$$CBV?$basic_string@DU?$char_traits@D@std@@V?$allocator@D@2@@std@@UPluginCfg@@@std@@PAX@1@AAPAU21@@Z 1000d010 f i Setting.obj
 0001:0000c110       ??$construct@PAU?$_Tree_node@U?$pair@$$CBV?$basic_string@DU?$char_traits@D@std@@V?$allocator@D@2@@std@@UPluginCfg@@@std@@PAX@std@@AAPAU12@@?$allocator_traits@V?$allocator@U?$_Tree_node@U?$pair@$$CBV?$basic_string@DU?$char_traits@D@std@@V?$allocator@D@2@@std@@UPluginCfg@@@std@@PAX@std@@@std@@@std@@SAXAAV?$allocator@U?$_Tree_node@U?$pair@$$CBV?$basic_string@DU?$char_traits@D@std@@V?$allocator@D@2@@std@@UPluginCfg@@@std@@PAX@std@@@1@PAPAU?$_Tree_node@U?$pair@$$CBV?$basic_string@DU?$char_traits@D@std@@V?$allocator@D@2@@std@@UPluginCfg@@@std@@PAX@1@AAPAU31@@Z 1000d110 f i Setting.obj
 0001:0000c170       ??$construct@U?$pair@$$CBV?$basic_string@DU?$char_traits@D@std@@V?$allocator@D@2@@std@@UPluginCfg@@@std@@AAU12@@?$_Wrap_alloc@V?$allocator@U?$_Tree_node@U?$pair@$$CBV?$basic_string@DU?$char_traits@D@std@@V?$allocator@D@2@@std@@UPluginCfg@@@std@@PAX@std@@@std@@@std@@QAEXPAU?$pair@$$CBV?$basic_string@DU?$char_traits@D@std@@V?$allocator@D@2@@std@@UPluginCfg@@@1@AAU21@@Z 1000d170 f i Setting.obj
 0001:0000c1e0       ??$construct@U?$pair@$$CBV?$basic_string@DU?$char_traits@D@std@@V?$allocator@D@2@@std@@UPluginCfg@@@std@@AAU12@@?$allocator@U?$_Tree_node@U?$pair@$$CBV?$basic_string@DU?$char_traits@D@std@@V?$allocator@D@2@@std@@UPluginCfg@@@std@@PAX@std@@@std@@QAEXPAU?$pair@$$CBV?$basic_string@DU?$char_traits@D@std@@V?$allocator@D@2@@std@@UPluginCfg@@@1@AAU21@@Z 1000d1e0 f i Setting.obj
 0001:0000c2e0       ??$construct@U?$pair@$$CBV?$basic_string@DU?$char_traits@D@std@@V?$allocator@D@2@@std@@UPluginCfg@@@std@@AAU12@@?$allocator_traits@V?$allocator@U?$_Tree_node@U?$pair@$$CBV?$basic_string@DU?$char_traits@D@std@@V?$allocator@D@2@@std@@UPluginCfg@@@std@@PAX@std@@@std@@@std@@SAXAAV?$allocator@U?$_Tree_node@U?$pair@$$CBV?$basic_string@DU?$char_traits@D@std@@V?$allocator@D@2@@std@@UPluginCfg@@@std@@PAX@std@@@1@PAU?$pair@$$CBV?$basic_string@DU?$char_traits@D@std@@V?$allocator@D@2@@std@@UPluginCfg@@@1@AAU31@@Z 1000d2e0 f i Setting.obj
 0001:0000c340       ??$construct@U?$pair@$$CBV?$basic_string@DU?$char_traits@D@std@@V?$allocator@D@2@@std@@UPluginCfg@@@std@@U?$pair@V?$basic_string@DU?$char_traits@D@std@@V?$allocator@D@2@@std@@UPluginCfg@@@2@@?$_Wrap_alloc@V?$allocator@U?$_Tree_node@U?$pair@$$CBV?$basic_string@DU?$char_traits@D@std@@V?$allocator@D@2@@std@@UPluginCfg@@@std@@PAX@std@@@std@@@std@@QAEXPAU?$pair@$$CBV?$basic_string@DU?$char_traits@D@std@@V?$allocator@D@2@@std@@UPluginCfg@@@1@$$QAU?$pair@V?$basic_string@DU?$char_traits@D@std@@V?$allocator@D@2@@std@@UPluginCfg@@@1@@Z 1000d340 f i Setting.obj
 0001:0000c3b0       ??$construct@U?$pair@$$CBV?$basic_string@DU?$char_traits@D@std@@V?$allocator@D@2@@std@@UPluginCfg@@@std@@U?$pair@V?$basic_string@DU?$char_traits@D@std@@V?$allocator@D@2@@std@@UPluginCfg@@@2@@?$allocator@U?$_Tree_node@U?$pair@$$CBV?$basic_string@DU?$char_traits@D@std@@V?$allocator@D@2@@std@@UPluginCfg@@@std@@PAX@std@@@std@@QAEXPAU?$pair@$$CBV?$basic_string@DU?$char_traits@D@std@@V?$allocator@D@2@@std@@UPluginCfg@@@1@$$QAU?$pair@V?$basic_string@DU?$char_traits@D@std@@V?$allocator@D@2@@std@@UPluginCfg@@@1@@Z 1000d3b0 f i Setting.obj
 0001:0000c4b0       ??$construct@U?$pair@$$CBV?$basic_string@DU?$char_traits@D@std@@V?$allocator@D@2@@std@@UPluginCfg@@@std@@U?$pair@V?$basic_string@DU?$char_traits@D@std@@V?$allocator@D@2@@std@@UPluginCfg@@@2@@?$allocator_traits@V?$allocator@U?$_Tree_node@U?$pair@$$CBV?$basic_string@DU?$char_traits@D@std@@V?$allocator@D@2@@std@@UPluginCfg@@@std@@PAX@std@@@std@@@std@@SAXAAV?$allocator@U?$_Tree_node@U?$pair@$$CBV?$basic_string@DU?$char_traits@D@std@@V?$allocator@D@2@@std@@UPluginCfg@@@std@@PAX@std@@@1@PAU?$pair@$$CBV?$basic_string@DU?$char_traits@D@std@@V?$allocator@D@2@@std@@UPluginCfg@@@1@$$QAU?$pair@V?$basic_string@DU?$char_traits@D@std@@V?$allocator@D@2@@std@@UPluginCfg@@@1@@Z 1000d4b0 f i Setting.obj
 0001:0000c510       ??$construct@U_Container_proxy@std@@U12@@?$_Wrap_alloc@V?$allocator@U_Container_proxy@std@@@std@@@std@@QAEXPAU_Container_proxy@1@$$QAU21@@Z 1000d510 f i Setting.obj
 0001:0000c580       ??$construct@U_Container_proxy@std@@U12@@?$allocator_traits@V?$allocator@U_Container_proxy@std@@@std@@@std@@SAXAAV?$allocator@U_Container_proxy@std@@@1@PAU_Container_proxy@1@$$QAU31@@Z 1000d580 f i Setting.obj
 0001:0000c5e0       ??$destroy@PAU?$_Tree_node@U?$pair@$$CBV?$basic_string@DU?$char_traits@D@std@@V?$allocator@D@2@@std@@UPluginCfg@@@std@@PAX@std@@@?$_Wrap_alloc@V?$allocator@U?$_Tree_node@U?$pair@$$CBV?$basic_string@DU?$char_traits@D@std@@V?$allocator@D@2@@std@@UPluginCfg@@@std@@PAX@std@@@std@@@std@@QAEXPAPAU?$_Tree_node@U?$pair@$$CBV?$basic_string@DU?$char_traits@D@std@@V?$allocator@D@2@@std@@UPluginCfg@@@std@@PAX@1@@Z 1000d5e0 f i Setting.obj
 0001:0000c640       ??$destroy@PAU?$_Tree_node@U?$pair@$$CBV?$basic_string@DU?$char_traits@D@std@@V?$allocator@D@2@@std@@UPluginCfg@@@std@@PAX@std@@@?$allocator@U?$_Tree_node@U?$pair@$$CBV?$basic_string@DU?$char_traits@D@std@@V?$allocator@D@2@@std@@UPluginCfg@@@std@@PAX@std@@@std@@QAEXPAPAU?$_Tree_node@U?$pair@$$CBV?$basic_string@DU?$char_traits@D@std@@V?$allocator@D@2@@std@@UPluginCfg@@@std@@PAX@1@@Z 1000d640 f i Setting.obj
 0001:0000c680       ??$destroy@PAU?$_Tree_node@U?$pair@$$CBV?$basic_string@DU?$char_traits@D@std@@V?$allocator@D@2@@std@@UPluginCfg@@@std@@PAX@std@@@?$allocator_traits@V?$allocator@U?$_Tree_node@U?$pair@$$CBV?$basic_string@DU?$char_traits@D@std@@V?$allocator@D@2@@std@@UPluginCfg@@@std@@PAX@std@@@std@@@std@@SAXAAV?$allocator@U?$_Tree_node@U?$pair@$$CBV?$basic_string@DU?$char_traits@D@std@@V?$allocator@D@2@@std@@UPluginCfg@@@std@@PAX@std@@@1@PAPAU?$_Tree_node@U?$pair@$$CBV?$basic_string@DU?$char_traits@D@std@@V?$allocator@D@2@@std@@UPluginCfg@@@std@@PAX@1@@Z 1000d680 f i Setting.obj
 0001:0000c6d0       ??$destroy@U?$pair@$$CBV?$basic_string@DU?$char_traits@D@std@@V?$allocator@D@2@@std@@UPluginCfg@@@std@@@?$_Wrap_alloc@V?$allocator@U?$_Tree_node@U?$pair@$$CBV?$basic_string@DU?$char_traits@D@std@@V?$allocator@D@2@@std@@UPluginCfg@@@std@@PAX@std@@@std@@@std@@QAEXPAU?$pair@$$CBV?$basic_string@DU?$char_traits@D@std@@V?$allocator@D@2@@std@@UPluginCfg@@@1@@Z 1000d6d0 f i Setting.obj
 0001:0000c730       ??$destroy@U?$pair@$$CBV?$basic_string@DU?$char_traits@D@std@@V?$allocator@D@2@@std@@UPluginCfg@@@std@@@?$allocator@U?$_Tree_node@U?$pair@$$CBV?$basic_string@DU?$char_traits@D@std@@V?$allocator@D@2@@std@@UPluginCfg@@@std@@PAX@std@@@std@@QAEXPAU?$pair@$$CBV?$basic_string@DU?$char_traits@D@std@@V?$allocator@D@2@@std@@UPluginCfg@@@1@@Z 1000d730 f i Setting.obj
 0001:0000c790       ??$destroy@U?$pair@$$CBV?$basic_string@DU?$char_traits@D@std@@V?$allocator@D@2@@std@@UPluginCfg@@@std@@@?$allocator_traits@V?$allocator@U?$_Tree_node@U?$pair@$$CBV?$basic_string@DU?$char_traits@D@std@@V?$allocator@D@2@@std@@UPluginCfg@@@std@@PAX@std@@@std@@@std@@SAXAAV?$allocator@U?$_Tree_node@U?$pair@$$CBV?$basic_string@DU?$char_traits@D@std@@V?$allocator@D@2@@std@@UPluginCfg@@@std@@PAX@std@@@1@PAU?$pair@$$CBV?$basic_string@DU?$char_traits@D@std@@V?$allocator@D@2@@std@@UPluginCfg@@@1@@Z 1000d790 f i Setting.obj
 0001:0000c7e0       ??$destroy@U_Container_proxy@std@@@?$_Wrap_alloc@V?$allocator@U_Container_proxy@std@@@std@@@std@@QAEXPAU_Container_proxy@1@@Z 1000d7e0 f i Setting.obj
 0001:0000c840       ??$destroy@U_Container_proxy@std@@@?$allocator_traits@V?$allocator@U_Container_proxy@std@@@std@@@std@@SAXAAV?$allocator@U_Container_proxy@std@@@1@PAU_Container_proxy@1@@Z 1000d840 f i Setting.obj
 0001:0000c890       ??$forward@AAPAU?$_Tree_node@U?$pair@$$CBV?$basic_string@DU?$char_traits@D@std@@V?$allocator@D@2@@std@@UPluginCfg@@@std@@PAX@std@@@std@@YAAAPAU?$_Tree_node@U?$pair@$$CBV?$basic_string@DU?$char_traits@D@std@@V?$allocator@D@2@@std@@UPluginCfg@@@std@@PAX@0@AAPAU10@@Z 1000d890 f i Setting.obj
 0001:0000c8d0       ??$forward@AAU?$pair@$$CBV?$basic_string@DU?$char_traits@D@std@@V?$allocator@D@2@@std@@UPluginCfg@@@std@@@std@@YAAAU?$pair@$$CBV?$basic_string@DU?$char_traits@D@std@@V?$allocator@D@2@@std@@UPluginCfg@@@0@AAU10@@Z 1000d8d0 f i Setting.obj
 0001:0000c910       ??$forward@AAV?$_Tree_iterator@V?$_Tree_val@U?$_Tree_simple_types@U?$pair@$$CBV?$basic_string@DU?$char_traits@D@std@@V?$allocator@D@2@@std@@UPluginCfg@@@std@@@std@@@std@@@std@@@std@@YAAAV?$_Tree_iterator@V?$_Tree_val@U?$_Tree_simple_types@U?$pair@$$CBV?$basic_string@DU?$char_traits@D@std@@V?$allocator@D@2@@std@@UPluginCfg@@@std@@@std@@@std@@@0@AAV10@@Z 1000d910 f i Setting.obj
 0001:0000c950       ??$forward@ABV?$basic_string@DU?$char_traits@D@std@@V?$allocator@D@2@@std@@@std@@YAABV?$basic_string@DU?$char_traits@D@std@@V?$allocator@D@2@@0@ABV10@@Z 1000d950 f i Setting.obj
 0001:0000c990       ??$forward@U?$pair@V?$basic_string@DU?$char_traits@D@std@@V?$allocator@D@2@@std@@UPluginCfg@@@std@@@std@@YA$$QAU?$pair@V?$basic_string@DU?$char_traits@D@std@@V?$allocator@D@2@@std@@UPluginCfg@@@0@AAU10@@Z 1000d990 f i Setting.obj
 0001:0000c9d0       ??$forward@UPluginCfg@@@std@@YA$$QAUPluginCfg@@AAU1@@Z 1000d9d0 f i Setting.obj
 0001:0000ca10       ??$forward@V?$_Tree_iterator@V?$_Tree_val@U?$_Tree_simple_types@U?$pair@$$CBV?$basic_string@DU?$char_traits@D@std@@V?$allocator@D@2@@std@@UPluginCfg@@@std@@@std@@@std@@@std@@@std@@YA$$QAV?$_Tree_iterator@V?$_Tree_val@U?$_Tree_simple_types@U?$pair@$$CBV?$basic_string@DU?$char_traits@D@std@@V?$allocator@D@2@@std@@UPluginCfg@@@std@@@std@@@std@@@0@AAV10@@Z 1000da10 f i Setting.obj
 0001:0000ca50       ??$forward@V?$basic_string@DU?$char_traits@D@std@@V?$allocator@D@2@@std@@@std@@YA$$QAV?$basic_string@DU?$char_traits@D@std@@V?$allocator@D@2@@0@AAV10@@Z 1000da50 f i Setting.obj
 0001:0000ca90       ??$forward@_N@std@@YA$$QA_NAA_N@Z 1000da90 f i Setting.obj
 0001:0000cad0       ??$insert@U?$pair@V?$basic_string@DU?$char_traits@D@std@@V?$allocator@D@2@@std@@UPluginCfg@@@std@@@?$_Tree@V?$_Tmap_traits@V?$basic_string@DU?$char_traits@D@std@@V?$allocator@D@2@@std@@UPluginCfg@@U?$less@V?$basic_string@DU?$char_traits@D@std@@V?$allocator@D@2@@std@@@2@V?$allocator@U?$pair@$$CBV?$basic_string@DU?$char_traits@D@std@@V?$allocator@D@2@@std@@UPluginCfg@@@std@@@2@$0A@@std@@@std@@QAE?AV?$_Tree_iterator@V?$_Tree_val@U?$_Tree_simple_types@U?$pair@$$CBV?$basic_string@DU?$char_traits@D@std@@V?$allocator@D@2@@std@@UPluginCfg@@@std@@@std@@@std@@@1@V?$_Tree_const_iterator@V?$_Tree_val@U?$_Tree_simple_types@U?$pair@$$CBV?$basic_string@DU?$char_traits@D@std@@V?$allocator@D@2@@std@@UPluginCfg@@@std@@@std@@@std@@@1@$$QAU?$pair@V?$basic_string@DU?$char_traits@D@std@@V?$allocator@D@2@@std@@UPluginCfg@@@1@@Z 1000dad0 f i Setting.obj
 0001:0000cc00       ??$move@AAV?$basic_string@DU?$char_traits@D@std@@V?$allocator@D@2@@std@@@std@@YA$$QAV?$basic_string@DU?$char_traits@D@std@@V?$allocator@D@2@@0@AAV10@@Z 1000dc00 f i Setting.obj
 0001:0000cc40       ??$strcpy_s@$0CA@@@YAHAAY0CA@DPBD@Z 1000dc40 f i Setting.obj
 0001:0000cca0       ??$strcpy_s@$0IA@@@YAHAAY0IA@DPBD@Z 1000dca0 f i Setting.obj
 0001:0000cd00       ??$swap@D@std@@YAXAAD0@Z   1000dd00 f i Setting.obj
 0001:0000cdc0       ??0?$_Iterator012@Ubidirectional_iterator_tag@std@@U?$pair@$$CBV?$basic_string@DU?$char_traits@D@std@@V?$allocator@D@2@@std@@UPluginCfg@@@2@HPBU32@ABU32@U_Iterator_base12@2@@std@@QAE@ABU01@@Z 1000ddc0 f i Setting.obj
 0001:0000ce20       ??0?$_Iterator012@Ubidirectional_iterator_tag@std@@U?$pair@$$CBV?$basic_string@DU?$char_traits@D@std@@V?$allocator@D@2@@std@@UPluginCfg@@@2@HPBU32@ABU32@U_Iterator_base12@2@@std@@QAE@XZ 1000de20 f i Setting.obj
 0001:0000ce80       ??0?$_Tree@V?$_Tmap_traits@V?$basic_string@DU?$char_traits@D@std@@V?$allocator@D@2@@std@@UPluginCfg@@U?$less@V?$basic_string@DU?$char_traits@D@std@@V?$allocator@D@2@@std@@@2@V?$allocator@U?$pair@$$CBV?$basic_string@DU?$char_traits@D@std@@V?$allocator@D@2@@std@@UPluginCfg@@@std@@@2@$0A@@std@@@std@@QAE@ABU?$less@V?$basic_string@DU?$char_traits@D@std@@V?$allocator@D@2@@std@@@1@ABV?$allocator@U?$pair@$$CBV?$basic_string@DU?$char_traits@D@std@@V?$allocator@D@2@@std@@UPluginCfg@@@std@@@1@@Z 1000de80 f i Setting.obj
 0001:0000cee0       ??0?$_Tree@V?$_Tmap_traits@V?$basic_string@DU?$char_traits@D@std@@V?$allocator@D@2@@std@@UPluginCfg@@U?$less@V?$basic_string@DU?$char_traits@D@std@@V?$allocator@D@2@@std@@@2@V?$allocator@U?$pair@$$CBV?$basic_string@DU?$char_traits@D@std@@V?$allocator@D@2@@std@@UPluginCfg@@@std@@@2@$0A@@std@@@std@@QAE@ABV01@ABV?$allocator@U?$pair@$$CBV?$basic_string@DU?$char_traits@D@std@@V?$allocator@D@2@@std@@UPluginCfg@@@std@@@1@@Z 1000dee0 f i Setting.obj
 0001:0000d000       ??0?$_Tree_alloc@$0A@U?$_Tree_base_types@U?$pair@$$CBV?$basic_string@DU?$char_traits@D@std@@V?$allocator@D@2@@std@@UPluginCfg@@@std@@V?$allocator@U?$pair@$$CBV?$basic_string@DU?$char_traits@D@std@@V?$allocator@D@2@@std@@UPluginCfg@@@std@@@2@@std@@@std@@QAE@ABV?$allocator@U?$pair@$$CBV?$basic_string@DU?$char_traits@D@std@@V?$allocator@D@2@@std@@UPluginCfg@@@std@@@1@@Z 1000e000 f i Setting.obj
 0001:0000d100       ??0?$_Tree_buy@U?$pair@$$CBV?$basic_string@DU?$char_traits@D@std@@V?$allocator@D@2@@std@@UPluginCfg@@@std@@V?$allocator@U?$pair@$$CBV?$basic_string@DU?$char_traits@D@std@@V?$allocator@D@2@@std@@UPluginCfg@@@std@@@2@@std@@QAE@ABV?$allocator@U?$pair@$$CBV?$basic_string@DU?$char_traits@D@std@@V?$allocator@D@2@@std@@UPluginCfg@@@std@@@1@@Z 1000e100 f i Setting.obj
 0001:0000d160       ??0?$_Tree_comp@$0A@V?$_Tmap_traits@V?$basic_string@DU?$char_traits@D@std@@V?$allocator@D@2@@std@@UPluginCfg@@U?$less@V?$basic_string@DU?$char_traits@D@std@@V?$allocator@D@2@@std@@@2@V?$allocator@U?$pair@$$CBV?$basic_string@DU?$char_traits@D@std@@V?$allocator@D@2@@std@@UPluginCfg@@@std@@@2@$0A@@std@@@std@@QAE@ABU?$less@V?$basic_string@DU?$char_traits@D@std@@V?$allocator@D@2@@std@@@1@ABV?$allocator@U?$pair@$$CBV?$basic_string@DU?$char_traits@D@std@@V?$allocator@D@2@@std@@UPluginCfg@@@std@@@1@@Z 1000e160 f i Setting.obj
 0001:0000d1c0       ??0?$_Tree_const_iterator@V?$_Tree_val@U?$_Tree_simple_types@U?$pair@$$CBV?$basic_string@DU?$char_traits@D@std@@V?$allocator@D@2@@std@@UPluginCfg@@@std@@@std@@@std@@@std@@QAE@ABV01@@Z 1000e1c0 f i Setting.obj
 0001:0000d220       ??0?$_Tree_const_iterator@V?$_Tree_val@U?$_Tree_simple_types@U?$pair@$$CBV?$basic_string@DU?$char_traits@D@std@@V?$allocator@D@2@@std@@UPluginCfg@@@std@@@std@@@std@@@std@@QAE@PAU?$_Tree_node@U?$pair@$$CBV?$basic_string@DU?$char_traits@D@std@@V?$allocator@D@2@@std@@UPluginCfg@@@std@@PAX@1@PBV?$_Tree_val@U?$_Tree_simple_types@U?$pair@$$CBV?$basic_string@DU?$char_traits@D@std@@V?$allocator@D@2@@std@@UPluginCfg@@@std@@@std@@@1@@Z 1000e220 f i Setting.obj
 0001:0000d280       ??0?$_Tree_const_iterator@V?$_Tree_val@U?$_Tree_simple_types@U?$pair@$$CBV?$basic_string@DU?$char_traits@D@std@@V?$allocator@D@2@@std@@UPluginCfg@@@std@@@std@@@std@@@std@@QAE@XZ 1000e280 f i Setting.obj
 0001:0000d2e0       ??0?$_Tree_iterator@V?$_Tree_val@U?$_Tree_simple_types@U?$pair@$$CBV?$basic_string@DU?$char_traits@D@std@@V?$allocator@D@2@@std@@UPluginCfg@@@std@@@std@@@std@@@std@@QAE@ABV01@@Z 1000e2e0 f i Setting.obj
 0001:0000d340       ??0?$_Tree_iterator@V?$_Tree_val@U?$_Tree_simple_types@U?$pair@$$CBV?$basic_string@DU?$char_traits@D@std@@V?$allocator@D@2@@std@@UPluginCfg@@@std@@@std@@@std@@@std@@QAE@PAU?$_Tree_node@U?$pair@$$CBV?$basic_string@DU?$char_traits@D@std@@V?$allocator@D@2@@std@@UPluginCfg@@@std@@PAX@1@PBV?$_Tree_val@U?$_Tree_simple_types@U?$pair@$$CBV?$basic_string@DU?$char_traits@D@std@@V?$allocator@D@2@@std@@UPluginCfg@@@std@@@std@@@1@@Z 1000e340 f i Setting.obj
 0001:0000d3a0       ??0?$_Tree_unchecked_const_iterator@V?$_Tree_val@U?$_Tree_simple_types@U?$pair@$$CBV?$basic_string@DU?$char_traits@D@std@@V?$allocator@D@2@@std@@UPluginCfg@@@std@@@std@@@std@@U_Iterator_base12@2@@std@@QAE@ABV01@@Z 1000e3a0 f i Setting.obj
 0001:0000d410       ??0?$_Tree_unchecked_const_iterator@V?$_Tree_val@U?$_Tree_simple_types@U?$pair@$$CBV?$basic_string@DU?$char_traits@D@std@@V?$allocator@D@2@@std@@UPluginCfg@@@std@@@std@@@std@@U_Iterator_base12@2@@std@@QAE@PAU?$_Tree_node@U?$pair@$$CBV?$basic_string@DU?$char_traits@D@std@@V?$allocator@D@2@@std@@UPluginCfg@@@std@@PAX@1@PBV?$_Tree_val@U?$_Tree_simple_types@U?$pair@$$CBV?$basic_string@DU?$char_traits@D@std@@V?$allocator@D@2@@std@@UPluginCfg@@@std@@@std@@@1@@Z 1000e410 f i Setting.obj
 0001:0000d4d0       ??0?$_Tree_unchecked_const_iterator@V?$_Tree_val@U?$_Tree_simple_types@U?$pair@$$CBV?$basic_string@DU?$char_traits@D@std@@V?$allocator@D@2@@std@@UPluginCfg@@@std@@@std@@@std@@U_Iterator_base12@2@@std@@QAE@XZ 1000e4d0 f i Setting.obj
 0001:0000d530       ??0?$_Tree_val@U?$_Tree_simple_types@U?$pair@$$CBV?$basic_string@DU?$char_traits@D@std@@V?$allocator@D@2@@std@@UPluginCfg@@@std@@@std@@@std@@QAE@XZ 1000e530 f i Setting.obj
 0001:0000d5a0       ??0?$_Wrap_alloc@V?$allocator@U?$_Tree_node@U?$pair@$$CBV?$basic_string@DU?$char_traits@D@std@@V?$allocator@D@2@@std@@UPluginCfg@@@std@@PAX@std@@@std@@@std@@QAE@ABV?$allocator@U?$_Tree_node@U?$pair@$$CBV?$basic_string@DU?$char_traits@D@std@@V?$allocator@D@2@@std@@UPluginCfg@@@std@@PAX@std@@@1@@Z 1000e5a0 f i Setting.obj
 0001:0000d600       ??0?$_Wrap_alloc@V?$allocator@U?$_Tree_node@U?$pair@$$CBV?$basic_string@DU?$char_traits@D@std@@V?$allocator@D@2@@std@@UPluginCfg@@@std@@PAX@std@@@std@@@std@@QAE@XZ 1000e600 f i Setting.obj
 0001:0000d660       ??0?$allocator@U?$_Tree_node@U?$pair@$$CBV?$basic_string@DU?$char_traits@D@std@@V?$allocator@D@2@@std@@UPluginCfg@@@std@@PAX@std@@@std@@QAE@ABV01@@Z 1000e660 f i Setting.obj
 0001:0000d6a0       ??0?$allocator@U?$_Tree_node@U?$pair@$$CBV?$basic_string@DU?$char_traits@D@std@@V?$allocator@D@2@@std@@UPluginCfg@@@std@@PAX@std@@@std@@QAE@XZ 1000e6a0 f i Setting.obj
 0001:0000d6e0       ??0?$allocator@U?$pair@$$CBV?$basic_string@DU?$char_traits@D@std@@V?$allocator@D@2@@std@@UPluginCfg@@@std@@@std@@QAE@XZ 1000e6e0 f i Setting.obj
 0001:0000d720       ??0?$basic_string@DU?$char_traits@D@std@@V?$allocator@D@2@@std@@QAE@$$QAV01@@Z 1000e720 f i Setting.obj
 0001:0000d7c0       ??0?$map@V?$basic_string@DU?$char_traits@D@std@@V?$allocator@D@2@@std@@UPluginCfg@@U?$less@V?$basic_string@DU?$char_traits@D@std@@V?$allocator@D@2@@std@@@2@V?$allocator@U?$pair@$$CBV?$basic_string@DU?$char_traits@D@std@@V?$allocator@D@2@@std@@UPluginCfg@@@std@@@2@@std@@QAE@ABV01@@Z 1000e7c0 f i Setting.obj
 0001:0000d860       ??0?$map@V?$basic_string@DU?$char_traits@D@std@@V?$allocator@D@2@@std@@UPluginCfg@@U?$less@V?$basic_string@DU?$char_traits@D@std@@V?$allocator@D@2@@std@@@2@V?$allocator@U?$pair@$$CBV?$basic_string@DU?$char_traits@D@std@@V?$allocator@D@2@@std@@UPluginCfg@@@std@@@2@@std@@QAE@XZ 1000e860 f i Setting.obj
 0001:0000d8d0       ??0?$pair@$$CBV?$basic_string@DU?$char_traits@D@std@@V?$allocator@D@2@@std@@UPluginCfg@@@std@@QAE@ABU01@@Z 1000e8d0 f i Setting.obj
 0001:0000d950       ??0Setting@@QAE@XZ         1000e950 f   Setting.obj
 0001:0000d9b0       ??0_Iterator_base12@std@@QAE@ABU01@@Z 1000e9b0 f i Setting.obj
 0001:0000da30       ??0_Iterator_base12@std@@QAE@XZ 1000ea30 f i Setting.obj
 0001:0000da80       ??1?$_Iterator012@Ubidirectional_iterator_tag@std@@U?$pair@$$CBV?$basic_string@DU?$char_traits@D@std@@V?$allocator@D@2@@std@@UPluginCfg@@@2@HPBU32@ABU32@U_Iterator_base12@2@@std@@QAE@XZ 1000ea80 f i Setting.obj
 0001:0000dad0       ??1?$_Tree@V?$_Tmap_traits@V?$basic_string@DU?$char_traits@D@std@@V?$allocator@D@2@@std@@UPluginCfg@@U?$less@V?$basic_string@DU?$char_traits@D@std@@V?$allocator@D@2@@std@@@2@V?$allocator@U?$pair@$$CBV?$basic_string@DU?$char_traits@D@std@@V?$allocator@D@2@@std@@UPluginCfg@@@std@@@2@$0A@@std@@@std@@QAE@XZ 1000ead0 f i Setting.obj
 0001:0000db30       ??1?$_Tree_alloc@$0A@U?$_Tree_base_types@U?$pair@$$CBV?$basic_string@DU?$char_traits@D@std@@V?$allocator@D@2@@std@@UPluginCfg@@@std@@V?$allocator@U?$pair@$$CBV?$basic_string@DU?$char_traits@D@std@@V?$allocator@D@2@@std@@UPluginCfg@@@std@@@2@@std@@@std@@QAE@XZ 1000eb30 f i Setting.obj
 0001:0000dba0       ??1?$_Tree_buy@U?$pair@$$CBV?$basic_string@DU?$char_traits@D@std@@V?$allocator@D@2@@std@@UPluginCfg@@@std@@V?$allocator@U?$pair@$$CBV?$basic_string@DU?$char_traits@D@std@@V?$allocator@D@2@@std@@UPluginCfg@@@std@@@2@@std@@QAE@XZ 1000eba0 f i Setting.obj
 0001:0000dbf0       ??1?$_Tree_comp@$0A@V?$_Tmap_traits@V?$basic_string@DU?$char_traits@D@std@@V?$allocator@D@2@@std@@UPluginCfg@@U?$less@V?$basic_string@DU?$char_traits@D@std@@V?$allocator@D@2@@std@@@2@V?$allocator@U?$pair@$$CBV?$basic_string@DU?$char_traits@D@std@@V?$allocator@D@2@@std@@UPluginCfg@@@std@@@2@$0A@@std@@@std@@QAE@XZ 1000ebf0 f i Setting.obj
 0001:0000dc40       ??1?$_Tree_const_iterator@V?$_Tree_val@U?$_Tree_simple_types@U?$pair@$$CBV?$basic_string@DU?$char_traits@D@std@@V?$allocator@D@2@@std@@UPluginCfg@@@std@@@std@@@std@@@std@@QAE@XZ 1000ec40 f i Setting.obj
 0001:0000dc90       ??1?$_Tree_iterator@V?$_Tree_val@U?$_Tree_simple_types@U?$pair@$$CBV?$basic_string@DU?$char_traits@D@std@@V?$allocator@D@2@@std@@UPluginCfg@@@std@@@std@@@std@@@std@@QAE@XZ 1000ec90 f i Setting.obj
 0001:0000dce0       ??1?$_Tree_unchecked_const_iterator@V?$_Tree_val@U?$_Tree_simple_types@U?$pair@$$CBV?$basic_string@DU?$char_traits@D@std@@V?$allocator@D@2@@std@@UPluginCfg@@@std@@@std@@@std@@U_Iterator_base12@2@@std@@QAE@XZ 1000ece0 f i Setting.obj
 0001:0000dd30       ??1?$_Tree_val@U?$_Tree_simple_types@U?$pair@$$CBV?$basic_string@DU?$char_traits@D@std@@V?$allocator@D@2@@std@@UPluginCfg@@@std@@@std@@@std@@QAE@XZ 1000ed30 f i Setting.obj
 0001:0000dd80       ??1?$map@V?$basic_string@DU?$char_traits@D@std@@V?$allocator@D@2@@std@@UPluginCfg@@U?$less@V?$basic_string@DU?$char_traits@D@std@@V?$allocator@D@2@@std@@@2@V?$allocator@U?$pair@$$CBV?$basic_string@DU?$char_traits@D@std@@V?$allocator@D@2@@std@@UPluginCfg@@@std@@@2@@std@@QAE@XZ 1000ed80 f i Setting.obj
 0001:0000ddd0       ??1?$pair@$$CBV?$basic_string@DU?$char_traits@D@std@@V?$allocator@D@2@@std@@UPluginCfg@@@std@@QAE@XZ 1000edd0 f i Setting.obj
 0001:0000de20       ??1?$pair@V?$_Tree_iterator@V?$_Tree_val@U?$_Tree_simple_types@U?$pair@$$CBV?$basic_string@DU?$char_traits@D@std@@V?$allocator@D@2@@std@@UPluginCfg@@@std@@@std@@@std@@@std@@V12@@std@@QAE@XZ 1000ee20 f i Setting.obj
 0001:0000de80       ??1?$pair@V?$_Tree_iterator@V?$_Tree_val@U?$_Tree_simple_types@U?$pair@$$CBV?$basic_string@DU?$char_traits@D@std@@V?$allocator@D@2@@std@@UPluginCfg@@@std@@@std@@@std@@@std@@_N@std@@QAE@XZ 1000ee80 f i Setting.obj
 0001:0000ded0       ??1?$pair@V?$basic_string@DU?$char_traits@D@std@@V?$allocator@D@2@@std@@UPluginCfg@@@std@@QAE@XZ 1000eed0 f i Setting.obj
 0001:0000df20       ??1Setting@@QAE@XZ         1000ef20 f   Setting.obj
 0001:0000e090       ??1_Iterator_base12@std@@QAE@XZ 1000f090 f i Setting.obj
 0001:0000e130       ??4?$_Iterator012@Ubidirectional_iterator_tag@std@@U?$pair@$$CBV?$basic_string@DU?$char_traits@D@std@@V?$allocator@D@2@@std@@UPluginCfg@@@2@HPBU32@ABU32@U_Iterator_base12@2@@std@@QAEAAU01@ABU01@@Z 1000f130 f i Setting.obj
 0001:0000e190       ??4?$_Tree_const_iterator@V?$_Tree_val@U?$_Tree_simple_types@U?$pair@$$CBV?$basic_string@DU?$char_traits@D@std@@V?$allocator@D@2@@std@@UPluginCfg@@@std@@@std@@@std@@@std@@QAEAAV01@ABV01@@Z 1000f190 f i Setting.obj
 0001:0000e1f0       ??4?$_Tree_iterator@V?$_Tree_val@U?$_Tree_simple_types@U?$pair@$$CBV?$basic_string@DU?$char_traits@D@std@@V?$allocator@D@2@@std@@UPluginCfg@@@std@@@std@@@std@@@std@@QAEAAV01@ABV01@@Z 1000f1f0 f i Setting.obj
 0001:0000e250       ??4?$_Tree_unchecked_const_iterator@V?$_Tree_val@U?$_Tree_simple_types@U?$pair@$$CBV?$basic_string@DU?$char_traits@D@std@@V?$allocator@D@2@@std@@UPluginCfg@@@std@@@std@@@std@@U_Iterator_base12@2@@std@@QAEAAV01@ABV01@@Z 1000f250 f i Setting.obj
 0001:0000e2c0       ??4_Iterator_base12@std@@QAEAAU01@ABU01@@Z 1000f2c0 f i Setting.obj
 0001:0000e3e0       ??8?$_Tree_const_iterator@V?$_Tree_val@U?$_Tree_simple_types@U?$pair@$$CBV?$basic_string@DU?$char_traits@D@std@@V?$allocator@D@2@@std@@UPluginCfg@@@std@@@std@@@std@@@std@@QBE_NABV01@@Z 1000f3e0 f i Setting.obj
 0001:0000e510       ??9?$_Tree_const_iterator@V?$_Tree_val@U?$_Tree_simple_types@U?$pair@$$CBV?$basic_string@DU?$char_traits@D@std@@V?$allocator@D@2@@std@@UPluginCfg@@@std@@@std@@@std@@@std@@QBE_NABV01@@Z 1000f510 f i Setting.obj
 0001:0000e5a0       ??A?$map@V?$basic_string@DU?$char_traits@D@std@@V?$allocator@D@2@@std@@UPluginCfg@@U?$less@V?$basic_string@DU?$char_traits@D@std@@V?$allocator@D@2@@std@@@2@V?$allocator@U?$pair@$$CBV?$basic_string@DU?$char_traits@D@std@@V?$allocator@D@2@@std@@UPluginCfg@@@std@@@2@@std@@QAEAAUPluginCfg@@$$QAV?$basic_string@DU?$char_traits@D@std@@V?$allocator@D@2@@1@@Z 1000f5a0 f i Setting.obj
 0001:0000e8c0       ??A?$map@V?$basic_string@DU?$char_traits@D@std@@V?$allocator@D@2@@std@@UPluginCfg@@U?$less@V?$basic_string@DU?$char_traits@D@std@@V?$allocator@D@2@@std@@@2@V?$allocator@U?$pair@$$CBV?$basic_string@DU?$char_traits@D@std@@V?$allocator@D@2@@std@@UPluginCfg@@@std@@@2@@std@@QAEAAUPluginCfg@@ABV?$basic_string@DU?$char_traits@D@std@@V?$allocator@D@2@@1@@Z 1000f8c0 f i Setting.obj
 0001:0000ebd0       ??C?$_Tree_iterator@V?$_Tree_val@U?$_Tree_simple_types@U?$pair@$$CBV?$basic_string@DU?$char_traits@D@std@@V?$allocator@D@2@@std@@UPluginCfg@@@std@@@std@@@std@@@std@@QBEPAU?$pair@$$CBV?$basic_string@DU?$char_traits@D@std@@V?$allocator@D@2@@std@@UPluginCfg@@@1@XZ 1000fbd0 f i Setting.obj
 0001:0000ec30       ??D?$_Tree_const_iterator@V?$_Tree_val@U?$_Tree_simple_types@U?$pair@$$CBV?$basic_string@DU?$char_traits@D@std@@V?$allocator@D@2@@std@@UPluginCfg@@@std@@@std@@@std@@@std@@QBEABU?$pair@$$CBV?$basic_string@DU?$char_traits@D@std@@V?$allocator@D@2@@std@@UPluginCfg@@@1@XZ 1000fc30 f i Setting.obj
 0001:0000ed40       ??D?$_Tree_iterator@V?$_Tree_val@U?$_Tree_simple_types@U?$pair@$$CBV?$basic_string@DU?$char_traits@D@std@@V?$allocator@D@2@@std@@UPluginCfg@@@std@@@std@@@std@@@std@@QBEAAU?$pair@$$CBV?$basic_string@DU?$char_traits@D@std@@V?$allocator@D@2@@std@@UPluginCfg@@@1@XZ 1000fd40 f i Setting.obj
 0001:0000ed90       ??E?$_Tree_const_iterator@V?$_Tree_val@U?$_Tree_simple_types@U?$pair@$$CBV?$basic_string@DU?$char_traits@D@std@@V?$allocator@D@2@@std@@UPluginCfg@@@std@@@std@@@std@@@std@@QAE?AV01@H@Z 1000fd90 f i Setting.obj
 0001:0000eeb0       ??E?$_Tree_const_iterator@V?$_Tree_val@U?$_Tree_simple_types@U?$pair@$$CBV?$basic_string@DU?$char_traits@D@std@@V?$allocator@D@2@@std@@UPluginCfg@@@std@@@std@@@std@@@std@@QAEAAV01@XZ 1000feb0 f i Setting.obj
 0001:0000efc0       ??E?$_Tree_iterator@V?$_Tree_val@U?$_Tree_simple_types@U?$pair@$$CBV?$basic_string@DU?$char_traits@D@std@@V?$allocator@D@2@@std@@UPluginCfg@@@std@@@std@@@std@@@std@@QAEAAV01@XZ 1000ffc0 f i Setting.obj
 0001:0000f020       ??E?$_Tree_unchecked_const_iterator@V?$_Tree_val@U?$_Tree_simple_types@U?$pair@$$CBV?$basic_string@DU?$char_traits@D@std@@V?$allocator@D@2@@std@@UPluginCfg@@@std@@@std@@@std@@U_Iterator_base12@2@@std@@QAEAAV01@XZ 10010020 f i Setting.obj
 0001:0000f150       ??F?$_Tree_const_iterator@V?$_Tree_val@U?$_Tree_simple_types@U?$pair@$$CBV?$basic_string@DU?$char_traits@D@std@@V?$allocator@D@2@@std@@UPluginCfg@@@std@@@std@@@std@@@std@@QAEAAV01@XZ 10010150 f i Setting.obj
 0001:0000f2e0       ??F?$_Tree_iterator@V?$_Tree_val@U?$_Tree_simple_types@U?$pair@$$CBV?$basic_string@DU?$char_traits@D@std@@V?$allocator@D@2@@std@@UPluginCfg@@@std@@@std@@@std@@@std@@QAEAAV01@XZ 100102e0 f i Setting.obj
 0001:0000f340       ??F?$_Tree_unchecked_const_iterator@V?$_Tree_val@U?$_Tree_simple_types@U?$pair@$$CBV?$basic_string@DU?$char_traits@D@std@@V?$allocator@D@2@@std@@UPluginCfg@@@std@@@std@@@std@@U_Iterator_base12@2@@std@@QAEAAV01@XZ 10010340 f i Setting.obj
 0001:0000f4a0       ??R?$less@V?$basic_string@DU?$char_traits@D@std@@V?$allocator@D@2@@std@@@std@@QBE_NABV?$basic_string@DU?$char_traits@D@std@@V?$allocator@D@2@@1@0@Z 100104a0 f i Setting.obj
 0001:0000f500       ??_G?$pair@$$CBV?$basic_string@DU?$char_traits@D@std@@V?$allocator@D@2@@std@@UPluginCfg@@@std@@QAEPAXI@Z 10010500 f i Setting.obj
 0001:0000f570       ?_Adopt@_Iterator_base12@std@@QAEXPBU_Container_base12@2@@Z 10010570 f i Setting.obj
 0001:0000f6f0       ?_Alloc_proxy@?$_Tree_alloc@$0A@U?$_Tree_base_types@U?$pair@$$CBV?$basic_string@DU?$char_traits@D@std@@V?$allocator@D@2@@std@@UPluginCfg@@@std@@V?$allocator@U?$pair@$$CBV?$basic_string@DU?$char_traits@D@std@@V?$allocator@D@2@@std@@UPluginCfg@@@std@@@2@@std@@@std@@QAEXXZ 100106f0 f i Setting.obj
 0001:0000f7d0       ?_Assign_rv@?$basic_string@DU?$char_traits@D@std@@V?$allocator@D@2@@std@@QAEX$$QAV12@@Z 100107d0 f i Setting.obj
 0001:0000f8c0       ?_Buyheadnode@?$_Tree_alloc@$0A@U?$_Tree_base_types@U?$pair@$$CBV?$basic_string@DU?$char_traits@D@std@@V?$allocator@D@2@@std@@UPluginCfg@@@std@@V?$allocator@U?$pair@$$CBV?$basic_string@DU?$char_traits@D@std@@V?$allocator@D@2@@std@@UPluginCfg@@@std@@@2@@std@@@std@@QAEPAU?$_Tree_node@U?$pair@$$CBV?$basic_string@DU?$char_traits@D@std@@V?$allocator@D@2@@std@@UPluginCfg@@@std@@PAX@2@XZ 100108c0 f i Setting.obj
 0001:0000fb20       ?_Buynode0@?$_Tree_buy@U?$pair@$$CBV?$basic_string@DU?$char_traits@D@std@@V?$allocator@D@2@@std@@UPluginCfg@@@std@@V?$allocator@U?$pair@$$CBV?$basic_string@DU?$char_traits@D@std@@V?$allocator@D@2@@std@@UPluginCfg@@@std@@@2@@std@@QAEPAU?$_Tree_node@U?$pair@$$CBV?$basic_string@DU?$char_traits@D@std@@V?$allocator@D@2@@std@@UPluginCfg@@@std@@PAX@2@XZ 10010b20 f i Setting.obj
 0001:0000fd30       ?_Clrcont@_Iterator_base12@std@@QAEXXZ 10010d30 f i Setting.obj
 0001:0000fd70       ?_Color@?$_Tree_val@U?$_Tree_simple_types@U?$pair@$$CBV?$basic_string@DU?$char_traits@D@std@@V?$allocator@D@2@@std@@UPluginCfg@@@std@@@std@@@std@@SAAADPAU?$_Tree_node@U?$pair@$$CBV?$basic_string@DU?$char_traits@D@std@@V?$allocator@D@2@@std@@UPluginCfg@@@std@@PAX@2@@Z 10010d70 f i Setting.obj
 0001:0000fdb0       ?_Destroy_if_not_nil@?$_Tree@V?$_Tmap_traits@V?$basic_string@DU?$char_traits@D@std@@V?$allocator@D@2@@std@@UPluginCfg@@U?$less@V?$basic_string@DU?$char_traits@D@std@@V?$allocator@D@2@@std@@@2@V?$allocator@U?$pair@$$CBV?$basic_string@DU?$char_traits@D@std@@V?$allocator@D@2@@std@@UPluginCfg@@@std@@@2@$0A@@std@@@std@@IAEXPAU?$_Tree_node@U?$pair@$$CBV?$basic_string@DU?$char_traits@D@std@@V?$allocator@D@2@@std@@UPluginCfg@@@std@@PAX@2@@Z 10010db0 f i Setting.obj
 0001:0000fe60       ?_Eqrange@?$_Tree@V?$_Tmap_traits@V?$basic_string@DU?$char_traits@D@std@@V?$allocator@D@2@@std@@UPluginCfg@@U?$less@V?$basic_string@DU?$char_traits@D@std@@V?$allocator@D@2@@std@@@2@V?$allocator@U?$pair@$$CBV?$basic_string@DU?$char_traits@D@std@@V?$allocator@D@2@@std@@UPluginCfg@@@std@@@2@$0A@@std@@@std@@IAE?AU?$pair@V?$_Tree_iterator@V?$_Tree_val@U?$_Tree_simple_types@U?$pair@$$CBV?$basic_string@DU?$char_traits@D@std@@V?$allocator@D@2@@std@@UPluginCfg@@@std@@@std@@@std@@@std@@V12@@2@ABV?$basic_string@DU?$char_traits@D@std@@V?$allocator@D@2@@2@@Z 10010e60 f i Setting.obj
 0001:00010230       ?_Erase@?$_Tree@V?$_Tmap_traits@V?$basic_string@DU?$char_traits@D@std@@V?$allocator@D@2@@std@@UPluginCfg@@U?$less@V?$basic_string@DU?$char_traits@D@std@@V?$allocator@D@2@@std@@@2@V?$allocator@U?$pair@$$CBV?$basic_string@DU?$char_traits@D@std@@V?$allocator@D@2@@std@@UPluginCfg@@@std@@@2@$0A@@std@@@std@@IAEXPAU?$_Tree_node@U?$pair@$$CBV?$basic_string@DU?$char_traits@D@std@@V?$allocator@D@2@@std@@UPluginCfg@@@std@@PAX@2@@Z 10011230 f i Setting.obj
 0001:00010340       ?_Free_proxy@?$_Tree_alloc@$0A@U?$_Tree_base_types@U?$pair@$$CBV?$basic_string@DU?$char_traits@D@std@@V?$allocator@D@2@@std@@UPluginCfg@@@std@@V?$allocator@U?$pair@$$CBV?$basic_string@DU?$char_traits@D@std@@V?$allocator@D@2@@std@@UPluginCfg@@@std@@@2@@std@@@std@@QAEXXZ 10011340 f i Setting.obj
 0001:00010420       ?_Freeheadnode@?$_Tree_alloc@$0A@U?$_Tree_base_types@U?$pair@$$CBV?$basic_string@DU?$char_traits@D@std@@V?$allocator@D@2@@std@@UPluginCfg@@@std@@V?$allocator@U?$pair@$$CBV?$basic_string@DU?$char_traits@D@std@@V?$allocator@D@2@@std@@UPluginCfg@@@std@@@2@@std@@@std@@QAEXPAU?$_Tree_node@U?$pair@$$CBV?$basic_string@DU?$char_traits@D@std@@V?$allocator@D@2@@std@@UPluginCfg@@@std@@PAX@2@@Z 10011420 f i Setting.obj
 0001:00010530       ?_Freenode0@?$_Tree_buy@U?$pair@$$CBV?$basic_string@DU?$char_traits@D@std@@V?$allocator@D@2@@std@@UPluginCfg@@@std@@V?$allocator@U?$pair@$$CBV?$basic_string@DU?$char_traits@D@std@@V?$allocator@D@2@@std@@UPluginCfg@@@std@@@2@@std@@QAEXPAU?$_Tree_node@U?$pair@$$CBV?$basic_string@DU?$char_traits@D@std@@V?$allocator@D@2@@std@@UPluginCfg@@@std@@PAX@2@@Z 10011530 f i Setting.obj
 0001:00010640       ?_Getal@?$_Tree_alloc@$0A@U?$_Tree_base_types@U?$pair@$$CBV?$basic_string@DU?$char_traits@D@std@@V?$allocator@D@2@@std@@UPluginCfg@@@std@@V?$allocator@U?$pair@$$CBV?$basic_string@DU?$char_traits@D@std@@V?$allocator@D@2@@std@@UPluginCfg@@@std@@@2@@std@@@std@@QBE?AU?$_Wrap_alloc@V?$allocator@U?$_Tree_node@U?$pair@$$CBV?$basic_string@DU?$char_traits@D@std@@V?$allocator@D@2@@std@@UPluginCfg@@@std@@PAX@std@@@std@@@2@XZ 10011640 f i Setting.obj
 0001:000106a0       ?_Getcomp@?$_Tree_comp@$0A@V?$_Tmap_traits@V?$basic_string@DU?$char_traits@D@std@@V?$allocator@D@2@@std@@UPluginCfg@@U?$less@V?$basic_string@DU?$char_traits@D@std@@V?$allocator@D@2@@std@@@2@V?$allocator@U?$pair@$$CBV?$basic_string@DU?$char_traits@D@std@@V?$allocator@D@2@@std@@UPluginCfg@@@std@@@2@$0A@@std@@@std@@QBE?AU?$less@V?$basic_string@DU?$char_traits@D@std@@V?$allocator@D@2@@std@@@2@XZ 100116a0 f i Setting.obj
 0001:000106e0       ?_Getcont@_Iterator_base12@std@@QBEPBU_Container_base12@2@XZ 100116e0 f i Setting.obj
 0001:00010750       ?_Getpfirst@_Container_base12@std@@QBEPAPAU_Iterator_base12@2@XZ 10011750 f i Setting.obj
 0001:000107c0       ?_Getpnext@_Iterator_base12@std@@QAEPAPAU12@XZ 100117c0 f i Setting.obj
 0001:00010800       ?_Isnil@?$_Tree_val@U?$_Tree_simple_types@U?$pair@$$CBV?$basic_string@DU?$char_traits@D@std@@V?$allocator@D@2@@std@@UPluginCfg@@@std@@@std@@@std@@SAAADPAU?$_Tree_node@U?$pair@$$CBV?$basic_string@DU?$char_traits@D@std@@V?$allocator@D@2@@std@@UPluginCfg@@@std@@PAX@2@@Z 10011800 f i Setting.obj
 0001:00010840       ?_Key@?$_Tree@V?$_Tmap_traits@V?$basic_string@DU?$char_traits@D@std@@V?$allocator@D@2@@std@@UPluginCfg@@U?$less@V?$basic_string@DU?$char_traits@D@std@@V?$allocator@D@2@@std@@@2@V?$allocator@U?$pair@$$CBV?$basic_string@DU?$char_traits@D@std@@V?$allocator@D@2@@std@@UPluginCfg@@@std@@@2@$0A@@std@@@std@@IBEABV?$basic_string@DU?$char_traits@D@std@@V?$allocator@D@2@@2@PAU?$_Tree_node@U?$pair@$$CBV?$basic_string@DU?$char_traits@D@std@@V?$allocator@D@2@@std@@UPluginCfg@@@std@@PAX@2@@Z 10011840 f i Setting.obj
 0001:000108b0       ?_Kfn@?$_Tree@V?$_Tmap_traits@V?$basic_string@DU?$char_traits@D@std@@V?$allocator@D@2@@std@@UPluginCfg@@U?$less@V?$basic_string@DU?$char_traits@D@std@@V?$allocator@D@2@@std@@@2@V?$allocator@U?$pair@$$CBV?$basic_string@DU?$char_traits@D@std@@V?$allocator@D@2@@std@@UPluginCfg@@@std@@@2@$0A@@std@@@std@@IBEABV?$basic_string@DU?$char_traits@D@std@@V?$allocator@D@2@@2@ABU?$pair@$$CBV?$basic_string@DU?$char_traits@D@std@@V?$allocator@D@2@@std@@UPluginCfg@@@2@@Z 100118b0 f i Setting.obj
 0001:00010910       ?_Lbound@?$_Tree@V?$_Tmap_traits@V?$basic_string@DU?$char_traits@D@std@@V?$allocator@D@2@@std@@UPluginCfg@@U?$less@V?$basic_string@DU?$char_traits@D@std@@V?$allocator@D@2@@std@@@2@V?$allocator@U?$pair@$$CBV?$basic_string@DU?$char_traits@D@std@@V?$allocator@D@2@@std@@UPluginCfg@@@std@@@2@$0A@@std@@@std@@IAEPAU?$_Tree_node@U?$pair@$$CBV?$basic_string@DU?$char_traits@D@std@@V?$allocator@D@2@@std@@UPluginCfg@@@std@@PAX@2@ABV?$basic_string@DU?$char_traits@D@std@@V?$allocator@D@2@@2@@Z 10011910 f i Setting.obj
 0001:00010a20       ?_Left@?$_Tree_val@U?$_Tree_simple_types@U?$pair@$$CBV?$basic_string@DU?$char_traits@D@std@@V?$allocator@D@2@@std@@UPluginCfg@@@std@@@std@@@std@@SAAAPAU?$_Tree_node@U?$pair@$$CBV?$basic_string@DU?$char_traits@D@std@@V?$allocator@D@2@@std@@UPluginCfg@@@std@@PAX@2@PAU32@@Z 10011a20 f i Setting.obj
 0001:00010a60       ?_Lmost@?$_Tree@V?$_Tmap_traits@V?$basic_string@DU?$char_traits@D@std@@V?$allocator@D@2@@std@@UPluginCfg@@U?$less@V?$basic_string@DU?$char_traits@D@std@@V?$allocator@D@2@@std@@@2@V?$allocator@U?$pair@$$CBV?$basic_string@DU?$char_traits@D@std@@V?$allocator@D@2@@std@@UPluginCfg@@@std@@@2@$0A@@std@@@std@@IBEAAPAU?$_Tree_node@U?$pair@$$CBV?$basic_string@DU?$char_traits@D@std@@V?$allocator@D@2@@std@@UPluginCfg@@@std@@PAX@2@XZ 10011a60 f i Setting.obj
 0001:00010ac0       ?_Lrotate@?$_Tree@V?$_Tmap_traits@V?$basic_string@DU?$char_traits@D@std@@V?$allocator@D@2@@std@@UPluginCfg@@U?$less@V?$basic_string@DU?$char_traits@D@std@@V?$allocator@D@2@@std@@@2@V?$allocator@U?$pair@$$CBV?$basic_string@DU?$char_traits@D@std@@V?$allocator@D@2@@std@@UPluginCfg@@@std@@@2@$0A@@std@@@std@@IAEXPAU?$_Tree_node@U?$pair@$$CBV?$basic_string@DU?$char_traits@D@std@@V?$allocator@D@2@@std@@UPluginCfg@@@std@@PAX@2@@Z 10011ac0 f i Setting.obj
 0001:00010c70       ?_Max@?$_Tree_val@U?$_Tree_simple_types@U?$pair@$$CBV?$basic_string@DU?$char_traits@D@std@@V?$allocator@D@2@@std@@UPluginCfg@@@std@@@std@@@std@@SAPAU?$_Tree_node@U?$pair@$$CBV?$basic_string@DU?$char_traits@D@std@@V?$allocator@D@2@@std@@UPluginCfg@@@std@@PAX@2@PAU32@@Z 10011c70 f i Setting.obj
 0001:00010cf0       ?_Min@?$_Tree_val@U?$_Tree_simple_types@U?$pair@$$CBV?$basic_string@DU?$char_traits@D@std@@V?$allocator@D@2@@std@@UPluginCfg@@@std@@@std@@@std@@SAPAU?$_Tree_node@U?$pair@$$CBV?$basic_string@DU?$char_traits@D@std@@V?$allocator@D@2@@std@@UPluginCfg@@@std@@PAX@2@PAU32@@Z 10011cf0 f i Setting.obj
 0001:00010d70       ?_Mynode@?$_Tree_unchecked_const_iterator@V?$_Tree_val@U?$_Tree_simple_types@U?$pair@$$CBV?$basic_string@DU?$char_traits@D@std@@V?$allocator@D@2@@std@@UPluginCfg@@@std@@@std@@@std@@U_Iterator_base12@2@@std@@QBEPAU?$_Tree_node@U?$pair@$$CBV?$basic_string@DU?$char_traits@D@std@@V?$allocator@D@2@@std@@UPluginCfg@@@std@@PAX@2@XZ 10011d70 f i Setting.obj
 0001:00010db0       ?_Myval@?$_Tree_val@U?$_Tree_simple_types@U?$pair@$$CBV?$basic_string@DU?$char_traits@D@std@@V?$allocator@D@2@@std@@UPluginCfg@@@std@@@std@@@std@@SAAAU?$pair@$$CBV?$basic_string@DU?$char_traits@D@std@@V?$allocator@D@2@@std@@UPluginCfg@@@2@PAU?$_Tree_node@U?$pair@$$CBV?$basic_string@DU?$char_traits@D@std@@V?$allocator@D@2@@std@@UPluginCfg@@@std@@PAX@2@@Z 10011db0 f i Setting.obj
 0001:00010df0       ?_Orphan_me@_Iterator_base12@std@@QAEXXZ 10011df0 f i Setting.obj
 0001:00010ec0       ?_Orphan_ptr@?$_Tree@V?$_Tmap_traits@V?$basic_string@DU?$char_traits@D@std@@V?$allocator@D@2@@std@@UPluginCfg@@U?$less@V?$basic_string@DU?$char_traits@D@std@@V?$allocator@D@2@@std@@@2@V?$allocator@U?$pair@$$CBV?$basic_string@DU?$char_traits@D@std@@V?$allocator@D@2@@std@@UPluginCfg@@@std@@@2@$0A@@std@@@std@@IBEXAAV12@PAU?$_Tree_node@U?$pair@$$CBV?$basic_string@DU?$char_traits@D@std@@V?$allocator@D@2@@std@@UPluginCfg@@@std@@PAX@2@@Z 10011ec0 f i Setting.obj
 0001:00011020       ?_Parent@?$_Tree_val@U?$_Tree_simple_types@U?$pair@$$CBV?$basic_string@DU?$char_traits@D@std@@V?$allocator@D@2@@std@@UPluginCfg@@@std@@@std@@@std@@SAAAPAU?$_Tree_node@U?$pair@$$CBV?$basic_string@DU?$char_traits@D@std@@V?$allocator@D@2@@std@@UPluginCfg@@@std@@PAX@2@PAU32@@Z 10012020 f i Setting.obj
 0001:00011060       ?_Right@?$_Tree_val@U?$_Tree_simple_types@U?$pair@$$CBV?$basic_string@DU?$char_traits@D@std@@V?$allocator@D@2@@std@@UPluginCfg@@@std@@@std@@@std@@SAAAPAU?$_Tree_node@U?$pair@$$CBV?$basic_string@DU?$char_traits@D@std@@V?$allocator@D@2@@std@@UPluginCfg@@@std@@PAX@2@PAU32@@Z 10012060 f i Setting.obj
 0001:000110a0       ?_Rmost@?$_Tree@V?$_Tmap_traits@V?$basic_string@DU?$char_traits@D@std@@V?$allocator@D@2@@std@@UPluginCfg@@U?$less@V?$basic_string@DU?$char_traits@D@std@@V?$allocator@D@2@@std@@@2@V?$allocator@U?$pair@$$CBV?$basic_string@DU?$char_traits@D@std@@V?$allocator@D@2@@std@@UPluginCfg@@@std@@@2@$0A@@std@@@std@@IBEAAPAU?$_Tree_node@U?$pair@$$CBV?$basic_string@DU?$char_traits@D@std@@V?$allocator@D@2@@std@@UPluginCfg@@@std@@PAX@2@XZ 100120a0 f i Setting.obj
 0001:00011100       ?_Root@?$_Tree@V?$_Tmap_traits@V?$basic_string@DU?$char_traits@D@std@@V?$allocator@D@2@@std@@UPluginCfg@@U?$less@V?$basic_string@DU?$char_traits@D@std@@V?$allocator@D@2@@std@@@2@V?$allocator@U?$pair@$$CBV?$basic_string@DU?$char_traits@D@std@@V?$allocator@D@2@@std@@UPluginCfg@@@std@@@2@$0A@@std@@@std@@IBEAAPAU?$_Tree_node@U?$pair@$$CBV?$basic_string@DU?$char_traits@D@std@@V?$allocator@D@2@@std@@UPluginCfg@@@std@@PAX@2@XZ 10012100 f i Setting.obj
 0001:00011160       ?_Rrotate@?$_Tree@V?$_Tmap_traits@V?$basic_string@DU?$char_traits@D@std@@V?$allocator@D@2@@std@@UPluginCfg@@U?$less@V?$basic_string@DU?$char_traits@D@std@@V?$allocator@D@2@@std@@@2@V?$allocator@U?$pair@$$CBV?$basic_string@DU?$char_traits@D@std@@V?$allocator@D@2@@std@@UPluginCfg@@@std@@@2@$0A@@std@@@std@@IAEXPAU?$_Tree_node@U?$pair@$$CBV?$basic_string@DU?$char_traits@D@std@@V?$allocator@D@2@@std@@UPluginCfg@@@std@@PAX@2@@Z 10012160 f i Setting.obj
 0001:00011310       ?_Tidy@?$_Tree@V?$_Tmap_traits@V?$basic_string@DU?$char_traits@D@std@@V?$allocator@D@2@@std@@UPluginCfg@@U?$less@V?$basic_string@DU?$char_traits@D@std@@V?$allocator@D@2@@std@@@2@V?$allocator@U?$pair@$$CBV?$basic_string@DU?$char_traits@D@std@@V?$allocator@D@2@@std@@UPluginCfg@@@std@@@2@$0A@@std@@@std@@IAEXXZ 10012310 f i Setting.obj
 0001:000114a0       ?add@Setting@@QAEHPBUPluginCfg@@@Z 100124a0 f   Setting.obj
 0001:00011850       ?allocate@?$_Wrap_alloc@V?$allocator@U?$_Tree_node@U?$pair@$$CBV?$basic_string@DU?$char_traits@D@std@@V?$allocator@D@2@@std@@UPluginCfg@@@std@@PAX@std@@@std@@@std@@QAEPAU?$_Tree_node@U?$pair@$$CBV?$basic_string@DU?$char_traits@D@std@@V?$allocator@D@2@@std@@UPluginCfg@@@std@@PAX@2@I@Z 10012850 f i Setting.obj
 0001:000118b0       ?allocate@?$_Wrap_alloc@V?$allocator@U_Container_proxy@std@@@std@@@std@@QAEPAU_Container_proxy@2@I@Z 100128b0 f i Setting.obj
 0001:00011910       ?allocate@?$allocator@U?$_Tree_node@U?$pair@$$CBV?$basic_string@DU?$char_traits@D@std@@V?$allocator@D@2@@std@@UPluginCfg@@@std@@PAX@std@@@std@@QAEPAU?$_Tree_node@U?$pair@$$CBV?$basic_string@DU?$char_traits@D@std@@V?$allocator@D@2@@std@@UPluginCfg@@@std@@PAX@2@I@Z 10012910 f i Setting.obj
 0001:00011970       ?append@?$basic_string@DU?$char_traits@D@std@@V?$allocator@D@2@@std@@QAEAAV12@ABV12@@Z 10012970 f i Setting.obj
 0001:000119d0       ?begin@?$_Tree@V?$_Tmap_traits@V?$basic_string@DU?$char_traits@D@std@@V?$allocator@D@2@@std@@UPluginCfg@@U?$less@V?$basic_string@DU?$char_traits@D@std@@V?$allocator@D@2@@std@@@2@V?$allocator@U?$pair@$$CBV?$basic_string@DU?$char_traits@D@std@@V?$allocator@D@2@@std@@UPluginCfg@@@std@@@2@$0A@@std@@@std@@QAE?AV?$_Tree_iterator@V?$_Tree_val@U?$_Tree_simple_types@U?$pair@$$CBV?$basic_string@DU?$char_traits@D@std@@V?$allocator@D@2@@std@@UPluginCfg@@@std@@@std@@@std@@@2@XZ 100129d0 f i Setting.obj
 0001:00011a40       ?clear@?$_Tree@V?$_Tmap_traits@V?$basic_string@DU?$char_traits@D@std@@V?$allocator@D@2@@std@@UPluginCfg@@U?$less@V?$basic_string@DU?$char_traits@D@std@@V?$allocator@D@2@@std@@@2@V?$allocator@U?$pair@$$CBV?$basic_string@DU?$char_traits@D@std@@V?$allocator@D@2@@std@@UPluginCfg@@@std@@@2@$0A@@std@@@std@@QAEXXZ 10012a40 f i Setting.obj
 0001:00011b00       ?compare@?$basic_string@DU?$char_traits@D@std@@V?$allocator@D@2@@std@@QBEHABV12@@Z 10012b00 f i Setting.obj
 0001:00011b80       ?compare@?$basic_string@DU?$char_traits@D@std@@V?$allocator@D@2@@std@@QBEHIIPBDI@Z 10012b80 f i Setting.obj
 0001:00011cf0       ?compare@?$basic_string@DU?$char_traits@D@std@@V?$allocator@D@2@@std@@QBEHPBD@Z 10012cf0 f i Setting.obj
 0001:00011d80       ?compare@?$char_traits@D@std@@SAHPBD0I@Z 10012d80 f i Setting.obj
 0001:00011e00       ?deallocate@?$_Wrap_alloc@V?$allocator@U?$_Tree_node@U?$pair@$$CBV?$basic_string@DU?$char_traits@D@std@@V?$allocator@D@2@@std@@UPluginCfg@@@std@@PAX@std@@@std@@@std@@QAEXPAU?$_Tree_node@U?$pair@$$CBV?$basic_string@DU?$char_traits@D@std@@V?$allocator@D@2@@std@@UPluginCfg@@@std@@PAX@2@I@Z 10012e00 f i Setting.obj
 0001:00011e60       ?deallocate@?$_Wrap_alloc@V?$allocator@U_Container_proxy@std@@@std@@@std@@QAEXPAU_Container_proxy@2@I@Z 10012e60 f i Setting.obj
 0001:00011ec0       ?deallocate@?$allocator@U?$_Tree_node@U?$pair@$$CBV?$basic_string@DU?$char_traits@D@std@@V?$allocator@D@2@@std@@UPluginCfg@@@std@@PAX@std@@@std@@QAEXPAU?$_Tree_node@U?$pair@$$CBV?$basic_string@DU?$char_traits@D@std@@V?$allocator@D@2@@std@@UPluginCfg@@@std@@PAX@2@I@Z 10012ec0 f i Setting.obj
 0001:00011f20       ?del@Setting@@QAEHV?$basic_string@DU?$char_traits@D@std@@V?$allocator@D@2@@std@@@Z 10012f20 f   Setting.obj
 0001:000120e0       ?end@?$_Tree@V?$_Tmap_traits@V?$basic_string@DU?$char_traits@D@std@@V?$allocator@D@2@@std@@UPluginCfg@@U?$less@V?$basic_string@DU?$char_traits@D@std@@V?$allocator@D@2@@std@@@2@V?$allocator@U?$pair@$$CBV?$basic_string@DU?$char_traits@D@std@@V?$allocator@D@2@@std@@UPluginCfg@@@std@@@2@$0A@@std@@@std@@QAE?AV?$_Tree_iterator@V?$_Tree_val@U?$_Tree_simple_types@U?$pair@$$CBV?$basic_string@DU?$char_traits@D@std@@V?$allocator@D@2@@std@@UPluginCfg@@@std@@@std@@@std@@@2@XZ 100130e0 f i Setting.obj
 0001:00012150       ?equal_range@?$_Tree@V?$_Tmap_traits@V?$basic_string@DU?$char_traits@D@std@@V?$allocator@D@2@@std@@UPluginCfg@@U?$less@V?$basic_string@DU?$char_traits@D@std@@V?$allocator@D@2@@std@@@2@V?$allocator@U?$pair@$$CBV?$basic_string@DU?$char_traits@D@std@@V?$allocator@D@2@@std@@UPluginCfg@@@std@@@2@$0A@@std@@@std@@QAE?AU?$pair@V?$_Tree_iterator@V?$_Tree_val@U?$_Tree_simple_types@U?$pair@$$CBV?$basic_string@DU?$char_traits@D@std@@V?$allocator@D@2@@std@@UPluginCfg@@@std@@@std@@@std@@@std@@V12@@2@ABV?$basic_string@DU?$char_traits@D@std@@V?$allocator@D@2@@2@@Z 10013150 f i Setting.obj
 0001:00012260       ?erase@?$_Tree@V?$_Tmap_traits@V?$basic_string@DU?$char_traits@D@std@@V?$allocator@D@2@@std@@UPluginCfg@@U?$less@V?$basic_string@DU?$char_traits@D@std@@V?$allocator@D@2@@std@@@2@V?$allocator@U?$pair@$$CBV?$basic_string@DU?$char_traits@D@std@@V?$allocator@D@2@@std@@UPluginCfg@@@std@@@2@$0A@@std@@@std@@QAE?AV?$_Tree_iterator@V?$_Tree_val@U?$_Tree_simple_types@U?$pair@$$CBV?$basic_string@DU?$char_traits@D@std@@V?$allocator@D@2@@std@@UPluginCfg@@@std@@@std@@@std@@@2@V?$_Tree_const_iterator@V?$_Tree_val@U?$_Tree_simple_types@U?$pair@$$CBV?$basic_string@DU?$char_traits@D@std@@V?$allocator@D@2@@std@@UPluginCfg@@@std@@@std@@@std@@@2@0@Z 10013260 f i Setting.obj
 0001:00012580       ?erase@?$_Tree@V?$_Tmap_traits@V?$basic_string@DU?$char_traits@D@std@@V?$allocator@D@2@@std@@UPluginCfg@@U?$less@V?$basic_string@DU?$char_traits@D@std@@V?$allocator@D@2@@std@@@2@V?$allocator@U?$pair@$$CBV?$basic_string@DU?$char_traits@D@std@@V?$allocator@D@2@@std@@UPluginCfg@@@std@@@2@$0A@@std@@@std@@QAE?AV?$_Tree_iterator@V?$_Tree_val@U?$_Tree_simple_types@U?$pair@$$CBV?$basic_string@DU?$char_traits@D@std@@V?$allocator@D@2@@std@@UPluginCfg@@@std@@@std@@@std@@@2@V?$_Tree_const_iterator@V?$_Tree_val@U?$_Tree_simple_types@U?$pair@$$CBV?$basic_string@DU?$char_traits@D@std@@V?$allocator@D@2@@std@@UPluginCfg@@@std@@@std@@@std@@@2@@Z 10013580 f i Setting.obj
 0001:00012ff0       ?erase@?$_Tree@V?$_Tmap_traits@V?$basic_string@DU?$char_traits@D@std@@V?$allocator@D@2@@std@@UPluginCfg@@U?$less@V?$basic_string@DU?$char_traits@D@std@@V?$allocator@D@2@@std@@@2@V?$allocator@U?$pair@$$CBV?$basic_string@DU?$char_traits@D@std@@V?$allocator@D@2@@std@@UPluginCfg@@@std@@@2@$0A@@std@@@std@@QAEIABV?$basic_string@DU?$char_traits@D@std@@V?$allocator@D@2@@2@@Z 10013ff0 f i Setting.obj
 0001:00013240       ?find@?$_Tree@V?$_Tmap_traits@V?$basic_string@DU?$char_traits@D@std@@V?$allocator@D@2@@std@@UPluginCfg@@U?$less@V?$basic_string@DU?$char_traits@D@std@@V?$allocator@D@2@@std@@@2@V?$allocator@U?$pair@$$CBV?$basic_string@DU?$char_traits@D@std@@V?$allocator@D@2@@std@@UPluginCfg@@@std@@@2@$0A@@std@@@std@@QAE?AV?$_Tree_iterator@V?$_Tree_val@U?$_Tree_simple_types@U?$pair@$$CBV?$basic_string@DU?$char_traits@D@std@@V?$allocator@D@2@@std@@UPluginCfg@@@std@@@std@@@std@@@2@ABV?$basic_string@DU?$char_traits@D@std@@V?$allocator@D@2@@2@@Z 10014240 f i Setting.obj
 0001:00013550       ?find@?$basic_string@DU?$char_traits@D@std@@V?$allocator@D@2@@std@@QBEIABV12@I@Z 10014550 f i Setting.obj
 0001:000135c0       ?find@?$basic_string@DU?$char_traits@D@std@@V?$allocator@D@2@@std@@QBEIPBDII@Z 100145c0 f i Setting.obj
 0001:00013720       ?get@Setting@@QAEHV?$basic_string@DU?$char_traits@D@std@@V?$allocator@D@2@@std@@PAUPluginCfg@@@Z 10014720 f   Setting.obj
 0001:00013860       ?getParam@Setting@@QAEXV?$basic_string@DU?$char_traits@D@std@@V?$allocator@D@2@@std@@PAH@Z 10014860 f   Setting.obj
 0001:00013a30       ?getParam@Setting@@QAEXV?$basic_string@DU?$char_traits@D@std@@V?$allocator@D@2@@std@@PAN@Z 10014a30 f   Setting.obj
 0001:00013c00       ?getParam@Setting@@QAEXV?$basic_string@DU?$char_traits@D@std@@V?$allocator@D@2@@std@@PAV23@@Z 10014c00 f   Setting.obj
 0001:00013d90       ?init@Setting@@QAEXXZ      10014d90 f   Setting.obj
 0001:00014160       ?key_comp@?$_Tree@V?$_Tmap_traits@V?$basic_string@DU?$char_traits@D@std@@V?$allocator@D@2@@std@@UPluginCfg@@U?$less@V?$basic_string@DU?$char_traits@D@std@@V?$allocator@D@2@@std@@@2@V?$allocator@U?$pair@$$CBV?$basic_string@DU?$char_traits@D@std@@V?$allocator@D@2@@std@@UPluginCfg@@@std@@@2@$0A@@std@@@std@@QBE?AU?$less@V?$basic_string@DU?$char_traits@D@std@@V?$allocator@D@2@@std@@@2@XZ 10015160 f i Setting.obj
 0001:000141c0       ?lower_bound@?$_Tree@V?$_Tmap_traits@V?$basic_string@DU?$char_traits@D@std@@V?$allocator@D@2@@std@@UPluginCfg@@U?$less@V?$basic_string@DU?$char_traits@D@std@@V?$allocator@D@2@@std@@@2@V?$allocator@U?$pair@$$CBV?$basic_string@DU?$char_traits@D@std@@V?$allocator@D@2@@std@@UPluginCfg@@@std@@@2@$0A@@std@@@std@@QAE?AV?$_Tree_iterator@V?$_Tree_val@U?$_Tree_simple_types@U?$pair@$$CBV?$basic_string@DU?$char_traits@D@std@@V?$allocator@D@2@@std@@UPluginCfg@@@std@@@std@@@std@@@2@ABV?$basic_string@DU?$char_traits@D@std@@V?$allocator@D@2@@2@@Z 100151c0 f i Setting.obj
 0001:00014250       ?max_size@?$_Tree@V?$_Tmap_traits@V?$basic_string@DU?$char_traits@D@std@@V?$allocator@D@2@@std@@UPluginCfg@@U?$less@V?$basic_string@DU?$char_traits@D@std@@V?$allocator@D@2@@std@@@2@V?$allocator@U?$pair@$$CBV?$basic_string@DU?$char_traits@D@std@@V?$allocator@D@2@@std@@UPluginCfg@@@std@@@2@$0A@@std@@@std@@QBEIXZ 10015250 f i Setting.obj
 0001:000142b0       ?max_size@?$_Wrap_alloc@V?$allocator@U?$_Tree_node@U?$pair@$$CBV?$basic_string@DU?$char_traits@D@std@@V?$allocator@D@2@@std@@UPluginCfg@@@std@@PAX@std@@@std@@@std@@QBEIXZ 100152b0 f i Setting.obj
 0001:00014310       ?max_size@?$allocator@U?$_Tree_node@U?$pair@$$CBV?$basic_string@DU?$char_traits@D@std@@V?$allocator@D@2@@std@@UPluginCfg@@@std@@PAX@std@@@std@@QBEIXZ 10015310 f i Setting.obj
 0001:00014350       ?max_size@?$allocator_traits@V?$allocator@U?$_Tree_node@U?$pair@$$CBV?$basic_string@DU?$char_traits@D@std@@V?$allocator@D@2@@std@@UPluginCfg@@@std@@PAX@std@@@std@@@std@@SAIABV?$allocator@U?$_Tree_node@U?$pair@$$CBV?$basic_string@DU?$char_traits@D@std@@V?$allocator@D@2@@std@@UPluginCfg@@@std@@PAX@std@@@2@@Z 10015350 f i Setting.obj
 0001:000143a0       ?next@Setting@@QAEHHPAUPluginCfg@@@Z 100153a0 f   Setting.obj
 0001:00014660       ?pointer_to@?$pointer_traits@PAU?$pair@$$CBV?$basic_string@DU?$char_traits@D@std@@V?$allocator@D@2@@std@@UPluginCfg@@@std@@@std@@SAPAU?$pair@$$CBV?$basic_string@DU?$char_traits@D@std@@V?$allocator@D@2@@std@@UPluginCfg@@@2@AAU32@@Z 10015660 f i Setting.obj
 0001:000146b0       ?replace@?$basic_string@DU?$char_traits@D@std@@V?$allocator@D@2@@std@@QAEAAV12@IIABV12@@Z 100156b0 f i Setting.obj
 0001:00014720       ?replace@?$basic_string@DU?$char_traits@D@std@@V?$allocator@D@2@@std@@QAEAAV12@IIABV12@II@Z 10015720 f i Setting.obj
 0001:00014ac0       ?replaceStr@@YAXPAV?$basic_string@DU?$char_traits@D@std@@V?$allocator@D@2@@std@@V12@1@Z 10015ac0 f   Setting.obj
 0001:00014bd0       ?replaceStr@@YAXPAV?$basic_string@DU?$char_traits@D@std@@V?$allocator@D@2@@std@@V12@H@Z 10015bd0 f   Setting.obj
 0001:00014d40       ?select_on_container_copy_construction@?$_Wrap_alloc@V?$allocator@U?$_Tree_node@U?$pair@$$CBV?$basic_string@DU?$char_traits@D@std@@V?$allocator@D@2@@std@@UPluginCfg@@@std@@PAX@std@@@std@@@std@@QBE?AU12@XZ 10015d40 f i Setting.obj
 0001:00014db0       ?select_on_container_copy_construction@?$allocator@U?$_Tree_node@U?$pair@$$CBV?$basic_string@DU?$char_traits@D@std@@V?$allocator@D@2@@std@@UPluginCfg@@@std@@PAX@std@@@std@@QBE?AV12@XZ 10015db0 f i Setting.obj
 0001:00014e10       ?select_on_container_copy_construction@?$allocator_traits@V?$allocator@U?$_Tree_node@U?$pair@$$CBV?$basic_string@DU?$char_traits@D@std@@V?$allocator@D@2@@std@@UPluginCfg@@@std@@PAX@std@@@std@@@std@@SA?AV?$allocator@U?$_Tree_node@U?$pair@$$CBV?$basic_string@DU?$char_traits@D@std@@V?$allocator@D@2@@std@@UPluginCfg@@@std@@PAX@std@@@2@ABV32@@Z 10015e10 f i Setting.obj
 0001:00014e70       ?set@Setting@@QAEHPBUPluginCfg@@H@Z 10015e70 f   Setting.obj
 0001:00015380       ?size@?$_Tree@V?$_Tmap_traits@V?$basic_string@DU?$char_traits@D@std@@V?$allocator@D@2@@std@@UPluginCfg@@U?$less@V?$basic_string@DU?$char_traits@D@std@@V?$allocator@D@2@@std@@@2@V?$allocator@U?$pair@$$CBV?$basic_string@DU?$char_traits@D@std@@V?$allocator@D@2@@std@@UPluginCfg@@@std@@@2@$0A@@std@@@std@@QBEIXZ 10016380 f i Setting.obj
 0001:000153c0       ?stod@std@@YANABV?$basic_string@DU?$char_traits@D@std@@V?$allocator@D@2@@1@PAI@Z 100163c0 f i Setting.obj
 0001:000154c0       ?stoi@std@@YAHABV?$basic_string@DU?$char_traits@D@std@@V?$allocator@D@2@@1@PAIH@Z 100164c0 f i Setting.obj
 0001:00015620       ?to_string@std@@YA?AV?$basic_string@DU?$char_traits@D@std@@V?$allocator@D@2@@1@H@Z 10016620 f i Setting.obj
 0001:00015700       ?total@Setting@@QAEHXZ     10016700 f   Setting.obj
 0001:000158a0       ?addSubscribe@@YAHV?$basic_string@DU?$char_traits@D@std@@V?$allocator@D@2@@std@@PAX@Z 100168a0 f   SocialTrade.obj
 0001:00015c00       ?mainSocialTrade@@YAHV?$basic_string@DU?$char_traits@D@std@@V?$allocator@D@2@@std@@PAX@Z 10016c00 f   SocialTrade.obj
 0001:00015fd0       ??$?8U?$_List_node@URequestData@@PAX@std@@U01@@std@@YA_NABV?$allocator@U?$_List_node@URequestData@@PAX@std@@@0@0@Z 10016fd0 f i SocialTrade.obj
 0001:00016000       ??$?8V?$allocator@U?$_List_node@URequestData@@PAX@std@@@std@@V01@@std@@YA_NABU?$_Wrap_alloc@V?$allocator@U?$_List_node@URequestData@@PAX@std@@@std@@@0@0@Z 10017000 f i SocialTrade.obj
 0001:00016070       ??$?9V?$allocator@U?$_List_node@URequestData@@PAX@std@@@std@@V01@@std@@YA_NABU?$_Wrap_alloc@V?$allocator@U?$_List_node@URequestData@@PAX@std@@@std@@@0@0@Z 10017070 f i SocialTrade.obj
 0001:000160f0       ??$_Allocate@U?$_List_node@URequestData@@PAX@std@@@std@@YAPAU?$_List_node@URequestData@@PAX@0@IPAU10@@Z 100170f0 f i SocialTrade.obj
 0001:00016180       ??$_Allocate@U?$_List_node@USocialRecord@@PAX@std@@@std@@YAPAU?$_List_node@USocialRecord@@PAX@0@IPAU10@@Z 10017180 f i SocialTrade.obj
 0001:00016210       ??$_Buynode@ABURequestData@@@?$_List_buy@URequestData@@V?$allocator@URequestData@@@std@@@std@@QAEPAU?$_List_node@URequestData@@PAX@1@PAU21@0ABURequestData@@@Z 10017210 f i SocialTrade.obj
 0001:00016380       ??$_Buynode@ABUSocialRecord@@@?$_List_buy@USocialRecord@@V?$allocator@USocialRecord@@@std@@@std@@QAEPAU?$_List_node@USocialRecord@@PAX@1@PAU21@0ABUSocialRecord@@@Z 10017380 f i SocialTrade.obj
 0001:000164f0       ??$_Insert@ABURequestData@@@?$list@URequestData@@V?$allocator@URequestData@@@std@@@std@@QAEXV?$_List_unchecked_const_iterator@V?$_List_val@U?$_List_simple_types@URequestData@@@std@@@std@@U_Iterator_base0@2@@1@ABURequestData@@@Z 100174f0 f i SocialTrade.obj
 0001:000165c0       ??$_Insert@ABUSocialRecord@@@?$list@USocialRecord@@V?$allocator@USocialRecord@@@std@@@std@@QAEXV?$_List_unchecked_const_iterator@V?$_List_val@U?$_List_simple_types@USocialRecord@@@std@@@std@@U_Iterator_base0@2@@1@ABUSocialRecord@@@Z 100175c0 f i SocialTrade.obj
 0001:00016690       ??$_snprintf_s@$0CA@@@YAHAAY0CA@DIPBDZZ 10017690 f i SocialTrade.obj
 0001:00016700       ??$addressof@PAU?$_List_node@URequestData@@PAX@std@@@std@@YAPAPAU?$_List_node@URequestData@@PAX@0@AAPAU10@@Z 10017700 f i SocialTrade.obj
 0001:00016740       ??$addressof@PAU?$_List_node@USocialRecord@@PAX@std@@@std@@YAPAPAU?$_List_node@USocialRecord@@PAX@0@AAPAU10@@Z 10017740 f i SocialTrade.obj
 0001:00016780       ??$addressof@URequestData@@@std@@YAPAURequestData@@AAU1@@Z 10017780 f i SocialTrade.obj
 0001:000167c0       ??$addressof@USocialRecord@@@std@@YAPAUSocialRecord@@AAU1@@Z 100177c0 f i SocialTrade.obj
 0001:00016800       ??$assign@V?$_List_const_iterator@V?$_List_val@U?$_List_simple_types@URequestData@@@std@@@std@@@std@@@?$list@URequestData@@V?$allocator@URequestData@@@std@@@std@@QAEXV?$_List_const_iterator@V?$_List_val@U?$_List_simple_types@URequestData@@@std@@@std@@@1@0@Z 10017800 f i SocialTrade.obj
 0001:00016c00       ??$construct@PAU?$_List_node@URequestData@@PAX@std@@AAPAU12@@?$_Wrap_alloc@V?$allocator@U?$_List_node@URequestData@@PAX@std@@@std@@@std@@QAEXPAPAU?$_List_node@URequestData@@PAX@1@AAPAU21@@Z 10017c00 f i SocialTrade.obj
 0001:00016c70       ??$construct@PAU?$_List_node@URequestData@@PAX@std@@AAPAU12@@?$allocator@U?$_List_node@URequestData@@PAX@std@@@std@@QAEXPAPAU?$_List_node@URequestData@@PAX@1@AAPAU21@@Z 10017c70 f i SocialTrade.obj
 0001:00016d70       ??$construct@PAU?$_List_node@URequestData@@PAX@std@@AAPAU12@@?$allocator_traits@V?$allocator@U?$_List_node@URequestData@@PAX@std@@@std@@@std@@SAXAAV?$allocator@U?$_List_node@URequestData@@PAX@std@@@1@PAPAU?$_List_node@URequestData@@PAX@1@AAPAU31@@Z 10017d70 f i SocialTrade.obj
 0001:00016dd0       ??$construct@PAU?$_List_node@USocialRecord@@PAX@std@@AAPAU12@@?$_Wrap_alloc@V?$allocator@U?$_List_node@USocialRecord@@PAX@std@@@std@@@std@@QAEXPAPAU?$_List_node@USocialRecord@@PAX@1@AAPAU21@@Z 10017dd0 f i SocialTrade.obj
 0001:00016e40       ??$construct@PAU?$_List_node@USocialRecord@@PAX@std@@AAPAU12@@?$allocator@U?$_List_node@USocialRecord@@PAX@std@@@std@@QAEXPAPAU?$_List_node@USocialRecord@@PAX@1@AAPAU21@@Z 10017e40 f i SocialTrade.obj
 0001:00016f40       ??$construct@PAU?$_List_node@USocialRecord@@PAX@std@@AAPAU12@@?$allocator_traits@V?$allocator@U?$_List_node@USocialRecord@@PAX@std@@@std@@@std@@SAXAAV?$allocator@U?$_List_node@USocialRecord@@PAX@std@@@1@PAPAU?$_List_node@USocialRecord@@PAX@1@AAPAU31@@Z 10017f40 f i SocialTrade.obj
 0001:00016fa0       ??$construct@URequestData@@ABU1@@?$_Wrap_alloc@V?$allocator@U?$_List_node@URequestData@@PAX@std@@@std@@@std@@QAEXPAURequestData@@ABU2@@Z 10017fa0 f i SocialTrade.obj
 0001:00017010       ??$construct@URequestData@@ABU1@@?$allocator@U?$_List_node@URequestData@@PAX@std@@@std@@QAEXPAURequestData@@ABU2@@Z 10018010 f i SocialTrade.obj
 0001:00017120       ??$construct@URequestData@@ABU1@@?$allocator_traits@V?$allocator@U?$_List_node@URequestData@@PAX@std@@@std@@@std@@SAXAAV?$allocator@U?$_List_node@URequestData@@PAX@std@@@1@PAURequestData@@ABU3@@Z 10018120 f i SocialTrade.obj
 0001:00017180       ??$construct@USocialRecord@@ABU1@@?$_Wrap_alloc@V?$allocator@U?$_List_node@USocialRecord@@PAX@std@@@std@@@std@@QAEXPAUSocialRecord@@ABU2@@Z 10018180 f i SocialTrade.obj
 0001:000171f0       ??$construct@USocialRecord@@ABU1@@?$allocator@U?$_List_node@USocialRecord@@PAX@std@@@std@@QAEXPAUSocialRecord@@ABU2@@Z 100181f0 f i SocialTrade.obj
 0001:00017300       ??$construct@USocialRecord@@ABU1@@?$allocator_traits@V?$allocator@U?$_List_node@USocialRecord@@PAX@std@@@std@@@std@@SAXAAV?$allocator@U?$_List_node@USocialRecord@@PAX@std@@@1@PAUSocialRecord@@ABU3@@Z 10018300 f i SocialTrade.obj
 0001:00017360       ??$destroy@PAU?$_List_node@URequestData@@PAX@std@@@?$_Wrap_alloc@V?$allocator@U?$_List_node@URequestData@@PAX@std@@@std@@@std@@QAEXPAPAU?$_List_node@URequestData@@PAX@1@@Z 10018360 f i SocialTrade.obj
 0001:000173c0       ??$destroy@PAU?$_List_node@URequestData@@PAX@std@@@?$allocator@U?$_List_node@URequestData@@PAX@std@@@std@@QAEXPAPAU?$_List_node@URequestData@@PAX@1@@Z 100183c0 f i SocialTrade.obj
 0001:00017400       ??$destroy@PAU?$_List_node@URequestData@@PAX@std@@@?$allocator_traits@V?$allocator@U?$_List_node@URequestData@@PAX@std@@@std@@@std@@SAXAAV?$allocator@U?$_List_node@URequestData@@PAX@std@@@1@PAPAU?$_List_node@URequestData@@PAX@1@@Z 10018400 f i SocialTrade.obj
 0001:00017450       ??$destroy@PAU?$_List_node@USocialRecord@@PAX@std@@@?$_Wrap_alloc@V?$allocator@U?$_List_node@USocialRecord@@PAX@std@@@std@@@std@@QAEXPAPAU?$_List_node@USocialRecord@@PAX@1@@Z 10018450 f i SocialTrade.obj
 0001:000174b0       ??$destroy@PAU?$_List_node@USocialRecord@@PAX@std@@@?$allocator@U?$_List_node@USocialRecord@@PAX@std@@@std@@QAEXPAPAU?$_List_node@USocialRecord@@PAX@1@@Z 100184b0 f i SocialTrade.obj
 0001:000174f0       ??$destroy@PAU?$_List_node@USocialRecord@@PAX@std@@@?$allocator_traits@V?$allocator@U?$_List_node@USocialRecord@@PAX@std@@@std@@@std@@SAXAAV?$allocator@U?$_List_node@USocialRecord@@PAX@std@@@1@PAPAU?$_List_node@USocialRecord@@PAX@1@@Z 100184f0 f i SocialTrade.obj
 0001:00017540       ??$destroy@URequestData@@@?$_Wrap_alloc@V?$allocator@U?$_List_node@URequestData@@PAX@std@@@std@@@std@@QAEXPAURequestData@@@Z 10018540 f i SocialTrade.obj
 0001:000175a0       ??$destroy@URequestData@@@?$allocator@U?$_List_node@URequestData@@PAX@std@@@std@@QAEXPAURequestData@@@Z 100185a0 f i SocialTrade.obj
 0001:000175e0       ??$destroy@URequestData@@@?$allocator_traits@V?$allocator@U?$_List_node@URequestData@@PAX@std@@@std@@@std@@SAXAAV?$allocator@U?$_List_node@URequestData@@PAX@std@@@1@PAURequestData@@@Z 100185e0 f i SocialTrade.obj
 0001:00017630       ??$destroy@USocialRecord@@@?$_Wrap_alloc@V?$allocator@U?$_List_node@USocialRecord@@PAX@std@@@std@@@std@@QAEXPAUSocialRecord@@@Z 10018630 f i SocialTrade.obj
 0001:00017690       ??$destroy@USocialRecord@@@?$allocator@U?$_List_node@USocialRecord@@PAX@std@@@std@@QAEXPAUSocialRecord@@@Z 10018690 f i SocialTrade.obj
 0001:000176d0       ??$destroy@USocialRecord@@@?$allocator_traits@V?$allocator@U?$_List_node@USocialRecord@@PAX@std@@@std@@@std@@SAXAAV?$allocator@U?$_List_node@USocialRecord@@PAX@std@@@1@PAUSocialRecord@@@Z 100186d0 f i SocialTrade.obj
 0001:00017720       ??$forward@AAPAU?$_List_node@URequestData@@PAX@std@@@std@@YAAAPAU?$_List_node@URequestData@@PAX@0@AAPAU10@@Z 10018720 f i SocialTrade.obj
 0001:00017760       ??$forward@AAPAU?$_List_node@USocialRecord@@PAX@std@@@std@@YAAAPAU?$_List_node@USocialRecord@@PAX@0@AAPAU10@@Z 10018760 f i SocialTrade.obj
 0001:000177a0       ??$forward@ABURequestData@@@std@@YAABURequestData@@ABU1@@Z 100187a0 f i SocialTrade.obj
 0001:000177e0       ??$forward@ABUSocialRecord@@@std@@YAABUSocialRecord@@ABU1@@Z 100187e0 f i SocialTrade.obj
 0001:00017820       ??$strcpy_s@$0M@@@YAHAAY0M@DPBD@Z 10018820 f i SocialTrade.obj
 0001:00017880       ??$strncpy_s@$0BA@@@YAHAAY0BA@DPBDI@Z 10018880 f i SocialTrade.obj
 0001:000178e0       ??$strncpy_s@$0IA@@@YAHAAY0IA@DPBDI@Z 100188e0 f i SocialTrade.obj
 0001:00017940       ??0?$_Iterator012@Ubidirectional_iterator_tag@std@@URequestData@@HPBU3@ABU3@U_Iterator_base12@2@@std@@QAE@ABU01@@Z 10018940 f i SocialTrade.obj
 0001:000179a0       ??0?$_Iterator012@Ubidirectional_iterator_tag@std@@URequestData@@HPBU3@ABU3@U_Iterator_base12@2@@std@@QAE@XZ 100189a0 f i SocialTrade.obj
 0001:00017a00       ??0?$_Iterator012@Ubidirectional_iterator_tag@std@@USocialRecord@@HPBU3@ABU3@U_Iterator_base12@2@@std@@QAE@XZ 10018a00 f i SocialTrade.obj
 0001:00017a60       ??0?$_List_alloc@$0A@U?$_List_base_types@URequestData@@V?$allocator@URequestData@@@std@@@std@@@std@@QAE@ABV?$allocator@URequestData@@@1@@Z 10018a60 f i SocialTrade.obj
 0001:00017b60       ??0?$_List_alloc@$0A@U?$_List_base_types@USocialRecord@@V?$allocator@USocialRecord@@@std@@@std@@@std@@QAE@ABV?$allocator@USocialRecord@@@1@@Z 10018b60 f i SocialTrade.obj
 0001:00017c60       ??0?$_List_buy@URequestData@@V?$allocator@URequestData@@@std@@@std@@QAE@ABV?$allocator@URequestData@@@1@@Z 10018c60 f i SocialTrade.obj
 0001:00017cc0       ??0?$_List_buy@USocialRecord@@V?$allocator@USocialRecord@@@std@@@std@@QAE@ABV?$allocator@USocialRecord@@@1@@Z 10018cc0 f i SocialTrade.obj
 0001:00017d20       ??0?$_List_const_iterator@V?$_List_val@U?$_List_simple_types@URequestData@@@std@@@std@@@std@@QAE@ABV01@@Z 10018d20 f i SocialTrade.obj
 0001:00017d80       ??0?$_List_const_iterator@V?$_List_val@U?$_List_simple_types@URequestData@@@std@@@std@@@std@@QAE@PAU?$_List_node@URequestData@@PAX@1@PBV?$_List_val@U?$_List_simple_types@URequestData@@@std@@@1@@Z 10018d80 f i SocialTrade.obj
 0001:00017de0       ??0?$_List_const_iterator@V?$_List_val@U?$_List_simple_types@USocialRecord@@@std@@@std@@@std@@QAE@PAU?$_List_node@USocialRecord@@PAX@1@PBV?$_List_val@U?$_List_simple_types@USocialRecord@@@std@@@1@@Z 10018de0 f i SocialTrade.obj
 0001:00017e40       ??0?$_List_iterator@V?$_List_val@U?$_List_simple_types@URequestData@@@std@@@std@@@std@@QAE@PAU?$_List_node@URequestData@@PAX@1@PBV?$_List_val@U?$_List_simple_types@URequestData@@@std@@@1@@Z 10018e40 f i SocialTrade.obj
 0001:00017ea0       ??0?$_List_iterator@V?$_List_val@U?$_List_simple_types@USocialRecord@@@std@@@std@@@std@@QAE@PAU?$_List_node@USocialRecord@@PAX@1@PBV?$_List_val@U?$_List_simple_types@USocialRecord@@@std@@@1@@Z 10018ea0 f i SocialTrade.obj
 0001:00017f00       ??0?$_List_unchecked_const_iterator@V?$_List_val@U?$_List_simple_types@URequestData@@@std@@@std@@U_Iterator_base0@2@@std@@QAE@PAU?$_List_node@URequestData@@PAX@1@PBV?$_List_val@U?$_List_simple_types@URequestData@@@std@@@1@@Z 10018f00 f i SocialTrade.obj
 0001:00017f70       ??0?$_List_unchecked_const_iterator@V?$_List_val@U?$_List_simple_types@URequestData@@@std@@@std@@U_Iterator_base12@2@@std@@QAE@ABV01@@Z 10018f70 f i SocialTrade.obj
 0001:00017fe0       ??0?$_List_unchecked_const_iterator@V?$_List_val@U?$_List_simple_types@URequestData@@@std@@@std@@U_Iterator_base12@2@@std@@QAE@PAU?$_List_node@URequestData@@PAX@1@PBV?$_List_val@U?$_List_simple_types@URequestData@@@std@@@1@@Z 10018fe0 f i SocialTrade.obj
 0001:000180a0       ??0?$_List_unchecked_const_iterator@V?$_List_val@U?$_List_simple_types@USocialRecord@@@std@@@std@@U_Iterator_base0@2@@std@@QAE@PAU?$_List_node@USocialRecord@@PAX@1@PBV?$_List_val@U?$_List_simple_types@USocialRecord@@@std@@@1@@Z 100190a0 f i SocialTrade.obj
 0001:00018110       ??0?$_List_unchecked_const_iterator@V?$_List_val@U?$_List_simple_types@USocialRecord@@@std@@@std@@U_Iterator_base12@2@@std@@QAE@PAU?$_List_node@USocialRecord@@PAX@1@PBV?$_List_val@U?$_List_simple_types@USocialRecord@@@std@@@1@@Z 10019110 f i SocialTrade.obj
 0001:000181d0       ??0?$_List_unchecked_iterator@V?$_List_val@U?$_List_simple_types@URequestData@@@std@@@std@@@std@@QAE@PAU?$_List_node@URequestData@@PAX@1@PBV?$_List_val@U?$_List_simple_types@URequestData@@@std@@@1@@Z 100191d0 f i SocialTrade.obj
 0001:00018230       ??0?$_List_unchecked_iterator@V?$_List_val@U?$_List_simple_types@USocialRecord@@@std@@@std@@@std@@QAE@PAU?$_List_node@USocialRecord@@PAX@1@PBV?$_List_val@U?$_List_simple_types@USocialRecord@@@std@@@1@@Z 10019230 f i SocialTrade.obj
 0001:00018290       ??0?$_List_val@U?$_List_simple_types@URequestData@@@std@@@std@@QAE@XZ 10019290 f i SocialTrade.obj
 0001:00018300       ??0?$_List_val@U?$_List_simple_types@USocialRecord@@@std@@@std@@QAE@XZ 10019300 f i SocialTrade.obj
 0001:00018370       ??0?$_Wrap_alloc@V?$allocator@U?$_List_node@URequestData@@PAX@std@@@std@@@std@@QAE@XZ 10019370 f i SocialTrade.obj
 0001:000183d0       ??0?$_Wrap_alloc@V?$allocator@U?$_List_node@USocialRecord@@PAX@std@@@std@@@std@@QAE@XZ 100193d0 f i SocialTrade.obj
 0001:00018430       ??0?$_Wrap_alloc@V?$allocator@U_Container_proxy@std@@@std@@@std@@QAE@XZ 10019430 f i SocialTrade.obj
 0001:00018490       ??0?$allocator@U?$_List_node@URequestData@@PAX@std@@@std@@QAE@ABV01@@Z 10019490 f i SocialTrade.obj
 0001:000184d0       ??0?$allocator@U?$_List_node@URequestData@@PAX@std@@@std@@QAE@XZ 100194d0 f i SocialTrade.obj
 0001:00018510       ??0?$allocator@U?$_List_node@USocialRecord@@PAX@std@@@std@@QAE@XZ 10019510 f i SocialTrade.obj
 0001:00018550       ??0?$allocator@URequestData@@@std@@QAE@XZ 10019550 f i SocialTrade.obj
 0001:00018590       ??0?$allocator@USocialRecord@@@std@@QAE@XZ 10019590 f i SocialTrade.obj
 0001:000185d0       ??0?$basic_string@DU?$char_traits@D@std@@V?$allocator@D@2@@std@@QAE@ABV01@IIABV?$allocator@D@1@@Z 100195d0 f i SocialTrade.obj
 0001:000186a0       ??0?$list@URequestData@@V?$allocator@URequestData@@@std@@@std@@QAE@XZ 100196a0 f i SocialTrade.obj
 0001:00018710       ??0?$list@USocialRecord@@V?$allocator@USocialRecord@@@std@@@std@@QAE@XZ 10019710 f i SocialTrade.obj
 0001:00018780       ??0SocialTrade@@QAE@XZ     10019780 f   SocialTrade.obj
 0001:000188c0       ??1?$_Iterator012@Ubidirectional_iterator_tag@std@@URequestData@@HPBU3@ABU3@U_Iterator_base12@2@@std@@QAE@XZ 100198c0 f i SocialTrade.obj
 0001:00018910       ??1?$_Iterator012@Ubidirectional_iterator_tag@std@@USocialRecord@@HPBU3@ABU3@U_Iterator_base12@2@@std@@QAE@XZ 10019910 f i SocialTrade.obj
 0001:00018960       ??1?$_List_alloc@$0A@U?$_List_base_types@URequestData@@V?$allocator@URequestData@@@std@@@std@@@std@@QAE@XZ 10019960 f i SocialTrade.obj
 0001:000189d0       ??1?$_List_alloc@$0A@U?$_List_base_types@USocialRecord@@V?$allocator@USocialRecord@@@std@@@std@@@std@@QAE@XZ 100199d0 f i SocialTrade.obj
 0001:00018a40       ??1?$_List_buy@URequestData@@V?$allocator@URequestData@@@std@@@std@@QAE@XZ 10019a40 f i SocialTrade.obj
 0001:00018a90       ??1?$_List_buy@USocialRecord@@V?$allocator@USocialRecord@@@std@@@std@@QAE@XZ 10019a90 f i SocialTrade.obj
 0001:00018ae0       ??1?$_List_const_iterator@V?$_List_val@U?$_List_simple_types@URequestData@@@std@@@std@@@std@@QAE@XZ 10019ae0 f i SocialTrade.obj
 0001:00018b30       ??1?$_List_const_iterator@V?$_List_val@U?$_List_simple_types@USocialRecord@@@std@@@std@@@std@@QAE@XZ 10019b30 f i SocialTrade.obj
 0001:00018b80       ??1?$_List_iterator@V?$_List_val@U?$_List_simple_types@URequestData@@@std@@@std@@@std@@QAE@XZ 10019b80 f i SocialTrade.obj
 0001:00018bd0       ??1?$_List_iterator@V?$_List_val@U?$_List_simple_types@USocialRecord@@@std@@@std@@@std@@QAE@XZ 10019bd0 f i SocialTrade.obj
 0001:00018c20       ??1?$_List_unchecked_const_iterator@V?$_List_val@U?$_List_simple_types@URequestData@@@std@@@std@@U_Iterator_base12@2@@std@@QAE@XZ 10019c20 f i SocialTrade.obj
 0001:00018c70       ??1?$_List_unchecked_const_iterator@V?$_List_val@U?$_List_simple_types@USocialRecord@@@std@@@std@@U_Iterator_base12@2@@std@@QAE@XZ 10019c70 f i SocialTrade.obj
 0001:00018cc0       ??1?$_List_val@U?$_List_simple_types@URequestData@@@std@@@std@@QAE@XZ 10019cc0 f i SocialTrade.obj
 0001:00018d10       ??1?$_List_val@U?$_List_simple_types@USocialRecord@@@std@@@std@@QAE@XZ 10019d10 f i SocialTrade.obj
 0001:00018d60       ??1?$list@URequestData@@V?$allocator@URequestData@@@std@@@std@@QAE@XZ 10019d60 f i SocialTrade.obj
 0001:00018dc0       ??1?$list@USocialRecord@@V?$allocator@USocialRecord@@@std@@@std@@QAE@XZ 10019dc0 f i SocialTrade.obj
 0001:00018e20       ??1SocialTrade@@QAE@XZ     10019e20 f   SocialTrade.obj
 0001:00018e90       ??4?$_Iterator012@Ubidirectional_iterator_tag@std@@URequestData@@HPBU3@ABU3@U_Iterator_base12@2@@std@@QAEAAU01@ABU01@@Z 10019e90 f i SocialTrade.obj
 0001:00018ef0       ??4?$_List_const_iterator@V?$_List_val@U?$_List_simple_types@URequestData@@@std@@@std@@@std@@QAEAAV01@ABV01@@Z 10019ef0 f i SocialTrade.obj
 0001:00018f50       ??4?$_List_unchecked_const_iterator@V?$_List_val@U?$_List_simple_types@URequestData@@@std@@@std@@U_Iterator_base12@2@@std@@QAEAAV01@ABV01@@Z 10019f50 f i SocialTrade.obj
 0001:00018fc0       ??4?$list@URequestData@@V?$allocator@URequestData@@@std@@@std@@QAEAAV01@ABV01@@Z 10019fc0 f i SocialTrade.obj
 0001:000190d0       ??8?$_List_const_iterator@V?$_List_val@U?$_List_simple_types@URequestData@@@std@@@std@@@std@@QBE_NABV01@@Z 1001a0d0 f i SocialTrade.obj
 0001:00019200       ??8?$_List_const_iterator@V?$_List_val@U?$_List_simple_types@USocialRecord@@@std@@@std@@@std@@QBE_NABV01@@Z 1001a200 f i SocialTrade.obj
 0001:00019330       ??9?$_List_const_iterator@V?$_List_val@U?$_List_simple_types@URequestData@@@std@@@std@@@std@@QBE_NABV01@@Z 1001a330 f i SocialTrade.obj
 0001:000193c0       ??9?$_List_const_iterator@V?$_List_val@U?$_List_simple_types@USocialRecord@@@std@@@std@@@std@@QBE_NABV01@@Z 1001a3c0 f i SocialTrade.obj
 0001:00019450       ??D?$_List_const_iterator@V?$_List_val@U?$_List_simple_types@URequestData@@@std@@@std@@@std@@QBEABURequestData@@XZ 1001a450 f i SocialTrade.obj
 0001:00019560       ??D?$_List_const_iterator@V?$_List_val@U?$_List_simple_types@USocialRecord@@@std@@@std@@@std@@QBEABUSocialRecord@@XZ 1001a560 f i SocialTrade.obj
 0001:00019670       ??D?$_List_iterator@V?$_List_val@U?$_List_simple_types@URequestData@@@std@@@std@@@std@@QBEAAURequestData@@XZ 1001a670 f i SocialTrade.obj
 0001:000196c0       ??D?$_List_iterator@V?$_List_val@U?$_List_simple_types@USocialRecord@@@std@@@std@@@std@@QBEAAUSocialRecord@@XZ 1001a6c0 f i SocialTrade.obj
 0001:00019710       ??E?$_List_const_iterator@V?$_List_val@U?$_List_simple_types@URequestData@@@std@@@std@@@std@@QAE?AV01@H@Z 1001a710 f i SocialTrade.obj
 0001:00019830       ??E?$_List_const_iterator@V?$_List_val@U?$_List_simple_types@URequestData@@@std@@@std@@@std@@QAEAAV01@XZ 1001a830 f i SocialTrade.obj
 0001:00019950       ??E?$_List_const_iterator@V?$_List_val@U?$_List_simple_types@USocialRecord@@@std@@@std@@@std@@QAEAAV01@XZ 1001a950 f i SocialTrade.obj
 0001:00019a70       ??E?$_List_iterator@V?$_List_val@U?$_List_simple_types@URequestData@@@std@@@std@@@std@@QAEAAV01@XZ 1001aa70 f i SocialTrade.obj
 0001:00019ad0       ??E?$_List_iterator@V?$_List_val@U?$_List_simple_types@USocialRecord@@@std@@@std@@@std@@QAEAAV01@XZ 1001aad0 f i SocialTrade.obj
 0001:00019b30       ?TradeAdd@SocialTrade@@QAEXPAUTradeRecord@@PBUUserInfo@@PBUConSymbol@@@Z 1001ab30 f   SocialTrade.obj
 0001:00019b70       ?TradeClose@SocialTrade@@QAEXPAUTradeRecord@@PAUUserInfo@@H@Z 1001ab70 f   SocialTrade.obj
 0001:0001a030       ?_Adopt@_Iterator_base0@std@@QAEXPBX@Z 1001b030 f i SocialTrade.obj
 0001:0001a070       ?_Alloc_proxy@?$_List_alloc@$0A@U?$_List_base_types@URequestData@@V?$allocator@URequestData@@@std@@@std@@@std@@QAEXXZ 1001b070 f i SocialTrade.obj
 0001:0001a140       ?_Alloc_proxy@?$_List_alloc@$0A@U?$_List_base_types@USocialRecord@@V?$allocator@USocialRecord@@@std@@@std@@@std@@QAEXXZ 1001b140 f i SocialTrade.obj
 0001:0001a210       ?_Buyheadnode@?$_List_alloc@$0A@U?$_List_base_types@URequestData@@V?$allocator@URequestData@@@std@@@std@@@std@@QAEPAU?$_List_node@URequestData@@PAX@2@XZ 1001b210 f i SocialTrade.obj
 0001:0001a270       ?_Buyheadnode@?$_List_alloc@$0A@U?$_List_base_types@USocialRecord@@V?$allocator@USocialRecord@@@std@@@std@@@std@@QAEPAU?$_List_node@USocialRecord@@PAX@2@XZ 1001b270 f i SocialTrade.obj
 0001:0001a2d0       ?_Buynode0@?$_List_alloc@$0A@U?$_List_base_types@URequestData@@V?$allocator@URequestData@@@std@@@std@@@std@@QAEPAU?$_List_node@URequestData@@PAX@2@PAU32@0@Z 1001b2d0 f i SocialTrade.obj
 0001:0001a490       ?_Buynode0@?$_List_alloc@$0A@U?$_List_base_types@USocialRecord@@V?$allocator@USocialRecord@@@std@@@std@@@std@@QAEPAU?$_List_node@USocialRecord@@PAX@2@PAU32@0@Z 1001b490 f i SocialTrade.obj
 0001:0001a650       ?_Change_alloc@?$_List_alloc@$0A@U?$_List_base_types@URequestData@@V?$allocator@URequestData@@@std@@@std@@@std@@QAEXABU?$_Wrap_alloc@V?$allocator@U?$_List_node@URequestData@@PAX@std@@@std@@@2@@Z 1001b650 f i SocialTrade.obj
 0001:0001a690       ?_Free_proxy@?$_List_alloc@$0A@U?$_List_base_types@URequestData@@V?$allocator@URequestData@@@std@@@std@@@std@@QAEXXZ 1001b690 f i SocialTrade.obj
 0001:0001a760       ?_Free_proxy@?$_List_alloc@$0A@U?$_List_base_types@USocialRecord@@V?$allocator@USocialRecord@@@std@@@std@@@std@@QAEXXZ 1001b760 f i SocialTrade.obj
 0001:0001a830       ?_Freeheadnode@?$_List_alloc@$0A@U?$_List_base_types@URequestData@@V?$allocator@URequestData@@@std@@@std@@@std@@QAEXPAU?$_List_node@URequestData@@PAX@2@@Z 1001b830 f i SocialTrade.obj
 0001:0001a910       ?_Freeheadnode@?$_List_alloc@$0A@U?$_List_base_types@USocialRecord@@V?$allocator@USocialRecord@@@std@@@std@@@std@@QAEXPAU?$_List_node@USocialRecord@@PAX@2@@Z 1001b910 f i SocialTrade.obj
 0001:0001a9f0       ?_Freenode@?$_List_buy@URequestData@@V?$allocator@URequestData@@@std@@@std@@QAEXPAU?$_List_node@URequestData@@PAX@2@@Z 1001b9f0 f i SocialTrade.obj
 0001:0001ab00       ?_Freenode@?$_List_buy@USocialRecord@@V?$allocator@USocialRecord@@@std@@@std@@QAEXPAU?$_List_node@USocialRecord@@PAX@2@@Z 1001bb00 f i SocialTrade.obj
 0001:0001ac10       ?_Getal@?$_List_alloc@$0A@U?$_List_base_types@URequestData@@V?$allocator@URequestData@@@std@@@std@@@std@@QBE?AU?$_Wrap_alloc@V?$allocator@U?$_List_node@URequestData@@PAX@std@@@std@@@2@XZ 1001bc10 f i SocialTrade.obj
 0001:0001ac70       ?_Getal@?$_List_alloc@$0A@U?$_List_base_types@USocialRecord@@V?$allocator@USocialRecord@@@std@@@std@@@std@@QBE?AU?$_Wrap_alloc@V?$allocator@U?$_List_node@USocialRecord@@PAX@std@@@std@@@2@XZ 1001bc70 f i SocialTrade.obj
 0001:0001acd0       ?_Incsize@?$list@URequestData@@V?$allocator@URequestData@@@std@@@std@@QAEXI@Z 1001bcd0 f i SocialTrade.obj
 0001:0001ad60       ?_Incsize@?$list@USocialRecord@@V?$allocator@USocialRecord@@@std@@@std@@QAEXI@Z 1001bd60 f i SocialTrade.obj
 0001:0001adf0       ?_Make_iter@?$list@URequestData@@V?$allocator@URequestData@@@std@@@std@@QBE?AV?$_List_iterator@V?$_List_val@U?$_List_simple_types@URequestData@@@std@@@std@@@2@V?$_List_const_iterator@V?$_List_val@U?$_List_simple_types@URequestData@@@std@@@std@@@2@@Z 1001bdf0 f i SocialTrade.obj
 0001:0001ae60       ?_Mynode@?$_List_unchecked_const_iterator@V?$_List_val@U?$_List_simple_types@URequestData@@@std@@@std@@U_Iterator_base0@2@@std@@QBEPAU?$_List_node@URequestData@@PAX@2@XZ 1001be60 f i SocialTrade.obj
 0001:0001aea0       ?_Mynode@?$_List_unchecked_const_iterator@V?$_List_val@U?$_List_simple_types@URequestData@@@std@@@std@@U_Iterator_base12@2@@std@@QBEPAU?$_List_node@URequestData@@PAX@2@XZ 1001bea0 f i SocialTrade.obj
 0001:0001aee0       ?_Mynode@?$_List_unchecked_const_iterator@V?$_List_val@U?$_List_simple_types@USocialRecord@@@std@@@std@@U_Iterator_base0@2@@std@@QBEPAU?$_List_node@USocialRecord@@PAX@2@XZ 1001bee0 f i SocialTrade.obj
 0001:0001af20       ?_Myval@?$_List_val@U?$_List_simple_types@URequestData@@@std@@@std@@SAAAURequestData@@PAU?$_List_node@URequestData@@PAX@2@@Z 1001bf20 f i SocialTrade.obj
 0001:0001af60       ?_Myval@?$_List_val@U?$_List_simple_types@USocialRecord@@@std@@@std@@SAAAUSocialRecord@@PAU?$_List_node@USocialRecord@@PAX@2@@Z 1001bf60 f i SocialTrade.obj
 0001:0001afa0       ?_Nextnode@?$_List_val@U?$_List_simple_types@URequestData@@@std@@@std@@SAAAPAU?$_List_node@URequestData@@PAX@2@PAU32@@Z 1001bfa0 f i SocialTrade.obj
 0001:0001afe0       ?_Nextnode@?$_List_val@U?$_List_simple_types@USocialRecord@@@std@@@std@@SAAAPAU?$_List_node@USocialRecord@@PAX@2@PAU32@@Z 1001bfe0 f i SocialTrade.obj
 0001:0001b020       ?_Orphan_ptr@?$list@URequestData@@V?$allocator@URequestData@@@std@@@std@@QBEXAAV12@PAU?$_List_node@URequestData@@PAX@2@@Z 1001c020 f i SocialTrade.obj
 0001:0001b180       ?_Prevnode@?$_List_val@U?$_List_simple_types@URequestData@@@std@@@std@@SAAAPAU?$_List_node@URequestData@@PAX@2@PAU32@@Z 1001c180 f i SocialTrade.obj
 0001:0001b1c0       ?_Prevnode@?$_List_val@U?$_List_simple_types@USocialRecord@@@std@@@std@@SAAAPAU?$_List_node@USocialRecord@@PAX@2@PAU32@@Z 1001c1c0 f i SocialTrade.obj
 0001:0001b200       ?_Tidy@?$list@URequestData@@V?$allocator@URequestData@@@std@@@std@@QAEXXZ 1001c200 f i SocialTrade.obj
 0001:0001b250       ?_Tidy@?$list@USocialRecord@@V?$allocator@USocialRecord@@@std@@@std@@QAEXXZ 1001c250 f i SocialTrade.obj
 0001:0001b2a0       ?_Unchecked_end@?$list@URequestData@@V?$allocator@URequestData@@@std@@@std@@QAE?AV?$_List_unchecked_iterator@V?$_List_val@U?$_List_simple_types@URequestData@@@std@@@std@@@2@XZ 1001c2a0 f i SocialTrade.obj
 0001:0001b310       ?_Unchecked_end@?$list@USocialRecord@@V?$allocator@USocialRecord@@@std@@@std@@QAE?AV?$_List_unchecked_iterator@V?$_List_val@U?$_List_simple_types@USocialRecord@@@std@@@std@@@2@XZ 1001c310 f i SocialTrade.obj
 0001:0001b380       ?addTurn@SocialTrade@@QAEXPAUTradeRecord@@PBUUserInfo@@HPBUConSymbol@@@Z 1001c380 f   SocialTrade.obj
 0001:0001b6b0       ?allocate@?$_Wrap_alloc@V?$allocator@U?$_List_node@URequestData@@PAX@std@@@std@@@std@@QAEPAU?$_List_node@URequestData@@PAX@2@I@Z 1001c6b0 f i SocialTrade.obj
 0001:0001b710       ?allocate@?$_Wrap_alloc@V?$allocator@U?$_List_node@USocialRecord@@PAX@std@@@std@@@std@@QAEPAU?$_List_node@USocialRecord@@PAX@2@I@Z 1001c710 f i SocialTrade.obj
 0001:0001b770       ?allocate@?$allocator@U?$_List_node@URequestData@@PAX@std@@@std@@QAEPAU?$_List_node@URequestData@@PAX@2@I@Z 1001c770 f i SocialTrade.obj
 0001:0001b7d0       ?allocate@?$allocator@U?$_List_node@USocialRecord@@PAX@std@@@std@@QAEPAU?$_List_node@USocialRecord@@PAX@2@I@Z 1001c7d0 f i SocialTrade.obj
 0001:0001b830       ?begin@?$list@URequestData@@V?$allocator@URequestData@@@std@@@std@@QAE?AV?$_List_iterator@V?$_List_val@U?$_List_simple_types@URequestData@@@std@@@std@@@2@XZ 1001c830 f i SocialTrade.obj
 0001:0001b8a0       ?begin@?$list@URequestData@@V?$allocator@URequestData@@@std@@@std@@QBE?AV?$_List_const_iterator@V?$_List_val@U?$_List_simple_types@URequestData@@@std@@@std@@@2@XZ 1001c8a0 f i SocialTrade.obj
 0001:0001b910       ?begin@?$list@USocialRecord@@V?$allocator@USocialRecord@@@std@@@std@@QAE?AV?$_List_iterator@V?$_List_val@U?$_List_simple_types@USocialRecord@@@std@@@std@@@2@XZ 1001c910 f i SocialTrade.obj
 0001:0001b980       ?clear@?$list@URequestData@@V?$allocator@URequestData@@@std@@@std@@QAEXXZ 1001c980 f i SocialTrade.obj
 0001:0001ba70       ?clear@?$list@USocialRecord@@V?$allocator@USocialRecord@@@std@@@std@@QAEXXZ 1001ca70 f i SocialTrade.obj
 0001:0001bb60       ?deallocate@?$_Wrap_alloc@V?$allocator@U?$_List_node@URequestData@@PAX@std@@@std@@@std@@QAEXPAU?$_List_node@URequestData@@PAX@2@I@Z 1001cb60 f i SocialTrade.obj
 0001:0001bbc0       ?deallocate@?$_Wrap_alloc@V?$allocator@U?$_List_node@USocialRecord@@PAX@std@@@std@@@std@@QAEXPAU?$_List_node@USocialRecord@@PAX@2@I@Z 1001cbc0 f i SocialTrade.obj
 0001:0001bc20       ?deallocate@?$allocator@U?$_List_node@URequestData@@PAX@std@@@std@@QAEXPAU?$_List_node@URequestData@@PAX@2@I@Z 1001cc20 f i SocialTrade.obj
 0001:0001bc80       ?deallocate@?$allocator@U?$_List_node@USocialRecord@@PAX@std@@@std@@QAEXPAU?$_List_node@USocialRecord@@PAX@2@I@Z 1001cc80 f i SocialTrade.obj
 0001:0001bce0       ?deleteOrder@SocialTrade@@QAEXHH@Z 1001cce0 f   SocialTrade.obj
 0001:0001be70       ?end@?$list@URequestData@@V?$allocator@URequestData@@@std@@@std@@QAE?AV?$_List_iterator@V?$_List_val@U?$_List_simple_types@URequestData@@@std@@@std@@@2@XZ 1001ce70 f i SocialTrade.obj
 0001:0001bee0       ?end@?$list@URequestData@@V?$allocator@URequestData@@@std@@@std@@QBE?AV?$_List_const_iterator@V?$_List_val@U?$_List_simple_types@URequestData@@@std@@@std@@@2@XZ 1001cee0 f i SocialTrade.obj
 0001:0001bf50       ?end@?$list@USocialRecord@@V?$allocator@USocialRecord@@@std@@@std@@QAE?AV?$_List_iterator@V?$_List_val@U?$_List_simple_types@USocialRecord@@@std@@@std@@@2@XZ 1001cf50 f i SocialTrade.obj
 0001:0001bfc0       ?erase@?$list@URequestData@@V?$allocator@URequestData@@@std@@@std@@QAE?AV?$_List_iterator@V?$_List_val@U?$_List_simple_types@URequestData@@@std@@@std@@@2@V?$_List_const_iterator@V?$_List_val@U?$_List_simple_types@URequestData@@@std@@@std@@@2@0@Z 1001cfc0 f i SocialTrade.obj
 0001:0001c320       ?erase@?$list@URequestData@@V?$allocator@URequestData@@@std@@@std@@QAE?AV?$_List_iterator@V?$_List_val@U?$_List_simple_types@URequestData@@@std@@@std@@@2@V?$_List_const_iterator@V?$_List_val@U?$_List_simple_types@URequestData@@@std@@@std@@@2@@Z 1001d320 f i SocialTrade.obj
 0001:0001c550       ?find@?$basic_string@DU?$char_traits@D@std@@V?$allocator@D@2@@std@@QBEIPBDI@Z 1001d550 f i SocialTrade.obj
 0001:0001c5e0       ?getIP@@YA?AV?$basic_string@DU?$char_traits@D@std@@V?$allocator@D@2@@std@@XZ 1001d5e0 f   SocialTrade.obj
 0001:0001c800       ?getOrder@SocialTrade@@QAE?AUTradeRecord@@H@Z 1001d800 f   SocialTrade.obj
 0001:0001c9f0       ?getServerInterface@SocialTrade@@QAEPAUCServerInterface@@XZ 1001d9f0 f   SocialTrade.obj
 0001:0001ca30       ?getUserInfo@SocialTrade@@AAEXHPAUUserInfo@@@Z 1001da30 f   SocialTrade.obj
 0001:0001cc20       ?get_allocator@?$basic_string@DU?$char_traits@D@std@@V?$allocator@D@2@@std@@QBE?AV?$allocator@D@2@XZ 1001dc20 f i SocialTrade.obj
 0001:0001cc90       ?mainIsRun@SocialTrade@@QAE_NXZ 1001dc90 f   SocialTrade.obj
 0001:0001ccd0       ?max_size@?$_Wrap_alloc@V?$allocator@U?$_List_node@URequestData@@PAX@std@@@std@@@std@@QBEIXZ 1001dcd0 f i SocialTrade.obj
 0001:0001cd30       ?max_size@?$_Wrap_alloc@V?$allocator@U?$_List_node@USocialRecord@@PAX@std@@@std@@@std@@QBEIXZ 1001dd30 f i SocialTrade.obj
 0001:0001cd90       ?max_size@?$allocator@U?$_List_node@URequestData@@PAX@std@@@std@@QBEIXZ 1001dd90 f i SocialTrade.obj
 0001:0001cdd0       ?max_size@?$allocator@U?$_List_node@USocialRecord@@PAX@std@@@std@@QBEIXZ 1001ddd0 f i SocialTrade.obj
 0001:0001ce10       ?max_size@?$allocator_traits@V?$allocator@U?$_List_node@URequestData@@PAX@std@@@std@@@std@@SAIABV?$allocator@U?$_List_node@URequestData@@PAX@std@@@2@@Z 1001de10 f i SocialTrade.obj
 0001:0001ce60       ?max_size@?$allocator_traits@V?$allocator@U?$_List_node@USocialRecord@@PAX@std@@@std@@@std@@SAIABV?$allocator@U?$_List_node@USocialRecord@@PAX@std@@@2@@Z 1001de60 f i SocialTrade.obj
 0001:0001ceb0       ?max_size@?$list@URequestData@@V?$allocator@URequestData@@@std@@@std@@QBEIXZ 1001deb0 f i SocialTrade.obj
 0001:0001cf10       ?max_size@?$list@USocialRecord@@V?$allocator@USocialRecord@@@std@@@std@@QBEIXZ 1001df10 f i SocialTrade.obj
 0001:0001cf70       ?push_back@?$list@URequestData@@V?$allocator@URequestData@@@std@@@std@@QAEXABURequestData@@@Z 1001df70 f i SocialTrade.obj
 0001:0001cff0       ?push_back@?$list@USocialRecord@@V?$allocator@USocialRecord@@@std@@@std@@QAEXABUSocialRecord@@@Z 1001dff0 f i SocialTrade.obj
 0001:0001d070       ?saveOrder@SocialTrade@@QAEHHH@Z 1001e070 f   SocialTrade.obj
 0001:0001d220       ?setServerInterface@SocialTrade@@QAEXPAUCServerInterface@@@Z 1001e220 f   SocialTrade.obj
 0001:0001d270       ?size@?$list@URequestData@@V?$allocator@URequestData@@@std@@@std@@QBEIXZ 1001e270 f i SocialTrade.obj
 0001:0001d2b0       ?substr@?$basic_string@DU?$char_traits@D@std@@V?$allocator@D@2@@std@@QBE?AV12@II@Z 1001e2b0 f i SocialTrade.obj
 0001:0001d350       ?tradeRequestApply@SocialTrade@@QAEXPAURequestInfo@@@Z 1001e350 f   SocialTrade.obj
 0001:0001d870       ?tradesAdd@SocialTrade@@QAEXPAUTradeRecord@@PBUUserInfo@@PBUConSymbol@@@Z 1001e870 f   SocialTrade.obj
 0001:0001e130       ?tradesUpdate@SocialTrade@@QAEXPAUTradeRecord@@PAUUserInfo@@H@Z 1001f130 f   SocialTrade.obj
 0001:0001e4f0       ?updateOrder@SocialTrade@@QAEXHH@Z 1001f4f0 f   SocialTrade.obj
 0001:0001e680       ??$?0AAV?$_Tree_iterator@V?$_Tree_val@U?$_Tree_simple_types@U?$pair@$$CBV?$basic_string@DU?$char_traits@D@std@@V?$allocator@D@2@@std@@PAP6AHV12@PAX@Z@std@@@std@@@std@@@std@@AAV01@@?$pair@V?$_Tree_iterator@V?$_Tree_val@U?$_Tree_simple_types@U?$pair@$$CBV?$basic_string@DU?$char_traits@D@std@@V?$allocator@D@2@@std@@PAP6AHV12@PAX@Z@std@@@std@@@std@@@std@@V12@@std@@QAE@AAV?$_Tree_iterator@V?$_Tree_val@U?$_Tree_simple_types@U?$pair@$$CBV?$basic_string@DU?$char_traits@D@std@@V?$allocator@D@2@@std@@PAP6AHV12@PAX@Z@std@@@std@@@std@@@1@0PAPAX@Z 1001f680 f i SocketServer.obj
 0001:0001e750       ??$?0AAV?$_Tree_iterator@V?$_Tree_val@U?$_Tree_simple_types@U?$pair@$$CBV?$basic_string@DU?$char_traits@D@std@@V?$allocator@D@2@@std@@PAP6AHV12@PAX@Z@std@@@std@@@std@@@std@@_N@?$pair@V?$_Tree_iterator@V?$_Tree_val@U?$_Tree_simple_types@U?$pair@$$CBV?$basic_string@DU?$char_traits@D@std@@V?$allocator@D@2@@std@@PAP6AHV12@PAX@Z@std@@@std@@@std@@@std@@_N@std@@QAE@AAV?$_Tree_iterator@V?$_Tree_val@U?$_Tree_simple_types@U?$pair@$$CBV?$basic_string@DU?$char_traits@D@std@@V?$allocator@D@2@@std@@PAP6AHV12@PAX@Z@std@@@std@@@std@@@1@$$QA_NPAPAX@Z 1001f750 f i SocketServer.obj
 0001:0001e820       ??$?0AAV?$_Tree_iterator@V?$_Tree_val@U?$_Tree_simple_types@U?$pair@$$CBV?$basic_string@DU?$char_traits@D@std@@V?$allocator@D@2@@std@@PAUcanal_data@@@std@@@std@@@std@@@std@@_N@?$pair@V?$_Tree_iterator@V?$_Tree_val@U?$_Tree_simple_types@U?$pair@$$CBV?$basic_string@DU?$char_traits@D@std@@V?$allocator@D@2@@std@@PAUcanal_data@@@std@@@std@@@std@@@std@@_N@std@@QAE@AAV?$_Tree_iterator@V?$_Tree_val@U?$_Tree_simple_types@U?$pair@$$CBV?$basic_string@DU?$char_traits@D@std@@V?$allocator@D@2@@std@@PAUcanal_data@@@std@@@std@@@std@@@1@$$QA_NPAPAX@Z 1001f820 f i SocketServer.obj
 0001:0001e8f0       ??$?0AAV?$_Tree_iterator@V?$_Tree_val@U?$_Tree_simple_types@U?$pair@$$CBV?$basic_string@DU?$char_traits@D@std@@V?$allocator@D@2@@std@@PAUcanal_socket_data@@@std@@@std@@@std@@@std@@AAV01@@?$pair@V?$_Tree_iterator@V?$_Tree_val@U?$_Tree_simple_types@U?$pair@$$CBV?$basic_string@DU?$char_traits@D@std@@V?$allocator@D@2@@std@@PAUcanal_socket_data@@@std@@@std@@@std@@@std@@V12@@std@@QAE@AAV?$_Tree_iterator@V?$_Tree_val@U?$_Tree_simple_types@U?$pair@$$CBV?$basic_string@DU?$char_traits@D@std@@V?$allocator@D@2@@std@@PAUcanal_socket_data@@@std@@@std@@@std@@@1@0PAPAX@Z 1001f8f0 f i SocketServer.obj
 0001:0001e9c0       ??$?0AAV?$_Tree_iterator@V?$_Tree_val@U?$_Tree_simple_types@U?$pair@$$CBV?$basic_string@DU?$char_traits@D@std@@V?$allocator@D@2@@std@@PAUcanal_socket_data@@@std@@@std@@@std@@@std@@_N@?$pair@V?$_Tree_iterator@V?$_Tree_val@U?$_Tree_simple_types@U?$pair@$$CBV?$basic_string@DU?$char_traits@D@std@@V?$allocator@D@2@@std@@PAUcanal_socket_data@@@std@@@std@@@std@@@std@@_N@std@@QAE@AAV?$_Tree_iterator@V?$_Tree_val@U?$_Tree_simple_types@U?$pair@$$CBV?$basic_string@DU?$char_traits@D@std@@V?$allocator@D@2@@std@@PAUcanal_socket_data@@@std@@@std@@@std@@@1@$$QA_NPAPAX@Z 1001f9c0 f i SocketServer.obj
 0001:0001ea90       ??$?0ABV?$basic_string@DU?$char_traits@D@std@@V?$allocator@D@2@@std@@PAP6AHV01@PAX@Z@?$pair@V?$basic_string@DU?$char_traits@D@std@@V?$allocator@D@2@@std@@PAP6AHV12@PAX@Z@std@@QAE@ABV?$basic_string@DU?$char_traits@D@std@@V?$allocator@D@2@@1@$$QAPAP6AHV21@PAX@ZPAPAX@Z 1001fa90 f i SocketServer.obj
 0001:0001eb60       ??$?0ABV?$basic_string@DU?$char_traits@D@std@@V?$allocator@D@2@@std@@PAUcanal_data@@@?$pair@V?$basic_string@DU?$char_traits@D@std@@V?$allocator@D@2@@std@@PAUcanal_data@@@std@@QAE@ABV?$basic_string@DU?$char_traits@D@std@@V?$allocator@D@2@@1@$$QAPAUcanal_data@@PAPAX@Z 1001fb60 f i SocketServer.obj
 0001:0001ec30       ??$?0ABV?$basic_string@DU?$char_traits@D@std@@V?$allocator@D@2@@std@@PAUcanal_socket_data@@@?$pair@V?$basic_string@DU?$char_traits@D@std@@V?$allocator@D@2@@std@@PAUcanal_socket_data@@@std@@QAE@ABV?$basic_string@DU?$char_traits@D@std@@V?$allocator@D@2@@1@$$QAPAUcanal_socket_data@@PAPAX@Z 1001fc30 f i SocketServer.obj
 0001:0001ed00       ??$?0U?$_Tree_node@U?$pair@$$CBV?$basic_string@DU?$char_traits@D@std@@V?$allocator@D@2@@std@@PAP6AHV12@PAX@Z@std@@PAX@std@@@?$allocator@U_Container_proxy@std@@@std@@QAE@ABV?$allocator@U?$_Tree_node@U?$pair@$$CBV?$basic_string@DU?$char_traits@D@std@@V?$allocator@D@2@@std@@PAP6AHV12@PAX@Z@std@@PAX@std@@@1@@Z 1001fd00 f i SocketServer.obj
 0001:0001ed40       ??$?0U?$_Tree_node@U?$pair@$$CBV?$basic_string@DU?$char_traits@D@std@@V?$allocator@D@2@@std@@PAUcanal_data@@@std@@PAX@std@@@?$allocator@U_Container_proxy@std@@@std@@QAE@ABV?$allocator@U?$_Tree_node@U?$pair@$$CBV?$basic_string@DU?$char_traits@D@std@@V?$allocator@D@2@@std@@PAUcanal_data@@@std@@PAX@std@@@1@@Z 1001fd40 f i SocketServer.obj
 0001:0001ed80       ??$?0U?$_Tree_node@U?$pair@$$CBV?$basic_string@DU?$char_traits@D@std@@V?$allocator@D@2@@std@@PAUcanal_socket_data@@@std@@PAX@std@@@?$allocator@U_Container_proxy@std@@@std@@QAE@ABV?$allocator@U?$_Tree_node@U?$pair@$$CBV?$basic_string@DU?$char_traits@D@std@@V?$allocator@D@2@@std@@PAUcanal_socket_data@@@std@@PAX@std@@@1@@Z 1001fd80 f i SocketServer.obj
 0001:0001edc0       ??$?0U?$_Wrap_alloc@V?$allocator@U?$_Tree_node@U?$pair@$$CBV?$basic_string@DU?$char_traits@D@std@@V?$allocator@D@2@@std@@PAP6AHV12@PAX@Z@std@@PAX@std@@@std@@@std@@@?$_Wrap_alloc@V?$allocator@U_Container_proxy@std@@@std@@@std@@QAE@ABU?$_Wrap_alloc@V?$allocator@U?$_Tree_node@U?$pair@$$CBV?$basic_string@DU?$char_traits@D@std@@V?$allocator@D@2@@std@@PAP6AHV12@PAX@Z@std@@PAX@std@@@std@@@1@@Z 1001fdc0 f i SocketServer.obj
 0001:0001ee20       ??$?0U?$_Wrap_alloc@V?$allocator@U?$_Tree_node@U?$pair@$$CBV?$basic_string@DU?$char_traits@D@std@@V?$allocator@D@2@@std@@PAUcanal_data@@@std@@PAX@std@@@std@@@std@@@?$_Wrap_alloc@V?$allocator@U_Container_proxy@std@@@std@@@std@@QAE@ABU?$_Wrap_alloc@V?$allocator@U?$_Tree_node@U?$pair@$$CBV?$basic_string@DU?$char_traits@D@std@@V?$allocator@D@2@@std@@PAUcanal_data@@@std@@PAX@std@@@std@@@1@@Z 1001fe20 f i SocketServer.obj
 0001:0001ee80       ??$?0U?$_Wrap_alloc@V?$allocator@U?$_Tree_node@U?$pair@$$CBV?$basic_string@DU?$char_traits@D@std@@V?$allocator@D@2@@std@@PAUcanal_socket_data@@@std@@PAX@std@@@std@@@std@@@?$_Wrap_alloc@V?$allocator@U_Container_proxy@std@@@std@@@std@@QAE@ABU?$_Wrap_alloc@V?$allocator@U?$_Tree_node@U?$pair@$$CBV?$basic_string@DU?$char_traits@D@std@@V?$allocator@D@2@@std@@PAUcanal_socket_data@@@std@@PAX@std@@@std@@@1@@Z 1001fe80 f i SocketServer.obj
 0001:0001eee0       ??$?0V?$_Tree_iterator@V?$_Tree_val@U?$_Tree_simple_types@U?$pair@$$CBV?$basic_string@DU?$char_traits@D@std@@V?$allocator@D@2@@std@@PAP6AHV12@PAX@Z@std@@@std@@@std@@@std@@V01@@?$pair@V?$_Tree_iterator@V?$_Tree_val@U?$_Tree_simple_types@U?$pair@$$CBV?$basic_string@DU?$char_traits@D@std@@V?$allocator@D@2@@std@@PAP6AHV12@PAX@Z@std@@@std@@@std@@@std@@V12@@std@@QAE@$$QAU01@PAPAX@Z 1001fee0 f i SocketServer.obj
 0001:0001efb0       ??$?0V?$_Tree_iterator@V?$_Tree_val@U?$_Tree_simple_types@U?$pair@$$CBV?$basic_string@DU?$char_traits@D@std@@V?$allocator@D@2@@std@@PAP6AHV12@PAX@Z@std@@@std@@@std@@@std@@_N@?$pair@V?$_Tree_iterator@V?$_Tree_val@U?$_Tree_simple_types@U?$pair@$$CBV?$basic_string@DU?$char_traits@D@std@@V?$allocator@D@2@@std@@PAP6AHV12@PAX@Z@std@@@std@@@std@@@std@@_N@std@@QAE@$$QAU01@PAPAX@Z 1001ffb0 f i SocketServer.obj
 0001:0001f080       ??$?0V?$_Tree_iterator@V?$_Tree_val@U?$_Tree_simple_types@U?$pair@$$CBV?$basic_string@DU?$char_traits@D@std@@V?$allocator@D@2@@std@@PAP6AHV12@PAX@Z@std@@@std@@@std@@@std@@_N@?$pair@V?$_Tree_iterator@V?$_Tree_val@U?$_Tree_simple_types@U?$pair@$$CBV?$basic_string@DU?$char_traits@D@std@@V?$allocator@D@2@@std@@PAP6AHV12@PAX@Z@std@@@std@@@std@@@std@@_N@std@@QAE@$$QAV?$_Tree_iterator@V?$_Tree_val@U?$_Tree_simple_types@U?$pair@$$CBV?$basic_string@DU?$char_traits@D@std@@V?$allocator@D@2@@std@@PAP6AHV12@PAX@Z@std@@@std@@@std@@@1@$$QA_NPAPAX@Z 10020080 f i SocketServer.obj
 0001:0001f150       ??$?0V?$_Tree_iterator@V?$_Tree_val@U?$_Tree_simple_types@U?$pair@$$CBV?$basic_string@DU?$char_traits@D@std@@V?$allocator@D@2@@std@@PAUcanal_data@@@std@@@std@@@std@@@std@@_N@?$pair@V?$_Tree_iterator@V?$_Tree_val@U?$_Tree_simple_types@U?$pair@$$CBV?$basic_string@DU?$char_traits@D@std@@V?$allocator@D@2@@std@@PAUcanal_data@@@std@@@std@@@std@@@std@@_N@std@@QAE@$$QAU01@PAPAX@Z 10020150 f i SocketServer.obj
 0001:0001f220       ??$?0V?$_Tree_iterator@V?$_Tree_val@U?$_Tree_simple_types@U?$pair@$$CBV?$basic_string@DU?$char_traits@D@std@@V?$allocator@D@2@@std@@PAUcanal_data@@@std@@@std@@@std@@@std@@_N@?$pair@V?$_Tree_iterator@V?$_Tree_val@U?$_Tree_simple_types@U?$pair@$$CBV?$basic_string@DU?$char_traits@D@std@@V?$allocator@D@2@@std@@PAUcanal_data@@@std@@@std@@@std@@@std@@_N@std@@QAE@$$QAV?$_Tree_iterator@V?$_Tree_val@U?$_Tree_simple_types@U?$pair@$$CBV?$basic_string@DU?$char_traits@D@std@@V?$allocator@D@2@@std@@PAUcanal_data@@@std@@@std@@@std@@@1@$$QA_NPAPAX@Z 10020220 f i SocketServer.obj
 0001:0001f2f0       ??$?0V?$_Tree_iterator@V?$_Tree_val@U?$_Tree_simple_types@U?$pair@$$CBV?$basic_string@DU?$char_traits@D@std@@V?$allocator@D@2@@std@@PAUcanal_socket_data@@@std@@@std@@@std@@@std@@V01@@?$pair@V?$_Tree_iterator@V?$_Tree_val@U?$_Tree_simple_types@U?$pair@$$CBV?$basic_string@DU?$char_traits@D@std@@V?$allocator@D@2@@std@@PAUcanal_socket_data@@@std@@@std@@@std@@@std@@V12@@std@@QAE@$$QAU01@PAPAX@Z 100202f0 f i SocketServer.obj
 0001:0001f3c0       ??$?0V?$_Tree_iterator@V?$_Tree_val@U?$_Tree_simple_types@U?$pair@$$CBV?$basic_string@DU?$char_traits@D@std@@V?$allocator@D@2@@std@@PAUcanal_socket_data@@@std@@@std@@@std@@@std@@_N@?$pair@V?$_Tree_iterator@V?$_Tree_val@U?$_Tree_simple_types@U?$pair@$$CBV?$basic_string@DU?$char_traits@D@std@@V?$allocator@D@2@@std@@PAUcanal_socket_data@@@std@@@std@@@std@@@std@@_N@std@@QAE@$$QAU01@PAPAX@Z 100203c0 f i SocketServer.obj
 0001:0001f490       ??$?0V?$_Tree_iterator@V?$_Tree_val@U?$_Tree_simple_types@U?$pair@$$CBV?$basic_string@DU?$char_traits@D@std@@V?$allocator@D@2@@std@@PAUcanal_socket_data@@@std@@@std@@@std@@@std@@_N@?$pair@V?$_Tree_iterator@V?$_Tree_val@U?$_Tree_simple_types@U?$pair@$$CBV?$basic_string@DU?$char_traits@D@std@@V?$allocator@D@2@@std@@PAUcanal_socket_data@@@std@@@std@@@std@@@std@@_N@std@@QAE@$$QAV?$_Tree_iterator@V?$_Tree_val@U?$_Tree_simple_types@U?$pair@$$CBV?$basic_string@DU?$char_traits@D@std@@V?$allocator@D@2@@std@@PAUcanal_socket_data@@@std@@@std@@@std@@@1@$$QA_NPAPAX@Z 10020490 f i SocketServer.obj
 0001:0001f560       ??$?0V?$basic_string@DU?$char_traits@D@std@@V?$allocator@D@2@@std@@PAP6AHV01@PAX@Z@?$pair@$$CBV?$basic_string@DU?$char_traits@D@std@@V?$allocator@D@2@@std@@PAP6AHV12@PAX@Z@std@@QAE@$$QAU?$pair@V?$basic_string@DU?$char_traits@D@std@@V?$allocator@D@2@@std@@PAP6AHV12@PAX@Z@1@PAPAX@Z 10020560 f i SocketServer.obj
 0001:0001f630       ??$?0V?$basic_string@DU?$char_traits@D@std@@V?$allocator@D@2@@std@@PAUcanal_data@@@?$pair@$$CBV?$basic_string@DU?$char_traits@D@std@@V?$allocator@D@2@@std@@PAUcanal_data@@@std@@QAE@$$QAU?$pair@V?$basic_string@DU?$char_traits@D@std@@V?$allocator@D@2@@std@@PAUcanal_data@@@1@PAPAX@Z 10020630 f i SocketServer.obj
 0001:0001f700       ??$?0V?$basic_string@DU?$char_traits@D@std@@V?$allocator@D@2@@std@@PAUcanal_socket_data@@@?$pair@$$CBV?$basic_string@DU?$char_traits@D@std@@V?$allocator@D@2@@std@@PAUcanal_socket_data@@@std@@QAE@$$QAU?$pair@V?$basic_string@DU?$char_traits@D@std@@V?$allocator@D@2@@std@@PAUcanal_socket_data@@@1@PAPAX@Z 10020700 f i SocketServer.obj
 0001:0001f7d0       ??$?8DD@std@@YA_NABV?$allocator@D@0@0@Z 100207d0 f i SocketServer.obj
 0001:0001f800       ??$?8V?$allocator@D@std@@V01@@std@@YA_NABU?$_Wrap_alloc@V?$allocator@D@std@@@0@0@Z 10020800 f i SocketServer.obj
 0001:0001f870       ??$?9V?$allocator@D@std@@V01@@std@@YA_NABU?$_Wrap_alloc@V?$allocator@D@std@@@0@0@Z 10020870 f i SocketServer.obj
 0001:0001f8f0       ??$_Allocate@PAX@std@@YAPAPAXIPAPAX@Z 100208f0 f i SocketServer.obj
 0001:0001f980       ??$_Allocate@U?$_Tree_node@U?$pair@$$CBV?$basic_string@DU?$char_traits@D@std@@V?$allocator@D@2@@std@@PAP6AHV12@PAX@Z@std@@PAX@std@@@std@@YAPAU?$_Tree_node@U?$pair@$$CBV?$basic_string@DU?$char_traits@D@std@@V?$allocator@D@2@@std@@PAP6AHV12@PAX@Z@std@@PAX@0@IPAU10@@Z 10020980 f i SocketServer.obj
 0001:0001fa10       ??$_Allocate@U?$_Tree_node@U?$pair@$$CBV?$basic_string@DU?$char_traits@D@std@@V?$allocator@D@2@@std@@PAUcanal_data@@@std@@PAX@std@@@std@@YAPAU?$_Tree_node@U?$pair@$$CBV?$basic_string@DU?$char_traits@D@std@@V?$allocator@D@2@@std@@PAUcanal_data@@@std@@PAX@0@IPAU10@@Z 10020a10 f i SocketServer.obj
 0001:0001faa0       ??$_Allocate@U?$_Tree_node@U?$pair@$$CBV?$basic_string@DU?$char_traits@D@std@@V?$allocator@D@2@@std@@PAUcanal_socket_data@@@std@@PAX@std@@@std@@YAPAU?$_Tree_node@U?$pair@$$CBV?$basic_string@DU?$char_traits@D@std@@V?$allocator@D@2@@std@@PAUcanal_socket_data@@@std@@PAX@0@IPAU10@@Z 10020aa0 f i SocketServer.obj
 0001:0001fb30       ??$_Buynode@U?$pair@V?$basic_string@DU?$char_traits@D@std@@V?$allocator@D@2@@std@@PAP6AHV12@PAX@Z@std@@@?$_Tree_buy@U?$pair@$$CBV?$basic_string@DU?$char_traits@D@std@@V?$allocator@D@2@@std@@PAP6AHV12@PAX@Z@std@@V?$allocator@U?$pair@$$CBV?$basic_string@DU?$char_traits@D@std@@V?$allocator@D@2@@std@@PAP6AHV12@PAX@Z@std@@@2@@std@@QAEPAU?$_Tree_node@U?$pair@$$CBV?$basic_string@DU?$char_traits@D@std@@V?$allocator@D@2@@std@@PAP6AHV12@PAX@Z@std@@PAX@1@$$QAU?$pair@V?$basic_string@DU?$char_traits@D@std@@V?$allocator@D@2@@std@@PAP6AHV12@PAX@Z@1@@Z 10020b30 f i SocketServer.obj
 0001:0001fca0       ??$_Buynode@U?$pair@V?$basic_string@DU?$char_traits@D@std@@V?$allocator@D@2@@std@@PAUcanal_data@@@std@@@?$_Tree_buy@U?$pair@$$CBV?$basic_string@DU?$char_traits@D@std@@V?$allocator@D@2@@std@@PAUcanal_data@@@std@@V?$allocator@U?$pair@$$CBV?$basic_string@DU?$char_traits@D@std@@V?$allocator@D@2@@std@@PAUcanal_data@@@std@@@2@@std@@QAEPAU?$_Tree_node@U?$pair@$$CBV?$basic_string@DU?$char_traits@D@std@@V?$allocator@D@2@@std@@PAUcanal_data@@@std@@PAX@1@$$QAU?$pair@V?$basic_string@DU?$char_traits@D@std@@V?$allocator@D@2@@std@@PAUcanal_data@@@1@@Z 10020ca0 f i SocketServer.obj
 0001:0001fe10       ??$_Buynode@U?$pair@V?$basic_string@DU?$char_traits@D@std@@V?$allocator@D@2@@std@@PAUcanal_socket_data@@@std@@@?$_Tree_buy@U?$pair@$$CBV?$basic_string@DU?$char_traits@D@std@@V?$allocator@D@2@@std@@PAUcanal_socket_data@@@std@@V?$allocator@U?$pair@$$CBV?$basic_string@DU?$char_traits@D@std@@V?$allocator@D@2@@std@@PAUcanal_socket_data@@@std@@@2@@std@@QAEPAU?$_Tree_node@U?$pair@$$CBV?$basic_string@DU?$char_traits@D@std@@V?$allocator@D@2@@std@@PAUcanal_socket_data@@@std@@PAX@1@$$QAU?$pair@V?$basic_string@DU?$char_traits@D@std@@V?$allocator@D@2@@std@@PAUcanal_socket_data@@@1@@Z 10020e10 f i SocketServer.obj
 0001:0001ff80       ??$_Buynode_if_nil@AAU?$pair@$$CBV?$basic_string@DU?$char_traits@D@std@@V?$allocator@D@2@@std@@PAP6AHV12@PAX@Z@std@@@?$_Tree@V?$_Tmap_traits@V?$basic_string@DU?$char_traits@D@std@@V?$allocator@D@2@@std@@PAP6AHV12@PAX@ZU?$less@V?$basic_string@DU?$char_traits@D@std@@V?$allocator@D@2@@std@@@2@V?$allocator@U?$pair@$$CBV?$basic_string@DU?$char_traits@D@std@@V?$allocator@D@2@@std@@PAP6AHV12@PAX@Z@std@@@2@$0A@@std@@@std@@IAEPAU?$_Tree_node@U?$pair@$$CBV?$basic_string@DU?$char_traits@D@std@@V?$allocator@D@2@@std@@PAP6AHV12@PAX@Z@std@@PAX@1@PAU21@AAU?$pair@$$CBV?$basic_string@DU?$char_traits@D@std@@V?$allocator@D@2@@std@@PAP6AHV12@PAX@Z@1@@Z 10020f80 f i SocketServer.obj
 0001:0001ffc0       ??$_Buynode_if_nil@AAU?$pair@$$CBV?$basic_string@DU?$char_traits@D@std@@V?$allocator@D@2@@std@@PAUcanal_data@@@std@@@?$_Tree@V?$_Tmap_traits@V?$basic_string@DU?$char_traits@D@std@@V?$allocator@D@2@@std@@PAUcanal_data@@U?$less@V?$basic_string@DU?$char_traits@D@std@@V?$allocator@D@2@@std@@@2@V?$allocator@U?$pair@$$CBV?$basic_string@DU?$char_traits@D@std@@V?$allocator@D@2@@std@@PAUcanal_data@@@std@@@2@$0A@@std@@@std@@IAEPAU?$_Tree_node@U?$pair@$$CBV?$basic_string@DU?$char_traits@D@std@@V?$allocator@D@2@@std@@PAUcanal_data@@@std@@PAX@1@PAU21@AAU?$pair@$$CBV?$basic_string@DU?$char_traits@D@std@@V?$allocator@D@2@@std@@PAUcanal_data@@@1@@Z 10020fc0 f i SocketServer.obj
 0001:00020000       ??$_Buynode_if_nil@AAU?$pair@$$CBV?$basic_string@DU?$char_traits@D@std@@V?$allocator@D@2@@std@@PAUcanal_socket_data@@@std@@@?$_Tree@V?$_Tmap_traits@V?$basic_string@DU?$char_traits@D@std@@V?$allocator@D@2@@std@@PAUcanal_socket_data@@U?$less@V?$basic_string@DU?$char_traits@D@std@@V?$allocator@D@2@@std@@@2@V?$allocator@U?$pair@$$CBV?$basic_string@DU?$char_traits@D@std@@V?$allocator@D@2@@std@@PAUcanal_socket_data@@@std@@@2@$0A@@std@@@std@@IAEPAU?$_Tree_node@U?$pair@$$CBV?$basic_string@DU?$char_traits@D@std@@V?$allocator@D@2@@std@@PAUcanal_socket_data@@@std@@PAX@1@PAU21@AAU?$pair@$$CBV?$basic_string@DU?$char_traits@D@std@@V?$allocator@D@2@@std@@PAUcanal_socket_data@@@1@@Z 10021000 f i SocketServer.obj
 0001:00020040       ??$_Debug_pointer@PAX@std@@YAXPAPAXPB_WI@Z 10021040 f i SocketServer.obj
 0001:000200a0       ??$_Debug_range2@PAPAX@std@@YAXPAPAX0PB_WIUrandom_access_iterator_tag@0@@Z 100210a0 f i SocketServer.obj
 0001:00020140       ??$_Debug_range@PAPAX@std@@YAXPAPAX0PB_WI@Z 10021140 f i SocketServer.obj
 0001:000201c0       ??$_Destroy_range@U?$_Wrap_alloc@V?$allocator@PAX@std@@@std@@@std@@YAXPAPAX0AAU?$_Wrap_alloc@V?$allocator@PAX@std@@@0@@Z 100211c0 f i SocketServer.obj
 0001:00020240       ??$_Destroy_range@U?$_Wrap_alloc@V?$allocator@PAX@std@@@std@@@std@@YAXPAPAX0AAU?$_Wrap_alloc@V?$allocator@PAX@std@@@0@U_Scalar_ptr_iterator_tag@0@@Z 10021240 f i SocketServer.obj
 0001:00020270       ??$_Distance2@V?$_Tree_iterator@V?$_Tree_val@U?$_Tree_simple_types@U?$pair@$$CBV?$basic_string@DU?$char_traits@D@std@@V?$allocator@D@2@@std@@PAP6AHV12@PAX@Z@std@@@std@@@std@@@std@@I@std@@YAXV?$_Tree_iterator@V?$_Tree_val@U?$_Tree_simple_types@U?$pair@$$CBV?$basic_string@DU?$char_traits@D@std@@V?$allocator@D@2@@std@@PAP6AHV12@PAX@Z@std@@@std@@@std@@@0@0AAIUbidirectional_iterator_tag@0@@Z 10021270 f i SocketServer.obj
 0001:00020350       ??$_Distance2@V?$_Tree_iterator@V?$_Tree_val@U?$_Tree_simple_types@U?$pair@$$CBV?$basic_string@DU?$char_traits@D@std@@V?$allocator@D@2@@std@@PAUcanal_socket_data@@@std@@@std@@@std@@@std@@I@std@@YAXV?$_Tree_iterator@V?$_Tree_val@U?$_Tree_simple_types@U?$pair@$$CBV?$basic_string@DU?$char_traits@D@std@@V?$allocator@D@2@@std@@PAUcanal_socket_data@@@std@@@std@@@std@@@0@0AAIUbidirectional_iterator_tag@0@@Z 10021350 f i SocketServer.obj
 0001:00020430       ??$_Distance@V?$_Tree_iterator@V?$_Tree_val@U?$_Tree_simple_types@U?$pair@$$CBV?$basic_string@DU?$char_traits@D@std@@V?$allocator@D@2@@std@@PAP6AHV12@PAX@Z@std@@@std@@@std@@@std@@I@std@@YAXV?$_Tree_iterator@V?$_Tree_val@U?$_Tree_simple_types@U?$pair@$$CBV?$basic_string@DU?$char_traits@D@std@@V?$allocator@D@2@@std@@PAP6AHV12@PAX@Z@std@@@std@@@std@@@0@0AAI@Z 10021430 f i SocketServer.obj
 0001:00020560       ??$_Distance@V?$_Tree_iterator@V?$_Tree_val@U?$_Tree_simple_types@U?$pair@$$CBV?$basic_string@DU?$char_traits@D@std@@V?$allocator@D@2@@std@@PAUcanal_socket_data@@@std@@@std@@@std@@@std@@I@std@@YAXV?$_Tree_iterator@V?$_Tree_val@U?$_Tree_simple_types@U?$pair@$$CBV?$basic_string@DU?$char_traits@D@std@@V?$allocator@D@2@@std@@PAUcanal_socket_data@@@std@@@std@@@std@@@0@0AAI@Z 10021560 f i SocketServer.obj
 0001:00020690       ??$_Insert_at@AAU?$pair@$$CBV?$basic_string@DU?$char_traits@D@std@@V?$allocator@D@2@@std@@PAP6AHV12@PAX@Z@std@@PAU?$_Tree_node@U?$pair@$$CBV?$basic_string@DU?$char_traits@D@std@@V?$allocator@D@2@@std@@PAP6AHV12@PAX@Z@std@@PAX@2@@?$_Tree@V?$_Tmap_traits@V?$basic_string@DU?$char_traits@D@std@@V?$allocator@D@2@@std@@PAP6AHV12@PAX@ZU?$less@V?$basic_string@DU?$char_traits@D@std@@V?$allocator@D@2@@std@@@2@V?$allocator@U?$pair@$$CBV?$basic_string@DU?$char_traits@D@std@@V?$allocator@D@2@@std@@PAP6AHV12@PAX@Z@std@@@2@$0A@@std@@@std@@IAE?AV?$_Tree_iterator@V?$_Tree_val@U?$_Tree_simple_types@U?$pair@$$CBV?$basic_string@DU?$char_traits@D@std@@V?$allocator@D@2@@std@@PAP6AHV12@PAX@Z@std@@@std@@@std@@@1@_NPAU?$_Tree_node@U?$pair@$$CBV?$basic_string@DU?$char_traits@D@std@@V?$allocator@D@2@@std@@PAP6AHV12@PAX@Z@std@@PAX@1@AAU?$pair@$$CBV?$basic_string@DU?$char_traits@D@std@@V?$allocator@D@2@@std@@PAP6AHV12@PAX@Z@1@1@Z 10021690 f i SocketServer.obj
 0001:00020c10       ??$_Insert_at@AAU?$pair@$$CBV?$basic_string@DU?$char_traits@D@std@@V?$allocator@D@2@@std@@PAUcanal_data@@@std@@PAU?$_Tree_node@U?$pair@$$CBV?$basic_string@DU?$char_traits@D@std@@V?$allocator@D@2@@std@@PAUcanal_data@@@std@@PAX@2@@?$_Tree@V?$_Tmap_traits@V?$basic_string@DU?$char_traits@D@std@@V?$allocator@D@2@@std@@PAUcanal_data@@U?$less@V?$basic_string@DU?$char_traits@D@std@@V?$allocator@D@2@@std@@@2@V?$allocator@U?$pair@$$CBV?$basic_string@DU?$char_traits@D@std@@V?$allocator@D@2@@std@@PAUcanal_data@@@std@@@2@$0A@@std@@@std@@IAE?AV?$_Tree_iterator@V?$_Tree_val@U?$_Tree_simple_types@U?$pair@$$CBV?$basic_string@DU?$char_traits@D@std@@V?$allocator@D@2@@std@@PAUcanal_data@@@std@@@std@@@std@@@1@_NPAU?$_Tree_node@U?$pair@$$CBV?$basic_string@DU?$char_traits@D@std@@V?$allocator@D@2@@std@@PAUcanal_data@@@std@@PAX@1@AAU?$pair@$$CBV?$basic_string@DU?$char_traits@D@std@@V?$allocator@D@2@@std@@PAUcanal_data@@@1@1@Z 10021c10 f i SocketServer.obj
 0001:00021190       ??$_Insert_at@AAU?$pair@$$CBV?$basic_string@DU?$char_traits@D@std@@V?$allocator@D@2@@std@@PAUcanal_socket_data@@@std@@PAU?$_Tree_node@U?$pair@$$CBV?$basic_string@DU?$char_traits@D@std@@V?$allocator@D@2@@std@@PAUcanal_socket_data@@@std@@PAX@2@@?$_Tree@V?$_Tmap_traits@V?$basic_string@DU?$char_traits@D@std@@V?$allocator@D@2@@std@@PAUcanal_socket_data@@U?$less@V?$basic_string@DU?$char_traits@D@std@@V?$allocator@D@2@@std@@@2@V?$allocator@U?$pair@$$CBV?$basic_string@DU?$char_traits@D@std@@V?$allocator@D@2@@std@@PAUcanal_socket_data@@@std@@@2@$0A@@std@@@std@@IAE?AV?$_Tree_iterator@V?$_Tree_val@U?$_Tree_simple_types@U?$pair@$$CBV?$basic_string@DU?$char_traits@D@std@@V?$allocator@D@2@@std@@PAUcanal_socket_data@@@std@@@std@@@std@@@1@_NPAU?$_Tree_node@U?$pair@$$CBV?$basic_string@DU?$char_traits@D@std@@V?$allocator@D@2@@std@@PAUcanal_socket_data@@@std@@PAX@1@AAU?$pair@$$CBV?$basic_string@DU?$char_traits@D@std@@V?$allocator@D@2@@std@@PAUcanal_socket_data@@@1@1@Z 10022190 f i SocketServer.obj
 0001:00021710       ??$_Insert_hint@AAU?$pair@$$CBV?$basic_string@DU?$char_traits@D@std@@V?$allocator@D@2@@std@@PAP6AHV12@PAX@Z@std@@PAU?$_Tree_node@U?$pair@$$CBV?$basic_string@DU?$char_traits@D@std@@V?$allocator@D@2@@std@@PAP6AHV12@PAX@Z@std@@PAX@2@@?$_Tree@V?$_Tmap_traits@V?$basic_string@DU?$char_traits@D@std@@V?$allocator@D@2@@std@@PAP6AHV12@PAX@ZU?$less@V?$basic_string@DU?$char_traits@D@std@@V?$allocator@D@2@@std@@@2@V?$allocator@U?$pair@$$CBV?$basic_string@DU?$char_traits@D@std@@V?$allocator@D@2@@std@@PAP6AHV12@PAX@Z@std@@@2@$0A@@std@@@std@@IAE?AV?$_Tree_iterator@V?$_Tree_val@U?$_Tree_simple_types@U?$pair@$$CBV?$basic_string@DU?$char_traits@D@std@@V?$allocator@D@2@@std@@PAP6AHV12@PAX@Z@std@@@std@@@std@@@1@V?$_Tree_const_iterator@V?$_Tree_val@U?$_Tree_simple_types@U?$pair@$$CBV?$basic_string@DU?$char_traits@D@std@@V?$allocator@D@2@@std@@PAP6AHV12@PAX@Z@std@@@std@@@std@@@1@AAU?$pair@$$CBV?$basic_string@DU?$char_traits@D@std@@V?$allocator@D@2@@std@@PAP6AHV12@PAX@Z@1@PAU?$_Tree_node@U?$pair@$$CBV?$basic_string@DU?$char_traits@D@std@@V?$allocator@D@2@@std@@PAP6AHV12@PAX@Z@std@@PAX@1@@Z 10022710 f i SocketServer.obj
 0001:00022e60       ??$_Insert_hint@AAU?$pair@$$CBV?$basic_string@DU?$char_traits@D@std@@V?$allocator@D@2@@std@@PAUcanal_data@@@std@@PAU?$_Tree_node@U?$pair@$$CBV?$basic_string@DU?$char_traits@D@std@@V?$allocator@D@2@@std@@PAUcanal_data@@@std@@PAX@2@@?$_Tree@V?$_Tmap_traits@V?$basic_string@DU?$char_traits@D@std@@V?$allocator@D@2@@std@@PAUcanal_data@@U?$less@V?$basic_string@DU?$char_traits@D@std@@V?$allocator@D@2@@std@@@2@V?$allocator@U?$pair@$$CBV?$basic_string@DU?$char_traits@D@std@@V?$allocator@D@2@@std@@PAUcanal_data@@@std@@@2@$0A@@std@@@std@@IAE?AV?$_Tree_iterator@V?$_Tree_val@U?$_Tree_simple_types@U?$pair@$$CBV?$basic_string@DU?$char_traits@D@std@@V?$allocator@D@2@@std@@PAUcanal_data@@@std@@@std@@@std@@@1@V?$_Tree_const_iterator@V?$_Tree_val@U?$_Tree_simple_types@U?$pair@$$CBV?$basic_string@DU?$char_traits@D@std@@V?$allocator@D@2@@std@@PAUcanal_data@@@std@@@std@@@std@@@1@AAU?$pair@$$CBV?$basic_string@DU?$char_traits@D@std@@V?$allocator@D@2@@std@@PAUcanal_data@@@1@PAU?$_Tree_node@U?$pair@$$CBV?$basic_string@DU?$char_traits@D@std@@V?$allocator@D@2@@std@@PAUcanal_data@@@std@@PAX@1@@Z 10023e60 f i SocketServer.obj
 0001:000245b0       ??$_Insert_hint@AAU?$pair@$$CBV?$basic_string@DU?$char_traits@D@std@@V?$allocator@D@2@@std@@PAUcanal_socket_data@@@std@@PAU?$_Tree_node@U?$pair@$$CBV?$basic_string@DU?$char_traits@D@std@@V?$allocator@D@2@@std@@PAUcanal_socket_data@@@std@@PAX@2@@?$_Tree@V?$_Tmap_traits@V?$basic_string@DU?$char_traits@D@std@@V?$allocator@D@2@@std@@PAUcanal_socket_data@@U?$less@V?$basic_string@DU?$char_traits@D@std@@V?$allocator@D@2@@std@@@2@V?$allocator@U?$pair@$$CBV?$basic_string@DU?$char_traits@D@std@@V?$allocator@D@2@@std@@PAUcanal_socket_data@@@std@@@2@$0A@@std@@@std@@IAE?AV?$_Tree_iterator@V?$_Tree_val@U?$_Tree_simple_types@U?$pair@$$CBV?$basic_string@DU?$char_traits@D@std@@V?$allocator@D@2@@std@@PAUcanal_socket_data@@@std@@@std@@@std@@@1@V?$_Tree_const_iterator@V?$_Tree_val@U?$_Tree_simple_types@U?$pair@$$CBV?$basic_string@DU?$char_traits@D@std@@V?$allocator@D@2@@std@@PAUcanal_socket_data@@@std@@@std@@@std@@@1@AAU?$pair@$$CBV?$basic_string@DU?$char_traits@D@std@@V?$allocator@D@2@@std@@PAUcanal_socket_data@@@1@PAU?$_Tree_node@U?$pair@$$CBV?$basic_string@DU?$char_traits@D@std@@V?$allocator@D@2@@std@@PAUcanal_socket_data@@@std@@PAX@1@@Z 100255b0 f i SocketServer.obj
 0001:00025d00       ??$_Insert_nohint@AAU?$pair@$$CBV?$basic_string@DU?$char_traits@D@std@@V?$allocator@D@2@@std@@PAP6AHV12@PAX@Z@std@@PAU?$_Tree_node@U?$pair@$$CBV?$basic_string@DU?$char_traits@D@std@@V?$allocator@D@2@@std@@PAP6AHV12@PAX@Z@std@@PAX@2@@?$_Tree@V?$_Tmap_traits@V?$basic_string@DU?$char_traits@D@std@@V?$allocator@D@2@@std@@PAP6AHV12@PAX@ZU?$less@V?$basic_string@DU?$char_traits@D@std@@V?$allocator@D@2@@std@@@2@V?$allocator@U?$pair@$$CBV?$basic_string@DU?$char_traits@D@std@@V?$allocator@D@2@@std@@PAP6AHV12@PAX@Z@std@@@2@$0A@@std@@@std@@IAE?AU?$pair@V?$_Tree_iterator@V?$_Tree_val@U?$_Tree_simple_types@U?$pair@$$CBV?$basic_string@DU?$char_traits@D@std@@V?$allocator@D@2@@std@@PAP6AHV12@PAX@Z@std@@@std@@@std@@@std@@_N@1@_NAAU?$pair@$$CBV?$basic_string@DU?$char_traits@D@std@@V?$allocator@D@2@@std@@PAP6AHV12@PAX@Z@1@PAU?$_Tree_node@U?$pair@$$CBV?$basic_string@DU?$char_traits@D@std@@V?$allocator@D@2@@std@@PAP6AHV12@PAX@Z@std@@PAX@1@@Z 10026d00 f i SocketServer.obj
 0001:00026570       ??$_Insert_nohint@AAU?$pair@$$CBV?$basic_string@DU?$char_traits@D@std@@V?$allocator@D@2@@std@@PAUcanal_data@@@std@@PAU?$_Tree_node@U?$pair@$$CBV?$basic_string@DU?$char_traits@D@std@@V?$allocator@D@2@@std@@PAUcanal_data@@@std@@PAX@2@@?$_Tree@V?$_Tmap_traits@V?$basic_string@DU?$char_traits@D@std@@V?$allocator@D@2@@std@@PAUcanal_data@@U?$less@V?$basic_string@DU?$char_traits@D@std@@V?$allocator@D@2@@std@@@2@V?$allocator@U?$pair@$$CBV?$basic_string@DU?$char_traits@D@std@@V?$allocator@D@2@@std@@PAUcanal_data@@@std@@@2@$0A@@std@@@std@@IAE?AU?$pair@V?$_Tree_iterator@V?$_Tree_val@U?$_Tree_simple_types@U?$pair@$$CBV?$basic_string@DU?$char_traits@D@std@@V?$allocator@D@2@@std@@PAUcanal_data@@@std@@@std@@@std@@@std@@_N@1@_NAAU?$pair@$$CBV?$basic_string@DU?$char_traits@D@std@@V?$allocator@D@2@@std@@PAUcanal_data@@@1@PAU?$_Tree_node@U?$pair@$$CBV?$basic_string@DU?$char_traits@D@std@@V?$allocator@D@2@@std@@PAUcanal_data@@@std@@PAX@1@@Z 10027570 f i SocketServer.obj
 0001:00026de0       ??$_Insert_nohint@AAU?$pair@$$CBV?$basic_string@DU?$char_traits@D@std@@V?$allocator@D@2@@std@@PAUcanal_socket_data@@@std@@PAU?$_Tree_node@U?$pair@$$CBV?$basic_string@DU?$char_traits@D@std@@V?$allocator@D@2@@std@@PAUcanal_socket_data@@@std@@PAX@2@@?$_Tree@V?$_Tmap_traits@V?$basic_string@DU?$char_traits@D@std@@V?$allocator@D@2@@std@@PAUcanal_socket_data@@U?$less@V?$basic_string@DU?$char_traits@D@std@@V?$allocator@D@2@@std@@@2@V?$allocator@U?$pair@$$CBV?$basic_string@DU?$char_traits@D@std@@V?$allocator@D@2@@std@@PAUcanal_socket_data@@@std@@@2@$0A@@std@@@std@@IAE?AU?$pair@V?$_Tree_iterator@V?$_Tree_val@U?$_Tree_simple_types@U?$pair@$$CBV?$basic_string@DU?$char_traits@D@std@@V?$allocator@D@2@@std@@PAUcanal_socket_data@@@std@@@std@@@std@@@std@@_N@1@_NAAU?$pair@$$CBV?$basic_string@DU?$char_traits@D@std@@V?$allocator@D@2@@std@@PAUcanal_socket_data@@@1@PAU?$_Tree_node@U?$pair@$$CBV?$basic_string@DU?$char_traits@D@std@@V?$allocator@D@2@@std@@PAUcanal_socket_data@@@std@@PAX@1@@Z 10027de0 f i SocketServer.obj
 0001:00027650       ??$_Iter_cat@PAPAX@std@@YA?AUrandom_access_iterator_tag@0@ABQAPAX@Z 10028650 f i SocketServer.obj
 0001:000276d0       ??$_Iter_cat@V?$_Tree_iterator@V?$_Tree_val@U?$_Tree_simple_types@U?$pair@$$CBV?$basic_string@DU?$char_traits@D@std@@V?$allocator@D@2@@std@@PAP6AHV12@PAX@Z@std@@@std@@@std@@@std@@@std@@YA?AUbidirectional_iterator_tag@0@ABV?$_Tree_iterator@V?$_Tree_val@U?$_Tree_simple_types@U?$pair@$$CBV?$basic_string@DU?$char_traits@D@std@@V?$allocator@D@2@@std@@PAP6AHV12@PAX@Z@std@@@std@@@std@@@0@@Z 100286d0 f i SocketServer.obj
 0001:00027750       ??$_Iter_cat@V?$_Tree_iterator@V?$_Tree_val@U?$_Tree_simple_types@U?$pair@$$CBV?$basic_string@DU?$char_traits@D@std@@V?$allocator@D@2@@std@@PAUcanal_socket_data@@@std@@@std@@@std@@@std@@@std@@YA?AUbidirectional_iterator_tag@0@ABV?$_Tree_iterator@V?$_Tree_val@U?$_Tree_simple_types@U?$pair@$$CBV?$basic_string@DU?$char_traits@D@std@@V?$allocator@D@2@@std@@PAUcanal_socket_data@@@std@@@std@@@std@@@0@@Z 10028750 f i SocketServer.obj
 0001:000277d0       ??$_Kfn@$$CBV?$basic_string@DU?$char_traits@D@std@@V?$allocator@D@2@@std@@PAP6AHV12@PAX@Z@?$_Tmap_traits@V?$basic_string@DU?$char_traits@D@std@@V?$allocator@D@2@@std@@PAP6AHV12@PAX@ZU?$less@V?$basic_string@DU?$char_traits@D@std@@V?$allocator@D@2@@std@@@2@V?$allocator@U?$pair@$$CBV?$basic_string@DU?$char_traits@D@std@@V?$allocator@D@2@@std@@PAP6AHV12@PAX@Z@std@@@2@$0A@@std@@SAABV?$basic_string@DU?$char_traits@D@std@@V?$allocator@D@2@@1@ABU?$pair@$$CBV?$basic_string@DU?$char_traits@D@std@@V?$allocator@D@2@@std@@PAP6AHV12@PAX@Z@1@@Z 100287d0 f i SocketServer.obj
 0001:00027810       ??$_Kfn@$$CBV?$basic_string@DU?$char_traits@D@std@@V?$allocator@D@2@@std@@PAUcanal_data@@@?$_Tmap_traits@V?$basic_string@DU?$char_traits@D@std@@V?$allocator@D@2@@std@@PAUcanal_data@@U?$less@V?$basic_string@DU?$char_traits@D@std@@V?$allocator@D@2@@std@@@2@V?$allocator@U?$pair@$$CBV?$basic_string@DU?$char_traits@D@std@@V?$allocator@D@2@@std@@PAUcanal_data@@@std@@@2@$0A@@std@@SAABV?$basic_string@DU?$char_traits@D@std@@V?$allocator@D@2@@1@ABU?$pair@$$CBV?$basic_string@DU?$char_traits@D@std@@V?$allocator@D@2@@std@@PAUcanal_data@@@1@@Z 10028810 f i SocketServer.obj
 0001:00027850       ??$_Kfn@$$CBV?$basic_string@DU?$char_traits@D@std@@V?$allocator@D@2@@std@@PAUcanal_socket_data@@@?$_Tmap_traits@V?$basic_string@DU?$char_traits@D@std@@V?$allocator@D@2@@std@@PAUcanal_socket_data@@U?$less@V?$basic_string@DU?$char_traits@D@std@@V?$allocator@D@2@@std@@@2@V?$allocator@U?$pair@$$CBV?$basic_string@DU?$char_traits@D@std@@V?$allocator@D@2@@std@@PAUcanal_socket_data@@@std@@@2@$0A@@std@@SAABV?$basic_string@DU?$char_traits@D@std@@V?$allocator@D@2@@1@ABU?$pair@$$CBV?$basic_string@DU?$char_traits@D@std@@V?$allocator@D@2@@std@@PAUcanal_socket_data@@@1@@Z 10028850 f i SocketServer.obj
 0001:00027890       ??$_Ptr_cat@PAXPAX@std@@YA?AU_Scalar_ptr_iterator_tag@0@PAPAX0@Z 10028890 f i SocketServer.obj
 0001:00027900       ??$_Umove@PAPAX@?$vector@PAXV?$allocator@PAX@std@@@std@@IAEPAPAXPAPAX00@Z 10028900 f i SocketServer.obj
 0001:000279b0       ??$_Uninit_move@PAXPAXPAX@std@@YAPAPAXPAPAX00AAU?$_Wrap_alloc@V?$allocator@PAX@std@@@0@0U_Scalar_ptr_iterator_tag@0@@Z 100289b0 f i SocketServer.obj
 0001:00027a60       ??$_Uninitialized_move@PAPAXPAPAXU?$_Wrap_alloc@V?$allocator@PAX@std@@@std@@@std@@YAPAPAXPAPAX00AAU?$_Wrap_alloc@V?$allocator@PAX@std@@@0@@Z 10028a60 f i SocketServer.obj
 0001:00027b00       ??$_Val_type@PAPAX@std@@YAPAPAXPAPAX@Z 10028b00 f i SocketServer.obj
 0001:00027b30       ??$addressof@PAU?$_Tree_node@U?$pair@$$CBV?$basic_string@DU?$char_traits@D@std@@V?$allocator@D@2@@std@@PAP6AHV12@PAX@Z@std@@PAX@std@@@std@@YAPAPAU?$_Tree_node@U?$pair@$$CBV?$basic_string@DU?$char_traits@D@std@@V?$allocator@D@2@@std@@PAP6AHV12@PAX@Z@std@@PAX@0@AAPAU10@@Z 10028b30 f i SocketServer.obj
 0001:00027b70       ??$addressof@PAU?$_Tree_node@U?$pair@$$CBV?$basic_string@DU?$char_traits@D@std@@V?$allocator@D@2@@std@@PAUcanal_data@@@std@@PAX@std@@@std@@YAPAPAU?$_Tree_node@U?$pair@$$CBV?$basic_string@DU?$char_traits@D@std@@V?$allocator@D@2@@std@@PAUcanal_data@@@std@@PAX@0@AAPAU10@@Z 10028b70 f i SocketServer.obj
 0001:00027bb0       ??$addressof@PAU?$_Tree_node@U?$pair@$$CBV?$basic_string@DU?$char_traits@D@std@@V?$allocator@D@2@@std@@PAUcanal_socket_data@@@std@@PAX@std@@@std@@YAPAPAU?$_Tree_node@U?$pair@$$CBV?$basic_string@DU?$char_traits@D@std@@V?$allocator@D@2@@std@@PAUcanal_socket_data@@@std@@PAX@0@AAPAU10@@Z 10028bb0 f i SocketServer.obj
 0001:00027bf0       ??$addressof@PAX@std@@YAPAPAXAAPAX@Z 10028bf0 f i SocketServer.obj
 0001:00027c30       ??$addressof@U?$pair@$$CBV?$basic_string@DU?$char_traits@D@std@@V?$allocator@D@2@@std@@PAP6AHV12@PAX@Z@std@@@std@@YAPAU?$pair@$$CBV?$basic_string@DU?$char_traits@D@std@@V?$allocator@D@2@@std@@PAP6AHV12@PAX@Z@0@AAU10@@Z 10028c30 f i SocketServer.obj
 0001:00027c70       ??$addressof@U?$pair@$$CBV?$basic_string@DU?$char_traits@D@std@@V?$allocator@D@2@@std@@PAUcanal_data@@@std@@@std@@YAPAU?$pair@$$CBV?$basic_string@DU?$char_traits@D@std@@V?$allocator@D@2@@std@@PAUcanal_data@@@0@AAU10@@Z 10028c70 f i SocketServer.obj
 0001:00027cb0       ??$addressof@U?$pair@$$CBV?$basic_string@DU?$char_traits@D@std@@V?$allocator@D@2@@std@@PAUcanal_socket_data@@@std@@@std@@YAPAU?$pair@$$CBV?$basic_string@DU?$char_traits@D@std@@V?$allocator@D@2@@std@@PAUcanal_socket_data@@@0@AAU10@@Z 10028cb0 f i SocketServer.obj
 0001:00027cf0       ??$construct@PAU?$_Tree_node@U?$pair@$$CBV?$basic_string@DU?$char_traits@D@std@@V?$allocator@D@2@@std@@PAP6AHV12@PAX@Z@std@@PAX@std@@AAPAU12@@?$_Wrap_alloc@V?$allocator@U?$_Tree_node@U?$pair@$$CBV?$basic_string@DU?$char_traits@D@std@@V?$allocator@D@2@@std@@PAP6AHV12@PAX@Z@std@@PAX@std@@@std@@@std@@QAEXPAPAU?$_Tree_node@U?$pair@$$CBV?$basic_string@DU?$char_traits@D@std@@V?$allocator@D@2@@std@@PAP6AHV12@PAX@Z@std@@PAX@1@AAPAU21@@Z 10028cf0 f i SocketServer.obj
 0001:00027d60       ??$construct@PAU?$_Tree_node@U?$pair@$$CBV?$basic_string@DU?$char_traits@D@std@@V?$allocator@D@2@@std@@PAP6AHV12@PAX@Z@std@@PAX@std@@AAPAU12@@?$allocator@U?$_Tree_node@U?$pair@$$CBV?$basic_string@DU?$char_traits@D@std@@V?$allocator@D@2@@std@@PAP6AHV12@PAX@Z@std@@PAX@std@@@std@@QAEXPAPAU?$_Tree_node@U?$pair@$$CBV?$basic_string@DU?$char_traits@D@std@@V?$allocator@D@2@@std@@PAP6AHV12@PAX@Z@std@@PAX@1@AAPAU21@@Z 10028d60 f i SocketServer.obj
 0001:00027e60       ??$construct@PAU?$_Tree_node@U?$pair@$$CBV?$basic_string@DU?$char_traits@D@std@@V?$allocator@D@2@@std@@PAP6AHV12@PAX@Z@std@@PAX@std@@AAPAU12@@?$allocator_traits@V?$allocator@U?$_Tree_node@U?$pair@$$CBV?$basic_string@DU?$char_traits@D@std@@V?$allocator@D@2@@std@@PAP6AHV12@PAX@Z@std@@PAX@std@@@std@@@std@@SAXAAV?$allocator@U?$_Tree_node@U?$pair@$$CBV?$basic_string@DU?$char_traits@D@std@@V?$allocator@D@2@@std@@PAP6AHV12@PAX@Z@std@@PAX@std@@@1@PAPAU?$_Tree_node@U?$pair@$$CBV?$basic_string@DU?$char_traits@D@std@@V?$allocator@D@2@@std@@PAP6AHV12@PAX@Z@std@@PAX@1@AAPAU31@@Z 10028e60 f i SocketServer.obj
 0001:00027ec0       ??$construct@PAU?$_Tree_node@U?$pair@$$CBV?$basic_string@DU?$char_traits@D@std@@V?$allocator@D@2@@std@@PAUcanal_data@@@std@@PAX@std@@AAPAU12@@?$_Wrap_alloc@V?$allocator@U?$_Tree_node@U?$pair@$$CBV?$basic_string@DU?$char_traits@D@std@@V?$allocator@D@2@@std@@PAUcanal_data@@@std@@PAX@std@@@std@@@std@@QAEXPAPAU?$_Tree_node@U?$pair@$$CBV?$basic_string@DU?$char_traits@D@std@@V?$allocator@D@2@@std@@PAUcanal_data@@@std@@PAX@1@AAPAU21@@Z 10028ec0 f i SocketServer.obj
 0001:00027f30       ??$construct@PAU?$_Tree_node@U?$pair@$$CBV?$basic_string@DU?$char_traits@D@std@@V?$allocator@D@2@@std@@PAUcanal_data@@@std@@PAX@std@@AAPAU12@@?$allocator@U?$_Tree_node@U?$pair@$$CBV?$basic_string@DU?$char_traits@D@std@@V?$allocator@D@2@@std@@PAUcanal_data@@@std@@PAX@std@@@std@@QAEXPAPAU?$_Tree_node@U?$pair@$$CBV?$basic_string@DU?$char_traits@D@std@@V?$allocator@D@2@@std@@PAUcanal_data@@@std@@PAX@1@AAPAU21@@Z 10028f30 f i SocketServer.obj
 0001:00028030       ??$construct@PAU?$_Tree_node@U?$pair@$$CBV?$basic_string@DU?$char_traits@D@std@@V?$allocator@D@2@@std@@PAUcanal_data@@@std@@PAX@std@@AAPAU12@@?$allocator_traits@V?$allocator@U?$_Tree_node@U?$pair@$$CBV?$basic_string@DU?$char_traits@D@std@@V?$allocator@D@2@@std@@PAUcanal_data@@@std@@PAX@std@@@std@@@std@@SAXAAV?$allocator@U?$_Tree_node@U?$pair@$$CBV?$basic_string@DU?$char_traits@D@std@@V?$allocator@D@2@@std@@PAUcanal_data@@@std@@PAX@std@@@1@PAPAU?$_Tree_node@U?$pair@$$CBV?$basic_string@DU?$char_traits@D@std@@V?$allocator@D@2@@std@@PAUcanal_data@@@std@@PAX@1@AAPAU31@@Z 10029030 f i SocketServer.obj
 0001:00028090       ??$construct@PAU?$_Tree_node@U?$pair@$$CBV?$basic_string@DU?$char_traits@D@std@@V?$allocator@D@2@@std@@PAUcanal_socket_data@@@std@@PAX@std@@AAPAU12@@?$_Wrap_alloc@V?$allocator@U?$_Tree_node@U?$pair@$$CBV?$basic_string@DU?$char_traits@D@std@@V?$allocator@D@2@@std@@PAUcanal_socket_data@@@std@@PAX@std@@@std@@@std@@QAEXPAPAU?$_Tree_node@U?$pair@$$CBV?$basic_string@DU?$char_traits@D@std@@V?$allocator@D@2@@std@@PAUcanal_socket_data@@@std@@PAX@1@AAPAU21@@Z 10029090 f i SocketServer.obj
 0001:00028100       ??$construct@PAU?$_Tree_node@U?$pair@$$CBV?$basic_string@DU?$char_traits@D@std@@V?$allocator@D@2@@std@@PAUcanal_socket_data@@@std@@PAX@std@@AAPAU12@@?$allocator@U?$_Tree_node@U?$pair@$$CBV?$basic_string@DU?$char_traits@D@std@@V?$allocator@D@2@@std@@PAUcanal_socket_data@@@std@@PAX@std@@@std@@QAEXPAPAU?$_Tree_node@U?$pair@$$CBV?$basic_string@DU?$char_traits@D@std@@V?$allocator@D@2@@std@@PAUcanal_socket_data@@@std@@PAX@1@AAPAU21@@Z 10029100 f i SocketServer.obj
 0001:00028200       ??$construct@PAU?$_Tree_node@U?$pair@$$CBV?$basic_string@DU?$char_traits@D@std@@V?$allocator@D@2@@std@@PAUcanal_socket_data@@@std@@PAX@std@@AAPAU12@@?$allocator_traits@V?$allocator@U?$_Tree_node@U?$pair@$$CBV?$basic_string@DU?$char_traits@D@std@@V?$allocator@D@2@@std@@PAUcanal_socket_data@@@std@@PAX@std@@@std@@@std@@SAXAAV?$allocator@U?$_Tree_node@U?$pair@$$CBV?$basic_string@DU?$char_traits@D@std@@V?$allocator@D@2@@std@@PAUcanal_socket_data@@@std@@PAX@std@@@1@PAPAU?$_Tree_node@U?$pair@$$CBV?$basic_string@DU?$char_traits@D@std@@V?$allocator@D@2@@std@@PAUcanal_socket_data@@@std@@PAX@1@AAPAU31@@Z 10029200 f i SocketServer.obj
 0001:00028260       ??$construct@PAXPAX@?$_Wrap_alloc@V?$allocator@PAX@std@@@std@@QAEXPAPAX$$QAPAX@Z 10029260 f i SocketServer.obj
 0001:000282d0       ??$construct@PAXPAX@?$allocator@PAX@std@@QAEXPAPAX$$QAPAX@Z 100292d0 f i SocketServer.obj
 0001:000283d0       ??$construct@PAXPAX@?$allocator_traits@V?$allocator@PAX@std@@@std@@SAXAAV?$allocator@PAX@1@PAPAX$$QAPAX@Z 100293d0 f i SocketServer.obj
 0001:00028430       ??$construct@U?$pair@$$CBV?$basic_string@DU?$char_traits@D@std@@V?$allocator@D@2@@std@@PAP6AHV12@PAX@Z@std@@U?$pair@V?$basic_string@DU?$char_traits@D@std@@V?$allocator@D@2@@std@@PAP6AHV12@PAX@Z@2@@?$_Wrap_alloc@V?$allocator@U?$_Tree_node@U?$pair@$$CBV?$basic_string@DU?$char_traits@D@std@@V?$allocator@D@2@@std@@PAP6AHV12@PAX@Z@std@@PAX@std@@@std@@@std@@QAEXPAU?$pair@$$CBV?$basic_string@DU?$char_traits@D@std@@V?$allocator@D@2@@std@@PAP6AHV12@PAX@Z@1@$$QAU?$pair@V?$basic_string@DU?$char_traits@D@std@@V?$allocator@D@2@@std@@PAP6AHV12@PAX@Z@1@@Z 10029430 f i SocketServer.obj
 0001:000284a0       ??$construct@U?$pair@$$CBV?$basic_string@DU?$char_traits@D@std@@V?$allocator@D@2@@std@@PAP6AHV12@PAX@Z@std@@U?$pair@V?$basic_string@DU?$char_traits@D@std@@V?$allocator@D@2@@std@@PAP6AHV12@PAX@Z@2@@?$allocator@U?$_Tree_node@U?$pair@$$CBV?$basic_string@DU?$char_traits@D@std@@V?$allocator@D@2@@std@@PAP6AHV12@PAX@Z@std@@PAX@std@@@std@@QAEXPAU?$pair@$$CBV?$basic_string@DU?$char_traits@D@std@@V?$allocator@D@2@@std@@PAP6AHV12@PAX@Z@1@$$QAU?$pair@V?$basic_string@DU?$char_traits@D@std@@V?$allocator@D@2@@std@@PAP6AHV12@PAX@Z@1@@Z 100294a0 f i SocketServer.obj
 0001:000285a0       ??$construct@U?$pair@$$CBV?$basic_string@DU?$char_traits@D@std@@V?$allocator@D@2@@std@@PAP6AHV12@PAX@Z@std@@U?$pair@V?$basic_string@DU?$char_traits@D@std@@V?$allocator@D@2@@std@@PAP6AHV12@PAX@Z@2@@?$allocator_traits@V?$allocator@U?$_Tree_node@U?$pair@$$CBV?$basic_string@DU?$char_traits@D@std@@V?$allocator@D@2@@std@@PAP6AHV12@PAX@Z@std@@PAX@std@@@std@@@std@@SAXAAV?$allocator@U?$_Tree_node@U?$pair@$$CBV?$basic_string@DU?$char_traits@D@std@@V?$allocator@D@2@@std@@PAP6AHV12@PAX@Z@std@@PAX@std@@@1@PAU?$pair@$$CBV?$basic_string@DU?$char_traits@D@std@@V?$allocator@D@2@@std@@PAP6AHV12@PAX@Z@1@$$QAU?$pair@V?$basic_string@DU?$char_traits@D@std@@V?$allocator@D@2@@std@@PAP6AHV12@PAX@Z@1@@Z 100295a0 f i SocketServer.obj
 0001:00028600       ??$construct@U?$pair@$$CBV?$basic_string@DU?$char_traits@D@std@@V?$allocator@D@2@@std@@PAUcanal_data@@@std@@U?$pair@V?$basic_string@DU?$char_traits@D@std@@V?$allocator@D@2@@std@@PAUcanal_data@@@2@@?$_Wrap_alloc@V?$allocator@U?$_Tree_node@U?$pair@$$CBV?$basic_string@DU?$char_traits@D@std@@V?$allocator@D@2@@std@@PAUcanal_data@@@std@@PAX@std@@@std@@@std@@QAEXPAU?$pair@$$CBV?$basic_string@DU?$char_traits@D@std@@V?$allocator@D@2@@std@@PAUcanal_data@@@1@$$QAU?$pair@V?$basic_string@DU?$char_traits@D@std@@V?$allocator@D@2@@std@@PAUcanal_data@@@1@@Z 10029600 f i SocketServer.obj
 0001:00028670       ??$construct@U?$pair@$$CBV?$basic_string@DU?$char_traits@D@std@@V?$allocator@D@2@@std@@PAUcanal_data@@@std@@U?$pair@V?$basic_string@DU?$char_traits@D@std@@V?$allocator@D@2@@std@@PAUcanal_data@@@2@@?$allocator@U?$_Tree_node@U?$pair@$$CBV?$basic_string@DU?$char_traits@D@std@@V?$allocator@D@2@@std@@PAUcanal_data@@@std@@PAX@std@@@std@@QAEXPAU?$pair@$$CBV?$basic_string@DU?$char_traits@D@std@@V?$allocator@D@2@@std@@PAUcanal_data@@@1@$$QAU?$pair@V?$basic_string@DU?$char_traits@D@std@@V?$allocator@D@2@@std@@PAUcanal_data@@@1@@Z 10029670 f i SocketServer.obj
 0001:00028770       ??$construct@U?$pair@$$CBV?$basic_string@DU?$char_traits@D@std@@V?$allocator@D@2@@std@@PAUcanal_data@@@std@@U?$pair@V?$basic_string@DU?$char_traits@D@std@@V?$allocator@D@2@@std@@PAUcanal_data@@@2@@?$allocator_traits@V?$allocator@U?$_Tree_node@U?$pair@$$CBV?$basic_string@DU?$char_traits@D@std@@V?$allocator@D@2@@std@@PAUcanal_data@@@std@@PAX@std@@@std@@@std@@SAXAAV?$allocator@U?$_Tree_node@U?$pair@$$CBV?$basic_string@DU?$char_traits@D@std@@V?$allocator@D@2@@std@@PAUcanal_data@@@std@@PAX@std@@@1@PAU?$pair@$$CBV?$basic_string@DU?$char_traits@D@std@@V?$allocator@D@2@@std@@PAUcanal_data@@@1@$$QAU?$pair@V?$basic_string@DU?$char_traits@D@std@@V?$allocator@D@2@@std@@PAUcanal_data@@@1@@Z 10029770 f i SocketServer.obj
 0001:000287d0       ??$construct@U?$pair@$$CBV?$basic_string@DU?$char_traits@D@std@@V?$allocator@D@2@@std@@PAUcanal_socket_data@@@std@@U?$pair@V?$basic_string@DU?$char_traits@D@std@@V?$allocator@D@2@@std@@PAUcanal_socket_data@@@2@@?$_Wrap_alloc@V?$allocator@U?$_Tree_node@U?$pair@$$CBV?$basic_string@DU?$char_traits@D@std@@V?$allocator@D@2@@std@@PAUcanal_socket_data@@@std@@PAX@std@@@std@@@std@@QAEXPAU?$pair@$$CBV?$basic_string@DU?$char_traits@D@std@@V?$allocator@D@2@@std@@PAUcanal_socket_data@@@1@$$QAU?$pair@V?$basic_string@DU?$char_traits@D@std@@V?$allocator@D@2@@std@@PAUcanal_socket_data@@@1@@Z 100297d0 f i SocketServer.obj
 0001:00028840       ??$construct@U?$pair@$$CBV?$basic_string@DU?$char_traits@D@std@@V?$allocator@D@2@@std@@PAUcanal_socket_data@@@std@@U?$pair@V?$basic_string@DU?$char_traits@D@std@@V?$allocator@D@2@@std@@PAUcanal_socket_data@@@2@@?$allocator@U?$_Tree_node@U?$pair@$$CBV?$basic_string@DU?$char_traits@D@std@@V?$allocator@D@2@@std@@PAUcanal_socket_data@@@std@@PAX@std@@@std@@QAEXPAU?$pair@$$CBV?$basic_string@DU?$char_traits@D@std@@V?$allocator@D@2@@std@@PAUcanal_socket_data@@@1@$$QAU?$pair@V?$basic_string@DU?$char_traits@D@std@@V?$allocator@D@2@@std@@PAUcanal_socket_data@@@1@@Z 10029840 f i SocketServer.obj
 0001:00028940       ??$construct@U?$pair@$$CBV?$basic_string@DU?$char_traits@D@std@@V?$allocator@D@2@@std@@PAUcanal_socket_data@@@std@@U?$pair@V?$basic_string@DU?$char_traits@D@std@@V?$allocator@D@2@@std@@PAUcanal_socket_data@@@2@@?$allocator_traits@V?$allocator@U?$_Tree_node@U?$pair@$$CBV?$basic_string@DU?$char_traits@D@std@@V?$allocator@D@2@@std@@PAUcanal_socket_data@@@std@@PAX@std@@@std@@@std@@SAXAAV?$allocator@U?$_Tree_node@U?$pair@$$CBV?$basic_string@DU?$char_traits@D@std@@V?$allocator@D@2@@std@@PAUcanal_socket_data@@@std@@PAX@std@@@1@PAU?$pair@$$CBV?$basic_string@DU?$char_traits@D@std@@V?$allocator@D@2@@std@@PAUcanal_socket_data@@@1@$$QAU?$pair@V?$basic_string@DU?$char_traits@D@std@@V?$allocator@D@2@@std@@PAUcanal_socket_data@@@1@@Z 10029940 f i SocketServer.obj
 0001:000289a0       ??$destroy@PAU?$_Tree_node@U?$pair@$$CBV?$basic_string@DU?$char_traits@D@std@@V?$allocator@D@2@@std@@PAP6AHV12@PAX@Z@std@@PAX@std@@@?$_Wrap_alloc@V?$allocator@U?$_Tree_node@U?$pair@$$CBV?$basic_string@DU?$char_traits@D@std@@V?$allocator@D@2@@std@@PAP6AHV12@PAX@Z@std@@PAX@std@@@std@@@std@@QAEXPAPAU?$_Tree_node@U?$pair@$$CBV?$basic_string@DU?$char_traits@D@std@@V?$allocator@D@2@@std@@PAP6AHV12@PAX@Z@std@@PAX@1@@Z 100299a0 f i SocketServer.obj
 0001:00028a00       ??$destroy@PAU?$_Tree_node@U?$pair@$$CBV?$basic_string@DU?$char_traits@D@std@@V?$allocator@D@2@@std@@PAP6AHV12@PAX@Z@std@@PAX@std@@@?$allocator@U?$_Tree_node@U?$pair@$$CBV?$basic_string@DU?$char_traits@D@std@@V?$allocator@D@2@@std@@PAP6AHV12@PAX@Z@std@@PAX@std@@@std@@QAEXPAPAU?$_Tree_node@U?$pair@$$CBV?$basic_string@DU?$char_traits@D@std@@V?$allocator@D@2@@std@@PAP6AHV12@PAX@Z@std@@PAX@1@@Z 10029a00 f i SocketServer.obj
 0001:00028a40       ??$destroy@PAU?$_Tree_node@U?$pair@$$CBV?$basic_string@DU?$char_traits@D@std@@V?$allocator@D@2@@std@@PAP6AHV12@PAX@Z@std@@PAX@std@@@?$allocator_traits@V?$allocator@U?$_Tree_node@U?$pair@$$CBV?$basic_string@DU?$char_traits@D@std@@V?$allocator@D@2@@std@@PAP6AHV12@PAX@Z@std@@PAX@std@@@std@@@std@@SAXAAV?$allocator@U?$_Tree_node@U?$pair@$$CBV?$basic_string@DU?$char_traits@D@std@@V?$allocator@D@2@@std@@PAP6AHV12@PAX@Z@std@@PAX@std@@@1@PAPAU?$_Tree_node@U?$pair@$$CBV?$basic_string@DU?$char_traits@D@std@@V?$allocator@D@2@@std@@PAP6AHV12@PAX@Z@std@@PAX@1@@Z 10029a40 f i SocketServer.obj
 0001:00028a90       ??$destroy@PAU?$_Tree_node@U?$pair@$$CBV?$basic_string@DU?$char_traits@D@std@@V?$allocator@D@2@@std@@PAUcanal_data@@@std@@PAX@std@@@?$_Wrap_alloc@V?$allocator@U?$_Tree_node@U?$pair@$$CBV?$basic_string@DU?$char_traits@D@std@@V?$allocator@D@2@@std@@PAUcanal_data@@@std@@PAX@std@@@std@@@std@@QAEXPAPAU?$_Tree_node@U?$pair@$$CBV?$basic_string@DU?$char_traits@D@std@@V?$allocator@D@2@@std@@PAUcanal_data@@@std@@PAX@1@@Z 10029a90 f i SocketServer.obj
 0001:00028af0       ??$destroy@PAU?$_Tree_node@U?$pair@$$CBV?$basic_string@DU?$char_traits@D@std@@V?$allocator@D@2@@std@@PAUcanal_data@@@std@@PAX@std@@@?$allocator@U?$_Tree_node@U?$pair@$$CBV?$basic_string@DU?$char_traits@D@std@@V?$allocator@D@2@@std@@PAUcanal_data@@@std@@PAX@std@@@std@@QAEXPAPAU?$_Tree_node@U?$pair@$$CBV?$basic_string@DU?$char_traits@D@std@@V?$allocator@D@2@@std@@PAUcanal_data@@@std@@PAX@1@@Z 10029af0 f i SocketServer.obj
 0001:00028b30       ??$destroy@PAU?$_Tree_node@U?$pair@$$CBV?$basic_string@DU?$char_traits@D@std@@V?$allocator@D@2@@std@@PAUcanal_data@@@std@@PAX@std@@@?$allocator_traits@V?$allocator@U?$_Tree_node@U?$pair@$$CBV?$basic_string@DU?$char_traits@D@std@@V?$allocator@D@2@@std@@PAUcanal_data@@@std@@PAX@std@@@std@@@std@@SAXAAV?$allocator@U?$_Tree_node@U?$pair@$$CBV?$basic_string@DU?$char_traits@D@std@@V?$allocator@D@2@@std@@PAUcanal_data@@@std@@PAX@std@@@1@PAPAU?$_Tree_node@U?$pair@$$CBV?$basic_string@DU?$char_traits@D@std@@V?$allocator@D@2@@std@@PAUcanal_data@@@std@@PAX@1@@Z 10029b30 f i SocketServer.obj
 0001:00028b80       ??$destroy@PAU?$_Tree_node@U?$pair@$$CBV?$basic_string@DU?$char_traits@D@std@@V?$allocator@D@2@@std@@PAUcanal_socket_data@@@std@@PAX@std@@@?$_Wrap_alloc@V?$allocator@U?$_Tree_node@U?$pair@$$CBV?$basic_string@DU?$char_traits@D@std@@V?$allocator@D@2@@std@@PAUcanal_socket_data@@@std@@PAX@std@@@std@@@std@@QAEXPAPAU?$_Tree_node@U?$pair@$$CBV?$basic_string@DU?$char_traits@D@std@@V?$allocator@D@2@@std@@PAUcanal_socket_data@@@std@@PAX@1@@Z 10029b80 f i SocketServer.obj
 0001:00028be0       ??$destroy@PAU?$_Tree_node@U?$pair@$$CBV?$basic_string@DU?$char_traits@D@std@@V?$allocator@D@2@@std@@PAUcanal_socket_data@@@std@@PAX@std@@@?$allocator@U?$_Tree_node@U?$pair@$$CBV?$basic_string@DU?$char_traits@D@std@@V?$allocator@D@2@@std@@PAUcanal_socket_data@@@std@@PAX@std@@@std@@QAEXPAPAU?$_Tree_node@U?$pair@$$CBV?$basic_string@DU?$char_traits@D@std@@V?$allocator@D@2@@std@@PAUcanal_socket_data@@@std@@PAX@1@@Z 10029be0 f i SocketServer.obj
 0001:00028c20       ??$destroy@PAU?$_Tree_node@U?$pair@$$CBV?$basic_string@DU?$char_traits@D@std@@V?$allocator@D@2@@std@@PAUcanal_socket_data@@@std@@PAX@std@@@?$allocator_traits@V?$allocator@U?$_Tree_node@U?$pair@$$CBV?$basic_string@DU?$char_traits@D@std@@V?$allocator@D@2@@std@@PAUcanal_socket_data@@@std@@PAX@std@@@std@@@std@@SAXAAV?$allocator@U?$_Tree_node@U?$pair@$$CBV?$basic_string@DU?$char_traits@D@std@@V?$allocator@D@2@@std@@PAUcanal_socket_data@@@std@@PAX@std@@@1@PAPAU?$_Tree_node@U?$pair@$$CBV?$basic_string@DU?$char_traits@D@std@@V?$allocator@D@2@@std@@PAUcanal_socket_data@@@std@@PAX@1@@Z 10029c20 f i SocketServer.obj
 0001:00028c70       ??$destroy@U?$pair@$$CBV?$basic_string@DU?$char_traits@D@std@@V?$allocator@D@2@@std@@PAP6AHV12@PAX@Z@std@@@?$_Wrap_alloc@V?$allocator@U?$_Tree_node@U?$pair@$$CBV?$basic_string@DU?$char_traits@D@std@@V?$allocator@D@2@@std@@PAP6AHV12@PAX@Z@std@@PAX@std@@@std@@@std@@QAEXPAU?$pair@$$CBV?$basic_string@DU?$char_traits@D@std@@V?$allocator@D@2@@std@@PAP6AHV12@PAX@Z@1@@Z 10029c70 f i SocketServer.obj
 0001:00028cd0       ??$destroy@U?$pair@$$CBV?$basic_string@DU?$char_traits@D@std@@V?$allocator@D@2@@std@@PAP6AHV12@PAX@Z@std@@@?$allocator@U?$_Tree_node@U?$pair@$$CBV?$basic_string@DU?$char_traits@D@std@@V?$allocator@D@2@@std@@PAP6AHV12@PAX@Z@std@@PAX@std@@@std@@QAEXPAU?$pair@$$CBV?$basic_string@DU?$char_traits@D@std@@V?$allocator@D@2@@std@@PAP6AHV12@PAX@Z@1@@Z 10029cd0 f i SocketServer.obj
 0001:00028d30       ??$destroy@U?$pair@$$CBV?$basic_string@DU?$char_traits@D@std@@V?$allocator@D@2@@std@@PAP6AHV12@PAX@Z@std@@@?$allocator_traits@V?$allocator@U?$_Tree_node@U?$pair@$$CBV?$basic_string@DU?$char_traits@D@std@@V?$allocator@D@2@@std@@PAP6AHV12@PAX@Z@std@@PAX@std@@@std@@@std@@SAXAAV?$allocator@U?$_Tree_node@U?$pair@$$CBV?$basic_string@DU?$char_traits@D@std@@V?$allocator@D@2@@std@@PAP6AHV12@PAX@Z@std@@PAX@std@@@1@PAU?$pair@$$CBV?$basic_string@DU?$char_traits@D@std@@V?$allocator@D@2@@std@@PAP6AHV12@PAX@Z@1@@Z 10029d30 f i SocketServer.obj
 0001:00028d80       ??$destroy@U?$pair@$$CBV?$basic_string@DU?$char_traits@D@std@@V?$allocator@D@2@@std@@PAUcanal_data@@@std@@@?$_Wrap_alloc@V?$allocator@U?$_Tree_node@U?$pair@$$CBV?$basic_string@DU?$char_traits@D@std@@V?$allocator@D@2@@std@@PAUcanal_data@@@std@@PAX@std@@@std@@@std@@QAEXPAU?$pair@$$CBV?$basic_string@DU?$char_traits@D@std@@V?$allocator@D@2@@std@@PAUcanal_data@@@1@@Z 10029d80 f i SocketServer.obj
 0001:00028de0       ??$destroy@U?$pair@$$CBV?$basic_string@DU?$char_traits@D@std@@V?$allocator@D@2@@std@@PAUcanal_data@@@std@@@?$allocator@U?$_Tree_node@U?$pair@$$CBV?$basic_string@DU?$char_traits@D@std@@V?$allocator@D@2@@std@@PAUcanal_data@@@std@@PAX@std@@@std@@QAEXPAU?$pair@$$CBV?$basic_string@DU?$char_traits@D@std@@V?$allocator@D@2@@std@@PAUcanal_data@@@1@@Z 10029de0 f i SocketServer.obj
 0001:00028e40       ??$destroy@U?$pair@$$CBV?$basic_string@DU?$char_traits@D@std@@V?$allocator@D@2@@std@@PAUcanal_data@@@std@@@?$allocator_traits@V?$allocator@U?$_Tree_node@U?$pair@$$CBV?$basic_string@DU?$char_traits@D@std@@V?$allocator@D@2@@std@@PAUcanal_data@@@std@@PAX@std@@@std@@@std@@SAXAAV?$allocator@U?$_Tree_node@U?$pair@$$CBV?$basic_string@DU?$char_traits@D@std@@V?$allocator@D@2@@std@@PAUcanal_data@@@std@@PAX@std@@@1@PAU?$pair@$$CBV?$basic_string@DU?$char_traits@D@std@@V?$allocator@D@2@@std@@PAUcanal_data@@@1@@Z 10029e40 f i SocketServer.obj
 0001:00028e90       ??$destroy@U?$pair@$$CBV?$basic_string@DU?$char_traits@D@std@@V?$allocator@D@2@@std@@PAUcanal_socket_data@@@std@@@?$_Wrap_alloc@V?$allocator@U?$_Tree_node@U?$pair@$$CBV?$basic_string@DU?$char_traits@D@std@@V?$allocator@D@2@@std@@PAUcanal_socket_data@@@std@@PAX@std@@@std@@@std@@QAEXPAU?$pair@$$CBV?$basic_string@DU?$char_traits@D@std@@V?$allocator@D@2@@std@@PAUcanal_socket_data@@@1@@Z 10029e90 f i SocketServer.obj
 0001:00028ef0       ??$destroy@U?$pair@$$CBV?$basic_string@DU?$char_traits@D@std@@V?$allocator@D@2@@std@@PAUcanal_socket_data@@@std@@@?$allocator@U?$_Tree_node@U?$pair@$$CBV?$basic_string@DU?$char_traits@D@std@@V?$allocator@D@2@@std@@PAUcanal_socket_data@@@std@@PAX@std@@@std@@QAEXPAU?$pair@$$CBV?$basic_string@DU?$char_traits@D@std@@V?$allocator@D@2@@std@@PAUcanal_socket_data@@@1@@Z 10029ef0 f i SocketServer.obj
 0001:00028f50       ??$destroy@U?$pair@$$CBV?$basic_string@DU?$char_traits@D@std@@V?$allocator@D@2@@std@@PAUcanal_socket_data@@@std@@@?$allocator_traits@V?$allocator@U?$_Tree_node@U?$pair@$$CBV?$basic_string@DU?$char_traits@D@std@@V?$allocator@D@2@@std@@PAUcanal_socket_data@@@std@@PAX@std@@@std@@@std@@SAXAAV?$allocator@U?$_Tree_node@U?$pair@$$CBV?$basic_string@DU?$char_traits@D@std@@V?$allocator@D@2@@std@@PAUcanal_socket_data@@@std@@PAX@std@@@1@PAU?$pair@$$CBV?$basic_string@DU?$char_traits@D@std@@V?$allocator@D@2@@std@@PAUcanal_socket_data@@@1@@Z 10029f50 f i SocketServer.obj
 0001:00028fa0       ??$forward@AAPAU?$_Tree_node@U?$pair@$$CBV?$basic_string@DU?$char_traits@D@std@@V?$allocator@D@2@@std@@PAP6AHV12@PAX@Z@std@@PAX@std@@@std@@YAAAPAU?$_Tree_node@U?$pair@$$CBV?$basic_string@DU?$char_traits@D@std@@V?$allocator@D@2@@std@@PAP6AHV12@PAX@Z@std@@PAX@0@AAPAU10@@Z 10029fa0 f i SocketServer.obj
 0001:00028fe0       ??$forward@AAPAU?$_Tree_node@U?$pair@$$CBV?$basic_string@DU?$char_traits@D@std@@V?$allocator@D@2@@std@@PAUcanal_data@@@std@@PAX@std@@@std@@YAAAPAU?$_Tree_node@U?$pair@$$CBV?$basic_string@DU?$char_traits@D@std@@V?$allocator@D@2@@std@@PAUcanal_data@@@std@@PAX@0@AAPAU10@@Z 10029fe0 f i SocketServer.obj
 0001:00029020       ??$forward@AAPAU?$_Tree_node@U?$pair@$$CBV?$basic_string@DU?$char_traits@D@std@@V?$allocator@D@2@@std@@PAUcanal_socket_data@@@std@@PAX@std@@@std@@YAAAPAU?$_Tree_node@U?$pair@$$CBV?$basic_string@DU?$char_traits@D@std@@V?$allocator@D@2@@std@@PAUcanal_socket_data@@@std@@PAX@0@AAPAU10@@Z 1002a020 f i SocketServer.obj
 0001:00029060       ??$forward@AAU?$pair@$$CBV?$basic_string@DU?$char_traits@D@std@@V?$allocator@D@2@@std@@PAP6AHV12@PAX@Z@std@@@std@@YAAAU?$pair@$$CBV?$basic_string@DU?$char_traits@D@std@@V?$allocator@D@2@@std@@PAP6AHV12@PAX@Z@0@AAU10@@Z 1002a060 f i SocketServer.obj
 0001:000290a0       ??$forward@AAU?$pair@$$CBV?$basic_string@DU?$char_traits@D@std@@V?$allocator@D@2@@std@@PAUcanal_data@@@std@@@std@@YAAAU?$pair@$$CBV?$basic_string@DU?$char_traits@D@std@@V?$allocator@D@2@@std@@PAUcanal_data@@@0@AAU10@@Z 1002a0a0 f i SocketServer.obj
 0001:000290e0       ??$forward@AAU?$pair@$$CBV?$basic_string@DU?$char_traits@D@std@@V?$allocator@D@2@@std@@PAUcanal_socket_data@@@std@@@std@@YAAAU?$pair@$$CBV?$basic_string@DU?$char_traits@D@std@@V?$allocator@D@2@@std@@PAUcanal_socket_data@@@0@AAU10@@Z 1002a0e0 f i SocketServer.obj
 0001:00029120       ??$forward@AAV?$_Tree_iterator@V?$_Tree_val@U?$_Tree_simple_types@U?$pair@$$CBV?$basic_string@DU?$char_traits@D@std@@V?$allocator@D@2@@std@@PAP6AHV12@PAX@Z@std@@@std@@@std@@@std@@@std@@YAAAV?$_Tree_iterator@V?$_Tree_val@U?$_Tree_simple_types@U?$pair@$$CBV?$basic_string@DU?$char_traits@D@std@@V?$allocator@D@2@@std@@PAP6AHV12@PAX@Z@std@@@std@@@std@@@0@AAV10@@Z 1002a120 f i SocketServer.obj
 0001:00029160       ??$forward@AAV?$_Tree_iterator@V?$_Tree_val@U?$_Tree_simple_types@U?$pair@$$CBV?$basic_string@DU?$char_traits@D@std@@V?$allocator@D@2@@std@@PAUcanal_data@@@std@@@std@@@std@@@std@@@std@@YAAAV?$_Tree_iterator@V?$_Tree_val@U?$_Tree_simple_types@U?$pair@$$CBV?$basic_string@DU?$char_traits@D@std@@V?$allocator@D@2@@std@@PAUcanal_data@@@std@@@std@@@std@@@0@AAV10@@Z 1002a160 f i SocketServer.obj
 0001:000291a0       ??$forward@AAV?$_Tree_iterator@V?$_Tree_val@U?$_Tree_simple_types@U?$pair@$$CBV?$basic_string@DU?$char_traits@D@std@@V?$allocator@D@2@@std@@PAUcanal_socket_data@@@std@@@std@@@std@@@std@@@std@@YAAAV?$_Tree_iterator@V?$_Tree_val@U?$_Tree_simple_types@U?$pair@$$CBV?$basic_string@DU?$char_traits@D@std@@V?$allocator@D@2@@std@@PAUcanal_socket_data@@@std@@@std@@@std@@@0@AAV10@@Z 1002a1a0 f i SocketServer.obj
 0001:000291e0       ??$forward@PAP6AHV?$basic_string@DU?$char_traits@D@std@@V?$allocator@D@2@@std@@PAX@Z@std@@YA$$QAPAP6AHV?$basic_string@DU?$char_traits@D@std@@V?$allocator@D@2@@0@PAX@ZAAPAP6AH01@Z@Z 1002a1e0 f i SocketServer.obj
 0001:00029220       ??$forward@PAUcanal_data@@@std@@YA$$QAPAUcanal_data@@AAPAU1@@Z 1002a220 f i SocketServer.obj
 0001:00029260       ??$forward@PAUcanal_socket_data@@@std@@YA$$QAPAUcanal_socket_data@@AAPAU1@@Z 1002a260 f i SocketServer.obj
 0001:000292a0       ??$forward@PAX@std@@YA$$QAPAXAAPAX@Z 1002a2a0 f i SocketServer.obj
 0001:000292e0       ??$forward@U?$pair@V?$basic_string@DU?$char_traits@D@std@@V?$allocator@D@2@@std@@PAP6AHV12@PAX@Z@std@@@std@@YA$$QAU?$pair@V?$basic_string@DU?$char_traits@D@std@@V?$allocator@D@2@@std@@PAP6AHV12@PAX@Z@0@AAU10@@Z 1002a2e0 f i SocketServer.obj
 0001:00029320       ??$forward@U?$pair@V?$basic_string@DU?$char_traits@D@std@@V?$allocator@D@2@@std@@PAUcanal_data@@@std@@@std@@YA$$QAU?$pair@V?$basic_string@DU?$char_traits@D@std@@V?$allocator@D@2@@std@@PAUcanal_data@@@0@AAU10@@Z 1002a320 f i SocketServer.obj
 0001:00029360       ??$forward@U?$pair@V?$basic_string@DU?$char_traits@D@std@@V?$allocator@D@2@@std@@PAUcanal_socket_data@@@std@@@std@@YA$$QAU?$pair@V?$basic_string@DU?$char_traits@D@std@@V?$allocator@D@2@@std@@PAUcanal_socket_data@@@0@AAU10@@Z 1002a360 f i SocketServer.obj
 0001:000293a0       ??$forward@V?$_Tree_iterator@V?$_Tree_val@U?$_Tree_simple_types@U?$pair@$$CBV?$basic_string@DU?$char_traits@D@std@@V?$allocator@D@2@@std@@PAP6AHV12@PAX@Z@std@@@std@@@std@@@std@@@std@@YA$$QAV?$_Tree_iterator@V?$_Tree_val@U?$_Tree_simple_types@U?$pair@$$CBV?$basic_string@DU?$char_traits@D@std@@V?$allocator@D@2@@std@@PAP6AHV12@PAX@Z@std@@@std@@@std@@@0@AAV10@@Z 1002a3a0 f i SocketServer.obj
 0001:000293e0       ??$forward@V?$_Tree_iterator@V?$_Tree_val@U?$_Tree_simple_types@U?$pair@$$CBV?$basic_string@DU?$char_traits@D@std@@V?$allocator@D@2@@std@@PAUcanal_data@@@std@@@std@@@std@@@std@@@std@@YA$$QAV?$_Tree_iterator@V?$_Tree_val@U?$_Tree_simple_types@U?$pair@$$CBV?$basic_string@DU?$char_traits@D@std@@V?$allocator@D@2@@std@@PAUcanal_data@@@std@@@std@@@std@@@0@AAV10@@Z 1002a3e0 f i SocketServer.obj
 0001:00029420       ??$forward@V?$_Tree_iterator@V?$_Tree_val@U?$_Tree_simple_types@U?$pair@$$CBV?$basic_string@DU?$char_traits@D@std@@V?$allocator@D@2@@std@@PAUcanal_socket_data@@@std@@@std@@@std@@@std@@@std@@YA$$QAV?$_Tree_iterator@V?$_Tree_val@U?$_Tree_simple_types@U?$pair@$$CBV?$basic_string@DU?$char_traits@D@std@@V?$allocator@D@2@@std@@PAUcanal_socket_data@@@std@@@std@@@std@@@0@AAV10@@Z 1002a420 f i SocketServer.obj
 0001:00029460       ??$insert@U?$pair@V?$basic_string@DU?$char_traits@D@std@@V?$allocator@D@2@@std@@PAP6AHV12@PAX@Z@std@@@?$_Tree@V?$_Tmap_traits@V?$basic_string@DU?$char_traits@D@std@@V?$allocator@D@2@@std@@PAP6AHV12@PAX@ZU?$less@V?$basic_string@DU?$char_traits@D@std@@V?$allocator@D@2@@std@@@2@V?$allocator@U?$pair@$$CBV?$basic_string@DU?$char_traits@D@std@@V?$allocator@D@2@@std@@PAP6AHV12@PAX@Z@std@@@2@$0A@@std@@@std@@QAE?AV?$_Tree_iterator@V?$_Tree_val@U?$_Tree_simple_types@U?$pair@$$CBV?$basic_string@DU?$char_traits@D@std@@V?$allocator@D@2@@std@@PAP6AHV12@PAX@Z@std@@@std@@@std@@@1@V?$_Tree_const_iterator@V?$_Tree_val@U?$_Tree_simple_types@U?$pair@$$CBV?$basic_string@DU?$char_traits@D@std@@V?$allocator@D@2@@std@@PAP6AHV12@PAX@Z@std@@@std@@@std@@@1@$$QAU?$pair@V?$basic_string@DU?$char_traits@D@std@@V?$allocator@D@2@@std@@PAP6AHV12@PAX@Z@1@@Z 1002a460 f i SocketServer.obj
 0001:00029590       ??$insert@U?$pair@V?$basic_string@DU?$char_traits@D@std@@V?$allocator@D@2@@std@@PAUcanal_data@@@std@@@?$_Tree@V?$_Tmap_traits@V?$basic_string@DU?$char_traits@D@std@@V?$allocator@D@2@@std@@PAUcanal_data@@U?$less@V?$basic_string@DU?$char_traits@D@std@@V?$allocator@D@2@@std@@@2@V?$allocator@U?$pair@$$CBV?$basic_string@DU?$char_traits@D@std@@V?$allocator@D@2@@std@@PAUcanal_data@@@std@@@2@$0A@@std@@@std@@QAE?AV?$_Tree_iterator@V?$_Tree_val@U?$_Tree_simple_types@U?$pair@$$CBV?$basic_string@DU?$char_traits@D@std@@V?$allocator@D@2@@std@@PAUcanal_data@@@std@@@std@@@std@@@1@V?$_Tree_const_iterator@V?$_Tree_val@U?$_Tree_simple_types@U?$pair@$$CBV?$basic_string@DU?$char_traits@D@std@@V?$allocator@D@2@@std@@PAUcanal_data@@@std@@@std@@@std@@@1@$$QAU?$pair@V?$basic_string@DU?$char_traits@D@std@@V?$allocator@D@2@@std@@PAUcanal_data@@@1@@Z 1002a590 f i SocketServer.obj
 0001:000296c0       ??$insert@U?$pair@V?$basic_string@DU?$char_traits@D@std@@V?$allocator@D@2@@std@@PAUcanal_socket_data@@@std@@@?$_Tree@V?$_Tmap_traits@V?$basic_string@DU?$char_traits@D@std@@V?$allocator@D@2@@std@@PAUcanal_socket_data@@U?$less@V?$basic_string@DU?$char_traits@D@std@@V?$allocator@D@2@@std@@@2@V?$allocator@U?$pair@$$CBV?$basic_string@DU?$char_traits@D@std@@V?$allocator@D@2@@std@@PAUcanal_socket_data@@@std@@@2@$0A@@std@@@std@@QAE?AV?$_Tree_iterator@V?$_Tree_val@U?$_Tree_simple_types@U?$pair@$$CBV?$basic_string@DU?$char_traits@D@std@@V?$allocator@D@2@@std@@PAUcanal_socket_data@@@std@@@std@@@std@@@1@V?$_Tree_const_iterator@V?$_Tree_val@U?$_Tree_simple_types@U?$pair@$$CBV?$basic_string@DU?$char_traits@D@std@@V?$allocator@D@2@@std@@PAUcanal_socket_data@@@std@@@std@@@std@@@1@$$QAU?$pair@V?$basic_string@DU?$char_traits@D@std@@V?$allocator@D@2@@std@@PAUcanal_socket_data@@@1@@Z 1002a6c0 f i SocketServer.obj
 0001:000297f0       ??0?$_Iterator012@Ubidirectional_iterator_tag@std@@U?$pair@$$CBV?$basic_string@DU?$char_traits@D@std@@V?$allocator@D@2@@std@@PAP6AHV12@PAX@Z@2@HPBU32@ABU32@U_Iterator_base12@2@@std@@QAE@ABU01@@Z 1002a7f0 f i SocketServer.obj
 0001:00029850       ??0?$_Iterator012@Ubidirectional_iterator_tag@std@@U?$pair@$$CBV?$basic_string@DU?$char_traits@D@std@@V?$allocator@D@2@@std@@PAP6AHV12@PAX@Z@2@HPBU32@ABU32@U_Iterator_base12@2@@std@@QAE@XZ 1002a850 f i SocketServer.obj
 0001:000298b0       ??0?$_Iterator012@Ubidirectional_iterator_tag@std@@U?$pair@$$CBV?$basic_string@DU?$char_traits@D@std@@V?$allocator@D@2@@std@@PAUcanal_data@@@2@HPBU32@ABU32@U_Iterator_base12@2@@std@@QAE@ABU01@@Z 1002a8b0 f i SocketServer.obj
 0001:00029910       ??0?$_Iterator012@Ubidirectional_iterator_tag@std@@U?$pair@$$CBV?$basic_string@DU?$char_traits@D@std@@V?$allocator@D@2@@std@@PAUcanal_data@@@2@HPBU32@ABU32@U_Iterator_base12@2@@std@@QAE@XZ 1002a910 f i SocketServer.obj
 0001:00029970       ??0?$_Iterator012@Ubidirectional_iterator_tag@std@@U?$pair@$$CBV?$basic_string@DU?$char_traits@D@std@@V?$allocator@D@2@@std@@PAUcanal_socket_data@@@2@HPBU32@ABU32@U_Iterator_base12@2@@std@@QAE@ABU01@@Z 1002a970 f i SocketServer.obj
 0001:000299d0       ??0?$_Iterator012@Ubidirectional_iterator_tag@std@@U?$pair@$$CBV?$basic_string@DU?$char_traits@D@std@@V?$allocator@D@2@@std@@PAUcanal_socket_data@@@2@HPBU32@ABU32@U_Iterator_base12@2@@std@@QAE@XZ 1002a9d0 f i SocketServer.obj
 0001:00029a30       ??0?$_Iterator012@Urandom_access_iterator_tag@std@@PAXHPBQAXABQAXU_Iterator_base12@2@@std@@QAE@XZ 1002aa30 f i SocketServer.obj
 0001:00029a90       ??0?$_Tree@V?$_Tmap_traits@V?$basic_string@DU?$char_traits@D@std@@V?$allocator@D@2@@std@@PAP6AHV12@PAX@ZU?$less@V?$basic_string@DU?$char_traits@D@std@@V?$allocator@D@2@@std@@@2@V?$allocator@U?$pair@$$CBV?$basic_string@DU?$char_traits@D@std@@V?$allocator@D@2@@std@@PAP6AHV12@PAX@Z@std@@@2@$0A@@std@@@std@@QAE@ABU?$less@V?$basic_string@DU?$char_traits@D@std@@V?$allocator@D@2@@std@@@1@ABV?$allocator@U?$pair@$$CBV?$basic_string@DU?$char_traits@D@std@@V?$allocator@D@2@@std@@PAP6AHV12@PAX@Z@std@@@1@@Z 1002aa90 f i SocketServer.obj
 0001:00029af0       ??0?$_Tree@V?$_Tmap_traits@V?$basic_string@DU?$char_traits@D@std@@V?$allocator@D@2@@std@@PAUcanal_data@@U?$less@V?$basic_string@DU?$char_traits@D@std@@V?$allocator@D@2@@std@@@2@V?$allocator@U?$pair@$$CBV?$basic_string@DU?$char_traits@D@std@@V?$allocator@D@2@@std@@PAUcanal_data@@@std@@@2@$0A@@std@@@std@@QAE@ABU?$less@V?$basic_string@DU?$char_traits@D@std@@V?$allocator@D@2@@std@@@1@ABV?$allocator@U?$pair@$$CBV?$basic_string@DU?$char_traits@D@std@@V?$allocator@D@2@@std@@PAUcanal_data@@@std@@@1@@Z 1002aaf0 f i SocketServer.obj
 0001:00029b50       ??0?$_Tree@V?$_Tmap_traits@V?$basic_string@DU?$char_traits@D@std@@V?$allocator@D@2@@std@@PAUcanal_socket_data@@U?$less@V?$basic_string@DU?$char_traits@D@std@@V?$allocator@D@2@@std@@@2@V?$allocator@U?$pair@$$CBV?$basic_string@DU?$char_traits@D@std@@V?$allocator@D@2@@std@@PAUcanal_socket_data@@@std@@@2@$0A@@std@@@std@@QAE@ABU?$less@V?$basic_string@DU?$char_traits@D@std@@V?$allocator@D@2@@std@@@1@ABV?$allocator@U?$pair@$$CBV?$basic_string@DU?$char_traits@D@std@@V?$allocator@D@2@@std@@PAUcanal_socket_data@@@std@@@1@@Z 1002ab50 f i SocketServer.obj
 0001:00029bb0       ??0?$_Tree_alloc@$0A@U?$_Tree_base_types@U?$pair@$$CBV?$basic_string@DU?$char_traits@D@std@@V?$allocator@D@2@@std@@PAP6AHV12@PAX@Z@std@@V?$allocator@U?$pair@$$CBV?$basic_string@DU?$char_traits@D@std@@V?$allocator@D@2@@std@@PAP6AHV12@PAX@Z@std@@@2@@std@@@std@@QAE@ABV?$allocator@U?$pair@$$CBV?$basic_string@DU?$char_traits@D@std@@V?$allocator@D@2@@std@@PAP6AHV12@PAX@Z@std@@@1@@Z 1002abb0 f i SocketServer.obj
 0001:00029cb0       ??0?$_Tree_alloc@$0A@U?$_Tree_base_types@U?$pair@$$CBV?$basic_string@DU?$char_traits@D@std@@V?$allocator@D@2@@std@@PAUcanal_data@@@std@@V?$allocator@U?$pair@$$CBV?$basic_string@DU?$char_traits@D@std@@V?$allocator@D@2@@std@@PAUcanal_data@@@std@@@2@@std@@@std@@QAE@ABV?$allocator@U?$pair@$$CBV?$basic_string@DU?$char_traits@D@std@@V?$allocator@D@2@@std@@PAUcanal_data@@@std@@@1@@Z 1002acb0 f i SocketServer.obj
 0001:00029db0       ??0?$_Tree_alloc@$0A@U?$_Tree_base_types@U?$pair@$$CBV?$basic_string@DU?$char_traits@D@std@@V?$allocator@D@2@@std@@PAUcanal_socket_data@@@std@@V?$allocator@U?$pair@$$CBV?$basic_string@DU?$char_traits@D@std@@V?$allocator@D@2@@std@@PAUcanal_socket_data@@@std@@@2@@std@@@std@@QAE@ABV?$allocator@U?$pair@$$CBV?$basic_string@DU?$char_traits@D@std@@V?$allocator@D@2@@std@@PAUcanal_socket_data@@@std@@@1@@Z 1002adb0 f i SocketServer.obj
 0001:00029eb0       ??0?$_Tree_buy@U?$pair@$$CBV?$basic_string@DU?$char_traits@D@std@@V?$allocator@D@2@@std@@PAP6AHV12@PAX@Z@std@@V?$allocator@U?$pair@$$CBV?$basic_string@DU?$char_traits@D@std@@V?$allocator@D@2@@std@@PAP6AHV12@PAX@Z@std@@@2@@std@@QAE@ABV?$allocator@U?$pair@$$CBV?$basic_string@DU?$char_traits@D@std@@V?$allocator@D@2@@std@@PAP6AHV12@PAX@Z@std@@@1@@Z 1002aeb0 f i SocketServer.obj
 0001:00029f10       ??0?$_Tree_buy@U?$pair@$$CBV?$basic_string@DU?$char_traits@D@std@@V?$allocator@D@2@@std@@PAUcanal_data@@@std@@V?$allocator@U?$pair@$$CBV?$basic_string@DU?$char_traits@D@std@@V?$allocator@D@2@@std@@PAUcanal_data@@@std@@@2@@std@@QAE@ABV?$allocator@U?$pair@$$CBV?$basic_string@DU?$char_traits@D@std@@V?$allocator@D@2@@std@@PAUcanal_data@@@std@@@1@@Z 1002af10 f i SocketServer.obj
 0001:00029f70       ??0?$_Tree_buy@U?$pair@$$CBV?$basic_string@DU?$char_traits@D@std@@V?$allocator@D@2@@std@@PAUcanal_socket_data@@@std@@V?$allocator@U?$pair@$$CBV?$basic_string@DU?$char_traits@D@std@@V?$allocator@D@2@@std@@PAUcanal_socket_data@@@std@@@2@@std@@QAE@ABV?$allocator@U?$pair@$$CBV?$basic_string@DU?$char_traits@D@std@@V?$allocator@D@2@@std@@PAUcanal_socket_data@@@std@@@1@@Z 1002af70 f i SocketServer.obj
 0001:00029fd0       ??0?$_Tree_comp@$0A@V?$_Tmap_traits@V?$basic_string@DU?$char_traits@D@std@@V?$allocator@D@2@@std@@PAP6AHV12@PAX@ZU?$less@V?$basic_string@DU?$char_traits@D@std@@V?$allocator@D@2@@std@@@2@V?$allocator@U?$pair@$$CBV?$basic_string@DU?$char_traits@D@std@@V?$allocator@D@2@@std@@PAP6AHV12@PAX@Z@std@@@2@$0A@@std@@@std@@QAE@ABU?$less@V?$basic_string@DU?$char_traits@D@std@@V?$allocator@D@2@@std@@@1@ABV?$allocator@U?$pair@$$CBV?$basic_string@DU?$char_traits@D@std@@V?$allocator@D@2@@std@@PAP6AHV12@PAX@Z@std@@@1@@Z 1002afd0 f i SocketServer.obj
 0001:0002a030       ??0?$_Tree_comp@$0A@V?$_Tmap_traits@V?$basic_string@DU?$char_traits@D@std@@V?$allocator@D@2@@std@@PAUcanal_data@@U?$less@V?$basic_string@DU?$char_traits@D@std@@V?$allocator@D@2@@std@@@2@V?$allocator@U?$pair@$$CBV?$basic_string@DU?$char_traits@D@std@@V?$allocator@D@2@@std@@PAUcanal_data@@@std@@@2@$0A@@std@@@std@@QAE@ABU?$less@V?$basic_string@DU?$char_traits@D@std@@V?$allocator@D@2@@std@@@1@ABV?$allocator@U?$pair@$$CBV?$basic_string@DU?$char_traits@D@std@@V?$allocator@D@2@@std@@PAUcanal_data@@@std@@@1@@Z 1002b030 f i SocketServer.obj
 0001:0002a090       ??0?$_Tree_comp@$0A@V?$_Tmap_traits@V?$basic_string@DU?$char_traits@D@std@@V?$allocator@D@2@@std@@PAUcanal_socket_data@@U?$less@V?$basic_string@DU?$char_traits@D@std@@V?$allocator@D@2@@std@@@2@V?$allocator@U?$pair@$$CBV?$basic_string@DU?$char_traits@D@std@@V?$allocator@D@2@@std@@PAUcanal_socket_data@@@std@@@2@$0A@@std@@@std@@QAE@ABU?$less@V?$basic_string@DU?$char_traits@D@std@@V?$allocator@D@2@@std@@@1@ABV?$allocator@U?$pair@$$CBV?$basic_string@DU?$char_traits@D@std@@V?$allocator@D@2@@std@@PAUcanal_socket_data@@@std@@@1@@Z 1002b090 f i SocketServer.obj
 0001:0002a0f0       ??0?$_Tree_const_iterator@V?$_Tree_val@U?$_Tree_simple_types@U?$pair@$$CBV?$basic_string@DU?$char_traits@D@std@@V?$allocator@D@2@@std@@PAP6AHV12@PAX@Z@std@@@std@@@std@@@std@@QAE@ABV01@@Z 1002b0f0 f i SocketServer.obj
 0001:0002a150       ??0?$_Tree_const_iterator@V?$_Tree_val@U?$_Tree_simple_types@U?$pair@$$CBV?$basic_string@DU?$char_traits@D@std@@V?$allocator@D@2@@std@@PAP6AHV12@PAX@Z@std@@@std@@@std@@@std@@QAE@PAU?$_Tree_node@U?$pair@$$CBV?$basic_string@DU?$char_traits@D@std@@V?$allocator@D@2@@std@@PAP6AHV12@PAX@Z@std@@PAX@1@PBV?$_Tree_val@U?$_Tree_simple_types@U?$pair@$$CBV?$basic_string@DU?$char_traits@D@std@@V?$allocator@D@2@@std@@PAP6AHV12@PAX@Z@std@@@std@@@1@@Z 1002b150 f i SocketServer.obj
 0001:0002a1b0       ??0?$_Tree_const_iterator@V?$_Tree_val@U?$_Tree_simple_types@U?$pair@$$CBV?$basic_string@DU?$char_traits@D@std@@V?$allocator@D@2@@std@@PAP6AHV12@PAX@Z@std@@@std@@@std@@@std@@QAE@XZ 1002b1b0 f i SocketServer.obj
 0001:0002a210       ??0?$_Tree_const_iterator@V?$_Tree_val@U?$_Tree_simple_types@U?$pair@$$CBV?$basic_string@DU?$char_traits@D@std@@V?$allocator@D@2@@std@@PAUcanal_data@@@std@@@std@@@std@@@std@@QAE@ABV01@@Z 1002b210 f i SocketServer.obj
 0001:0002a270       ??0?$_Tree_const_iterator@V?$_Tree_val@U?$_Tree_simple_types@U?$pair@$$CBV?$basic_string@DU?$char_traits@D@std@@V?$allocator@D@2@@std@@PAUcanal_data@@@std@@@std@@@std@@@std@@QAE@PAU?$_Tree_node@U?$pair@$$CBV?$basic_string@DU?$char_traits@D@std@@V?$allocator@D@2@@std@@PAUcanal_data@@@std@@PAX@1@PBV?$_Tree_val@U?$_Tree_simple_types@U?$pair@$$CBV?$basic_string@DU?$char_traits@D@std@@V?$allocator@D@2@@std@@PAUcanal_data@@@std@@@std@@@1@@Z 1002b270 f i SocketServer.obj
 0001:0002a2d0       ??0?$_Tree_const_iterator@V?$_Tree_val@U?$_Tree_simple_types@U?$pair@$$CBV?$basic_string@DU?$char_traits@D@std@@V?$allocator@D@2@@std@@PAUcanal_data@@@std@@@std@@@std@@@std@@QAE@XZ 1002b2d0 f i SocketServer.obj
 0001:0002a330       ??0?$_Tree_const_iterator@V?$_Tree_val@U?$_Tree_simple_types@U?$pair@$$CBV?$basic_string@DU?$char_traits@D@std@@V?$allocator@D@2@@std@@PAUcanal_socket_data@@@std@@@std@@@std@@@std@@QAE@ABV01@@Z 1002b330 f i SocketServer.obj
 0001:0002a390       ??0?$_Tree_const_iterator@V?$_Tree_val@U?$_Tree_simple_types@U?$pair@$$CBV?$basic_string@DU?$char_traits@D@std@@V?$allocator@D@2@@std@@PAUcanal_socket_data@@@std@@@std@@@std@@@std@@QAE@PAU?$_Tree_node@U?$pair@$$CBV?$basic_string@DU?$char_traits@D@std@@V?$allocator@D@2@@std@@PAUcanal_socket_data@@@std@@PAX@1@PBV?$_Tree_val@U?$_Tree_simple_types@U?$pair@$$CBV?$basic_string@DU?$char_traits@D@std@@V?$allocator@D@2@@std@@PAUcanal_socket_data@@@std@@@std@@@1@@Z 1002b390 f i SocketServer.obj
 0001:0002a3f0       ??0?$_Tree_const_iterator@V?$_Tree_val@U?$_Tree_simple_types@U?$pair@$$CBV?$basic_string@DU?$char_traits@D@std@@V?$allocator@D@2@@std@@PAUcanal_socket_data@@@std@@@std@@@std@@@std@@QAE@XZ 1002b3f0 f i SocketServer.obj
 0001:0002a450       ??0?$_Tree_iterator@V?$_Tree_val@U?$_Tree_simple_types@U?$pair@$$CBV?$basic_string@DU?$char_traits@D@std@@V?$allocator@D@2@@std@@PAP6AHV12@PAX@Z@std@@@std@@@std@@@std@@QAE@ABV01@@Z 1002b450 f i SocketServer.obj
 0001:0002a4b0       ??0?$_Tree_iterator@V?$_Tree_val@U?$_Tree_simple_types@U?$pair@$$CBV?$basic_string@DU?$char_traits@D@std@@V?$allocator@D@2@@std@@PAP6AHV12@PAX@Z@std@@@std@@@std@@@std@@QAE@PAU?$_Tree_node@U?$pair@$$CBV?$basic_string@DU?$char_traits@D@std@@V?$allocator@D@2@@std@@PAP6AHV12@PAX@Z@std@@PAX@1@PBV?$_Tree_val@U?$_Tree_simple_types@U?$pair@$$CBV?$basic_string@DU?$char_traits@D@std@@V?$allocator@D@2@@std@@PAP6AHV12@PAX@Z@std@@@std@@@1@@Z 1002b4b0 f i SocketServer.obj
 0001:0002a510       ??0?$_Tree_iterator@V?$_Tree_val@U?$_Tree_simple_types@U?$pair@$$CBV?$basic_string@DU?$char_traits@D@std@@V?$allocator@D@2@@std@@PAUcanal_data@@@std@@@std@@@std@@@std@@QAE@ABV01@@Z 1002b510 f i SocketServer.obj
 0001:0002a570       ??0?$_Tree_iterator@V?$_Tree_val@U?$_Tree_simple_types@U?$pair@$$CBV?$basic_string@DU?$char_traits@D@std@@V?$allocator@D@2@@std@@PAUcanal_data@@@std@@@std@@@std@@@std@@QAE@PAU?$_Tree_node@U?$pair@$$CBV?$basic_string@DU?$char_traits@D@std@@V?$allocator@D@2@@std@@PAUcanal_data@@@std@@PAX@1@PBV?$_Tree_val@U?$_Tree_simple_types@U?$pair@$$CBV?$basic_string@DU?$char_traits@D@std@@V?$allocator@D@2@@std@@PAUcanal_data@@@std@@@std@@@1@@Z 1002b570 f i SocketServer.obj
 0001:0002a5d0       ??0?$_Tree_iterator@V?$_Tree_val@U?$_Tree_simple_types@U?$pair@$$CBV?$basic_string@DU?$char_traits@D@std@@V?$allocator@D@2@@std@@PAUcanal_socket_data@@@std@@@std@@@std@@@std@@QAE@ABV01@@Z 1002b5d0 f i SocketServer.obj
 0001:0002a630       ??0?$_Tree_iterator@V?$_Tree_val@U?$_Tree_simple_types@U?$pair@$$CBV?$basic_string@DU?$char_traits@D@std@@V?$allocator@D@2@@std@@PAUcanal_socket_data@@@std@@@std@@@std@@@std@@QAE@PAU?$_Tree_node@U?$pair@$$CBV?$basic_string@DU?$char_traits@D@std@@V?$allocator@D@2@@std@@PAUcanal_socket_data@@@std@@PAX@1@PBV?$_Tree_val@U?$_Tree_simple_types@U?$pair@$$CBV?$basic_string@DU?$char_traits@D@std@@V?$allocator@D@2@@std@@PAUcanal_socket_data@@@std@@@std@@@1@@Z 1002b630 f i SocketServer.obj
 0001:0002a690       ??0?$_Tree_unchecked_const_iterator@V?$_Tree_val@U?$_Tree_simple_types@U?$pair@$$CBV?$basic_string@DU?$char_traits@D@std@@V?$allocator@D@2@@std@@PAP6AHV12@PAX@Z@std@@@std@@@std@@U_Iterator_base12@2@@std@@QAE@ABV01@@Z 1002b690 f i SocketServer.obj
 0001:0002a700       ??0?$_Tree_unchecked_const_iterator@V?$_Tree_val@U?$_Tree_simple_types@U?$pair@$$CBV?$basic_string@DU?$char_traits@D@std@@V?$allocator@D@2@@std@@PAP6AHV12@PAX@Z@std@@@std@@@std@@U_Iterator_base12@2@@std@@QAE@PAU?$_Tree_node@U?$pair@$$CBV?$basic_string@DU?$char_traits@D@std@@V?$allocator@D@2@@std@@PAP6AHV12@PAX@Z@std@@PAX@1@PBV?$_Tree_val@U?$_Tree_simple_types@U?$pair@$$CBV?$basic_string@DU?$char_traits@D@std@@V?$allocator@D@2@@std@@PAP6AHV12@PAX@Z@std@@@std@@@1@@Z 1002b700 f i SocketServer.obj
 0001:0002a7c0       ??0?$_Tree_unchecked_const_iterator@V?$_Tree_val@U?$_Tree_simple_types@U?$pair@$$CBV?$basic_string@DU?$char_traits@D@std@@V?$allocator@D@2@@std@@PAP6AHV12@PAX@Z@std@@@std@@@std@@U_Iterator_base12@2@@std@@QAE@XZ 1002b7c0 f i SocketServer.obj
 0001:0002a820       ??0?$_Tree_unchecked_const_iterator@V?$_Tree_val@U?$_Tree_simple_types@U?$pair@$$CBV?$basic_string@DU?$char_traits@D@std@@V?$allocator@D@2@@std@@PAUcanal_data@@@std@@@std@@@std@@U_Iterator_base12@2@@std@@QAE@ABV01@@Z 1002b820 f i SocketServer.obj
 0001:0002a890       ??0?$_Tree_unchecked_const_iterator@V?$_Tree_val@U?$_Tree_simple_types@U?$pair@$$CBV?$basic_string@DU?$char_traits@D@std@@V?$allocator@D@2@@std@@PAUcanal_data@@@std@@@std@@@std@@U_Iterator_base12@2@@std@@QAE@PAU?$_Tree_node@U?$pair@$$CBV?$basic_string@DU?$char_traits@D@std@@V?$allocator@D@2@@std@@PAUcanal_data@@@std@@PAX@1@PBV?$_Tree_val@U?$_Tree_simple_types@U?$pair@$$CBV?$basic_string@DU?$char_traits@D@std@@V?$allocator@D@2@@std@@PAUcanal_data@@@std@@@std@@@1@@Z 1002b890 f i SocketServer.obj
 0001:0002a950       ??0?$_Tree_unchecked_const_iterator@V?$_Tree_val@U?$_Tree_simple_types@U?$pair@$$CBV?$basic_string@DU?$char_traits@D@std@@V?$allocator@D@2@@std@@PAUcanal_data@@@std@@@std@@@std@@U_Iterator_base12@2@@std@@QAE@XZ 1002b950 f i SocketServer.obj
 0001:0002a9b0       ??0?$_Tree_unchecked_const_iterator@V?$_Tree_val@U?$_Tree_simple_types@U?$pair@$$CBV?$basic_string@DU?$char_traits@D@std@@V?$allocator@D@2@@std@@PAUcanal_socket_data@@@std@@@std@@@std@@U_Iterator_base12@2@@std@@QAE@ABV01@@Z 1002b9b0 f i SocketServer.obj
 0001:0002aa20       ??0?$_Tree_unchecked_const_iterator@V?$_Tree_val@U?$_Tree_simple_types@U?$pair@$$CBV?$basic_string@DU?$char_traits@D@std@@V?$allocator@D@2@@std@@PAUcanal_socket_data@@@std@@@std@@@std@@U_Iterator_base12@2@@std@@QAE@PAU?$_Tree_node@U?$pair@$$CBV?$basic_string@DU?$char_traits@D@std@@V?$allocator@D@2@@std@@PAUcanal_socket_data@@@std@@PAX@1@PBV?$_Tree_val@U?$_Tree_simple_types@U?$pair@$$CBV?$basic_string@DU?$char_traits@D@std@@V?$allocator@D@2@@std@@PAUcanal_socket_data@@@std@@@std@@@1@@Z 1002ba20 f i SocketServer.obj
 0001:0002aae0       ??0?$_Tree_unchecked_const_iterator@V?$_Tree_val@U?$_Tree_simple_types@U?$pair@$$CBV?$basic_string@DU?$char_traits@D@std@@V?$allocator@D@2@@std@@PAUcanal_socket_data@@@std@@@std@@@std@@U_Iterator_base12@2@@std@@QAE@XZ 1002bae0 f i SocketServer.obj
 0001:0002ab40       ??0?$_Tree_val@U?$_Tree_simple_types@U?$pair@$$CBV?$basic_string@DU?$char_traits@D@std@@V?$allocator@D@2@@std@@PAP6AHV12@PAX@Z@std@@@std@@@std@@QAE@XZ 1002bb40 f i SocketServer.obj
 0001:0002abb0       ??0?$_Tree_val@U?$_Tree_simple_types@U?$pair@$$CBV?$basic_string@DU?$char_traits@D@std@@V?$allocator@D@2@@std@@PAUcanal_data@@@std@@@std@@@std@@QAE@XZ 1002bbb0 f i SocketServer.obj
 0001:0002ac20       ??0?$_Tree_val@U?$_Tree_simple_types@U?$pair@$$CBV?$basic_string@DU?$char_traits@D@std@@V?$allocator@D@2@@std@@PAUcanal_socket_data@@@std@@@std@@@std@@QAE@XZ 1002bc20 f i SocketServer.obj
 0001:0002ac90       ??0?$_Vector_alloc@$0A@U?$_Vec_base_types@PAXV?$allocator@PAX@std@@@std@@@std@@QAE@ABV?$allocator@PAX@1@@Z 1002bc90 f i SocketServer.obj
 0001:0002ad40       ??0?$_Vector_const_iterator@V?$_Vector_val@U?$_Simple_types@PAX@std@@@std@@@std@@QAE@PAPAXPBU_Container_base12@1@@Z 1002bd40 f i SocketServer.obj
 0001:0002ae00       ??0?$_Vector_iterator@V?$_Vector_val@U?$_Simple_types@PAX@std@@@std@@@std@@QAE@PAPAXPBU_Container_base12@1@@Z 1002be00 f i SocketServer.obj
 0001:0002ae60       ??0?$_Vector_val@U?$_Simple_types@PAX@std@@@std@@QAE@XZ 1002be60 f i SocketServer.obj
 0001:0002aee0       ??0?$_Wrap_alloc@V?$allocator@PAX@std@@@std@@QAE@XZ 1002bee0 f i SocketServer.obj
 0001:0002af40       ??0?$_Wrap_alloc@V?$allocator@U?$_Tree_node@U?$pair@$$CBV?$basic_string@DU?$char_traits@D@std@@V?$allocator@D@2@@std@@PAP6AHV12@PAX@Z@std@@PAX@std@@@std@@@std@@QAE@XZ 1002bf40 f i SocketServer.obj
 0001:0002afa0       ??0?$_Wrap_alloc@V?$allocator@U?$_Tree_node@U?$pair@$$CBV?$basic_string@DU?$char_traits@D@std@@V?$allocator@D@2@@std@@PAUcanal_data@@@std@@PAX@std@@@std@@@std@@QAE@XZ 1002bfa0 f i SocketServer.obj
 0001:0002b000       ??0?$_Wrap_alloc@V?$allocator@U?$_Tree_node@U?$pair@$$CBV?$basic_string@DU?$char_traits@D@std@@V?$allocator@D@2@@std@@PAUcanal_socket_data@@@std@@PAX@std@@@std@@@std@@QAE@XZ 1002c000 f i SocketServer.obj
 0001:0002b060       ??0?$allocator@PAX@std@@QAE@XZ 1002c060 f i SocketServer.obj
 0001:0002b0a0       ??0?$allocator@U?$_Tree_node@U?$pair@$$CBV?$basic_string@DU?$char_traits@D@std@@V?$allocator@D@2@@std@@PAP6AHV12@PAX@Z@std@@PAX@std@@@std@@QAE@XZ 1002c0a0 f i SocketServer.obj
 0001:0002b0e0       ??0?$allocator@U?$_Tree_node@U?$pair@$$CBV?$basic_string@DU?$char_traits@D@std@@V?$allocator@D@2@@std@@PAUcanal_data@@@std@@PAX@std@@@std@@QAE@XZ 1002c0e0 f i SocketServer.obj
 0001:0002b120       ??0?$allocator@U?$_Tree_node@U?$pair@$$CBV?$basic_string@DU?$char_traits@D@std@@V?$allocator@D@2@@std@@PAUcanal_socket_data@@@std@@PAX@std@@@std@@QAE@XZ 1002c120 f i SocketServer.obj
 0001:0002b160       ??0?$allocator@U?$pair@$$CBV?$basic_string@DU?$char_traits@D@std@@V?$allocator@D@2@@std@@PAP6AHV12@PAX@Z@std@@@std@@QAE@XZ 1002c160 f i SocketServer.obj
 0001:0002b1a0       ??0?$allocator@U?$pair@$$CBV?$basic_string@DU?$char_traits@D@std@@V?$allocator@D@2@@std@@PAUcanal_data@@@std@@@std@@QAE@XZ 1002c1a0 f i SocketServer.obj
 0001:0002b1e0       ??0?$allocator@U?$pair@$$CBV?$basic_string@DU?$char_traits@D@std@@V?$allocator@D@2@@std@@PAUcanal_socket_data@@@std@@@std@@QAE@XZ 1002c1e0 f i SocketServer.obj
 0001:0002b220       ??0?$map@V?$basic_string@DU?$char_traits@D@std@@V?$allocator@D@2@@std@@PAP6AHV12@PAX@ZU?$less@V?$basic_string@DU?$char_traits@D@std@@V?$allocator@D@2@@std@@@2@V?$allocator@U?$pair@$$CBV?$basic_string@DU?$char_traits@D@std@@V?$allocator@D@2@@std@@PAP6AHV12@PAX@Z@std@@@2@@std@@QAE@XZ 1002c220 f i SocketServer.obj
 0001:0002b290       ??0?$map@V?$basic_string@DU?$char_traits@D@std@@V?$allocator@D@2@@std@@PAUcanal_data@@U?$less@V?$basic_string@DU?$char_traits@D@std@@V?$allocator@D@2@@std@@@2@V?$allocator@U?$pair@$$CBV?$basic_string@DU?$char_traits@D@std@@V?$allocator@D@2@@std@@PAUcanal_data@@@std@@@2@@std@@QAE@XZ 1002c290 f i SocketServer.obj
 0001:0002b300       ??0?$map@V?$basic_string@DU?$char_traits@D@std@@V?$allocator@D@2@@std@@PAUcanal_socket_data@@U?$less@V?$basic_string@DU?$char_traits@D@std@@V?$allocator@D@2@@std@@@2@V?$allocator@U?$pair@$$CBV?$basic_string@DU?$char_traits@D@std@@V?$allocator@D@2@@std@@PAUcanal_socket_data@@@std@@@2@@std@@QAE@XZ 1002c300 f i SocketServer.obj
 0001:0002b370       ??0?$vector@PAXV?$allocator@PAX@std@@@std@@QAE@XZ 1002c370 f i SocketServer.obj
 0001:0002b3e0       ??0SocketServer@@QAE@XZ    1002c3e0 f   SocketServer.obj
 0001:0002b540       ??0canal_data@@QAE@XZ      1002c540 f i SocketServer.obj
 0001:0002b5a0       ??0canal_socket_data@@QAE@XZ 1002c5a0 f i SocketServer.obj
 0001:0002b600       ??1?$_Iterator012@Ubidirectional_iterator_tag@std@@U?$pair@$$CBV?$basic_string@DU?$char_traits@D@std@@V?$allocator@D@2@@std@@PAP6AHV12@PAX@Z@2@HPBU32@ABU32@U_Iterator_base12@2@@std@@QAE@XZ 1002c600 f i SocketServer.obj
 0001:0002b650       ??1?$_Iterator012@Ubidirectional_iterator_tag@std@@U?$pair@$$CBV?$basic_string@DU?$char_traits@D@std@@V?$allocator@D@2@@std@@PAUcanal_data@@@2@HPBU32@ABU32@U_Iterator_base12@2@@std@@QAE@XZ 1002c650 f i SocketServer.obj
 0001:0002b6a0       ??1?$_Iterator012@Ubidirectional_iterator_tag@std@@U?$pair@$$CBV?$basic_string@DU?$char_traits@D@std@@V?$allocator@D@2@@std@@PAUcanal_socket_data@@@2@HPBU32@ABU32@U_Iterator_base12@2@@std@@QAE@XZ 1002c6a0 f i SocketServer.obj
 0001:0002b6f0       ??1?$_Iterator012@Urandom_access_iterator_tag@std@@PAXHPBQAXABQAXU_Iterator_base12@2@@std@@QAE@XZ 1002c6f0 f i SocketServer.obj
 0001:0002b740       ??1?$_Tree@V?$_Tmap_traits@V?$basic_string@DU?$char_traits@D@std@@V?$allocator@D@2@@std@@PAP6AHV12@PAX@ZU?$less@V?$basic_string@DU?$char_traits@D@std@@V?$allocator@D@2@@std@@@2@V?$allocator@U?$pair@$$CBV?$basic_string@DU?$char_traits@D@std@@V?$allocator@D@2@@std@@PAP6AHV12@PAX@Z@std@@@2@$0A@@std@@@std@@QAE@XZ 1002c740 f i SocketServer.obj
 0001:0002b7a0       ??1?$_Tree@V?$_Tmap_traits@V?$basic_string@DU?$char_traits@D@std@@V?$allocator@D@2@@std@@PAUcanal_data@@U?$less@V?$basic_string@DU?$char_traits@D@std@@V?$allocator@D@2@@std@@@2@V?$allocator@U?$pair@$$CBV?$basic_string@DU?$char_traits@D@std@@V?$allocator@D@2@@std@@PAUcanal_data@@@std@@@2@$0A@@std@@@std@@QAE@XZ 1002c7a0 f i SocketServer.obj
 0001:0002b800       ??1?$_Tree@V?$_Tmap_traits@V?$basic_string@DU?$char_traits@D@std@@V?$allocator@D@2@@std@@PAUcanal_socket_data@@U?$less@V?$basic_string@DU?$char_traits@D@std@@V?$allocator@D@2@@std@@@2@V?$allocator@U?$pair@$$CBV?$basic_string@DU?$char_traits@D@std@@V?$allocator@D@2@@std@@PAUcanal_socket_data@@@std@@@2@$0A@@std@@@std@@QAE@XZ 1002c800 f i SocketServer.obj
 0001:0002b860       ??1?$_Tree_alloc@$0A@U?$_Tree_base_types@U?$pair@$$CBV?$basic_string@DU?$char_traits@D@std@@V?$allocator@D@2@@std@@PAP6AHV12@PAX@Z@std@@V?$allocator@U?$pair@$$CBV?$basic_string@DU?$char_traits@D@std@@V?$allocator@D@2@@std@@PAP6AHV12@PAX@Z@std@@@2@@std@@@std@@QAE@XZ 1002c860 f i SocketServer.obj
 0001:0002b8d0       ??1?$_Tree_alloc@$0A@U?$_Tree_base_types@U?$pair@$$CBV?$basic_string@DU?$char_traits@D@std@@V?$allocator@D@2@@std@@PAUcanal_data@@@std@@V?$allocator@U?$pair@$$CBV?$basic_string@DU?$char_traits@D@std@@V?$allocator@D@2@@std@@PAUcanal_data@@@std@@@2@@std@@@std@@QAE@XZ 1002c8d0 f i SocketServer.obj
 0001:0002b940       ??1?$_Tree_alloc@$0A@U?$_Tree_base_types@U?$pair@$$CBV?$basic_string@DU?$char_traits@D@std@@V?$allocator@D@2@@std@@PAUcanal_socket_data@@@std@@V?$allocator@U?$pair@$$CBV?$basic_string@DU?$char_traits@D@std@@V?$allocator@D@2@@std@@PAUcanal_socket_data@@@std@@@2@@std@@@std@@QAE@XZ 1002c940 f i SocketServer.obj
 0001:0002b9b0       ??1?$_Tree_buy@U?$pair@$$CBV?$basic_string@DU?$char_traits@D@std@@V?$allocator@D@2@@std@@PAP6AHV12@PAX@Z@std@@V?$allocator@U?$pair@$$CBV?$basic_string@DU?$char_traits@D@std@@V?$allocator@D@2@@std@@PAP6AHV12@PAX@Z@std@@@2@@std@@QAE@XZ 1002c9b0 f i SocketServer.obj
 0001:0002ba00       ??1?$_Tree_buy@U?$pair@$$CBV?$basic_string@DU?$char_traits@D@std@@V?$allocator@D@2@@std@@PAUcanal_data@@@std@@V?$allocator@U?$pair@$$CBV?$basic_string@DU?$char_traits@D@std@@V?$allocator@D@2@@std@@PAUcanal_data@@@std@@@2@@std@@QAE@XZ 1002ca00 f i SocketServer.obj
 0001:0002ba50       ??1?$_Tree_buy@U?$pair@$$CBV?$basic_string@DU?$char_traits@D@std@@V?$allocator@D@2@@std@@PAUcanal_socket_data@@@std@@V?$allocator@U?$pair@$$CBV?$basic_string@DU?$char_traits@D@std@@V?$allocator@D@2@@std@@PAUcanal_socket_data@@@std@@@2@@std@@QAE@XZ 1002ca50 f i SocketServer.obj
 0001:0002baa0       ??1?$_Tree_comp@$0A@V?$_Tmap_traits@V?$basic_string@DU?$char_traits@D@std@@V?$allocator@D@2@@std@@PAP6AHV12@PAX@ZU?$less@V?$basic_string@DU?$char_traits@D@std@@V?$allocator@D@2@@std@@@2@V?$allocator@U?$pair@$$CBV?$basic_string@DU?$char_traits@D@std@@V?$allocator@D@2@@std@@PAP6AHV12@PAX@Z@std@@@2@$0A@@std@@@std@@QAE@XZ 1002caa0 f i SocketServer.obj
 0001:0002baf0       ??1?$_Tree_comp@$0A@V?$_Tmap_traits@V?$basic_string@DU?$char_traits@D@std@@V?$allocator@D@2@@std@@PAUcanal_data@@U?$less@V?$basic_string@DU?$char_traits@D@std@@V?$allocator@D@2@@std@@@2@V?$allocator@U?$pair@$$CBV?$basic_string@DU?$char_traits@D@std@@V?$allocator@D@2@@std@@PAUcanal_data@@@std@@@2@$0A@@std@@@std@@QAE@XZ 1002caf0 f i SocketServer.obj
 0001:0002bb40       ??1?$_Tree_comp@$0A@V?$_Tmap_traits@V?$basic_string@DU?$char_traits@D@std@@V?$allocator@D@2@@std@@PAUcanal_socket_data@@U?$less@V?$basic_string@DU?$char_traits@D@std@@V?$allocator@D@2@@std@@@2@V?$allocator@U?$pair@$$CBV?$basic_string@DU?$char_traits@D@std@@V?$allocator@D@2@@std@@PAUcanal_socket_data@@@std@@@2@$0A@@std@@@std@@QAE@XZ 1002cb40 f i SocketServer.obj
 0001:0002bb90       ??1?$_Tree_const_iterator@V?$_Tree_val@U?$_Tree_simple_types@U?$pair@$$CBV?$basic_string@DU?$char_traits@D@std@@V?$allocator@D@2@@std@@PAP6AHV12@PAX@Z@std@@@std@@@std@@@std@@QAE@XZ 1002cb90 f i SocketServer.obj
 0001:0002bbe0       ??1?$_Tree_const_iterator@V?$_Tree_val@U?$_Tree_simple_types@U?$pair@$$CBV?$basic_string@DU?$char_traits@D@std@@V?$allocator@D@2@@std@@PAUcanal_data@@@std@@@std@@@std@@@std@@QAE@XZ 1002cbe0 f i SocketServer.obj
 0001:0002bc30       ??1?$_Tree_const_iterator@V?$_Tree_val@U?$_Tree_simple_types@U?$pair@$$CBV?$basic_string@DU?$char_traits@D@std@@V?$allocator@D@2@@std@@PAUcanal_socket_data@@@std@@@std@@@std@@@std@@QAE@XZ 1002cc30 f i SocketServer.obj
 0001:0002bc80       ??1?$_Tree_iterator@V?$_Tree_val@U?$_Tree_simple_types@U?$pair@$$CBV?$basic_string@DU?$char_traits@D@std@@V?$allocator@D@2@@std@@PAP6AHV12@PAX@Z@std@@@std@@@std@@@std@@QAE@XZ 1002cc80 f i SocketServer.obj
 0001:0002bcd0       ??1?$_Tree_iterator@V?$_Tree_val@U?$_Tree_simple_types@U?$pair@$$CBV?$basic_string@DU?$char_traits@D@std@@V?$allocator@D@2@@std@@PAUcanal_data@@@std@@@std@@@std@@@std@@QAE@XZ 1002ccd0 f i SocketServer.obj
 0001:0002bd20       ??1?$_Tree_iterator@V?$_Tree_val@U?$_Tree_simple_types@U?$pair@$$CBV?$basic_string@DU?$char_traits@D@std@@V?$allocator@D@2@@std@@PAUcanal_socket_data@@@std@@@std@@@std@@@std@@QAE@XZ 1002cd20 f i SocketServer.obj
 0001:0002bd70       ??1?$_Tree_unchecked_const_iterator@V?$_Tree_val@U?$_Tree_simple_types@U?$pair@$$CBV?$basic_string@DU?$char_traits@D@std@@V?$allocator@D@2@@std@@PAP6AHV12@PAX@Z@std@@@std@@@std@@U_Iterator_base12@2@@std@@QAE@XZ 1002cd70 f i SocketServer.obj
 0001:0002bdc0       ??1?$_Tree_unchecked_const_iterator@V?$_Tree_val@U?$_Tree_simple_types@U?$pair@$$CBV?$basic_string@DU?$char_traits@D@std@@V?$allocator@D@2@@std@@PAUcanal_data@@@std@@@std@@@std@@U_Iterator_base12@2@@std@@QAE@XZ 1002cdc0 f i SocketServer.obj
 0001:0002be10       ??1?$_Tree_unchecked_const_iterator@V?$_Tree_val@U?$_Tree_simple_types@U?$pair@$$CBV?$basic_string@DU?$char_traits@D@std@@V?$allocator@D@2@@std@@PAUcanal_socket_data@@@std@@@std@@@std@@U_Iterator_base12@2@@std@@QAE@XZ 1002ce10 f i SocketServer.obj
 0001:0002be60       ??1?$_Tree_val@U?$_Tree_simple_types@U?$pair@$$CBV?$basic_string@DU?$char_traits@D@std@@V?$allocator@D@2@@std@@PAP6AHV12@PAX@Z@std@@@std@@@std@@QAE@XZ 1002ce60 f i SocketServer.obj
 0001:0002beb0       ??1?$_Tree_val@U?$_Tree_simple_types@U?$pair@$$CBV?$basic_string@DU?$char_traits@D@std@@V?$allocator@D@2@@std@@PAUcanal_data@@@std@@@std@@@std@@QAE@XZ 1002ceb0 f i SocketServer.obj
 0001:0002bf00       ??1?$_Tree_val@U?$_Tree_simple_types@U?$pair@$$CBV?$basic_string@DU?$char_traits@D@std@@V?$allocator@D@2@@std@@PAUcanal_socket_data@@@std@@@std@@@std@@QAE@XZ 1002cf00 f i SocketServer.obj
 0001:0002bf50       ??1?$_Vector_alloc@$0A@U?$_Vec_base_types@PAXV?$allocator@PAX@std@@@std@@@std@@QAE@XZ 1002cf50 f i SocketServer.obj
 0001:0002bfb0       ??1?$_Vector_const_iterator@V?$_Vector_val@U?$_Simple_types@PAX@std@@@std@@@std@@QAE@XZ 1002cfb0 f i SocketServer.obj
 0001:0002c000       ??1?$_Vector_iterator@V?$_Vector_val@U?$_Simple_types@PAX@std@@@std@@@std@@QAE@XZ 1002d000 f i SocketServer.obj
 0001:0002c050       ??1?$_Vector_val@U?$_Simple_types@PAX@std@@@std@@QAE@XZ 1002d050 f i SocketServer.obj
 0001:0002c0a0       ??1?$map@V?$basic_string@DU?$char_traits@D@std@@V?$allocator@D@2@@std@@PAP6AHV12@PAX@ZU?$less@V?$basic_string@DU?$char_traits@D@std@@V?$allocator@D@2@@std@@@2@V?$allocator@U?$pair@$$CBV?$basic_string@DU?$char_traits@D@std@@V?$allocator@D@2@@std@@PAP6AHV12@PAX@Z@std@@@2@@std@@QAE@XZ 1002d0a0 f i SocketServer.obj
 0001:0002c0f0       ??1?$map@V?$basic_string@DU?$char_traits@D@std@@V?$allocator@D@2@@std@@PAUcanal_data@@U?$less@V?$basic_string@DU?$char_traits@D@std@@V?$allocator@D@2@@std@@@2@V?$allocator@U?$pair@$$CBV?$basic_string@DU?$char_traits@D@std@@V?$allocator@D@2@@std@@PAUcanal_data@@@std@@@2@@std@@QAE@XZ 1002d0f0 f i SocketServer.obj
 0001:0002c140       ??1?$map@V?$basic_string@DU?$char_traits@D@std@@V?$allocator@D@2@@std@@PAUcanal_socket_data@@U?$less@V?$basic_string@DU?$char_traits@D@std@@V?$allocator@D@2@@std@@@2@V?$allocator@U?$pair@$$CBV?$basic_string@DU?$char_traits@D@std@@V?$allocator@D@2@@std@@PAUcanal_socket_data@@@std@@@2@@std@@QAE@XZ 1002d140 f i SocketServer.obj
 0001:0002c190       ??1?$pair@$$CBV?$basic_string@DU?$char_traits@D@std@@V?$allocator@D@2@@std@@PAP6AHV12@PAX@Z@std@@QAE@XZ 1002d190 f i SocketServer.obj
 0001:0002c1e0       ??1?$pair@$$CBV?$basic_string@DU?$char_traits@D@std@@V?$allocator@D@2@@std@@PAUcanal_data@@@std@@QAE@XZ 1002d1e0 f i SocketServer.obj
 0001:0002c230       ??1?$pair@$$CBV?$basic_string@DU?$char_traits@D@std@@V?$allocator@D@2@@std@@PAUcanal_socket_data@@@std@@QAE@XZ 1002d230 f i SocketServer.obj
 0001:0002c280       ??1?$pair@V?$_Tree_iterator@V?$_Tree_val@U?$_Tree_simple_types@U?$pair@$$CBV?$basic_string@DU?$char_traits@D@std@@V?$allocator@D@2@@std@@PAP6AHV12@PAX@Z@std@@@std@@@std@@@std@@V12@@std@@QAE@XZ 1002d280 f i SocketServer.obj
 0001:0002c2e0       ??1?$pair@V?$_Tree_iterator@V?$_Tree_val@U?$_Tree_simple_types@U?$pair@$$CBV?$basic_string@DU?$char_traits@D@std@@V?$allocator@D@2@@std@@PAP6AHV12@PAX@Z@std@@@std@@@std@@@std@@_N@std@@QAE@XZ 1002d2e0 f i SocketServer.obj
 0001:0002c330       ??1?$pair@V?$_Tree_iterator@V?$_Tree_val@U?$_Tree_simple_types@U?$pair@$$CBV?$basic_string@DU?$char_traits@D@std@@V?$allocator@D@2@@std@@PAUcanal_data@@@std@@@std@@@std@@@std@@_N@std@@QAE@XZ 1002d330 f i SocketServer.obj
 0001:0002c380       ??1?$pair@V?$_Tree_iterator@V?$_Tree_val@U?$_Tree_simple_types@U?$pair@$$CBV?$basic_string@DU?$char_traits@D@std@@V?$allocator@D@2@@std@@PAUcanal_socket_data@@@std@@@std@@@std@@@std@@V12@@std@@QAE@XZ 1002d380 f i SocketServer.obj
 0001:0002c3e0       ??1?$pair@V?$_Tree_iterator@V?$_Tree_val@U?$_Tree_simple_types@U?$pair@$$CBV?$basic_string@DU?$char_traits@D@std@@V?$allocator@D@2@@std@@PAUcanal_socket_data@@@std@@@std@@@std@@@std@@_N@std@@QAE@XZ 1002d3e0 f i SocketServer.obj
 0001:0002c430       ??1?$pair@V?$basic_string@DU?$char_traits@D@std@@V?$allocator@D@2@@std@@PAP6AHV12@PAX@Z@std@@QAE@XZ 1002d430 f i SocketServer.obj
 0001:0002c480       ??1?$pair@V?$basic_string@DU?$char_traits@D@std@@V?$allocator@D@2@@std@@PAUcanal_data@@@std@@QAE@XZ 1002d480 f i SocketServer.obj
 0001:0002c4d0       ??1?$pair@V?$basic_string@DU?$char_traits@D@std@@V?$allocator@D@2@@std@@PAUcanal_socket_data@@@std@@QAE@XZ 1002d4d0 f i SocketServer.obj
 0001:0002c520       ??1?$vector@PAXV?$allocator@PAX@std@@@std@@QAE@XZ 1002d520 f i SocketServer.obj
 0001:0002c580       ??1SocketServer@@QAE@XZ    1002d580 f   SocketServer.obj
 0001:0002ca40       ??1canal_data@@QAE@XZ      1002da40 f i SocketServer.obj
 0001:0002caa0       ??1canal_socket_data@@QAE@XZ 1002daa0 f i SocketServer.obj
 0001:0002cb00       ??4?$_Iterator012@Ubidirectional_iterator_tag@std@@U?$pair@$$CBV?$basic_string@DU?$char_traits@D@std@@V?$allocator@D@2@@std@@PAP6AHV12@PAX@Z@2@HPBU32@ABU32@U_Iterator_base12@2@@std@@QAEAAU01@ABU01@@Z 1002db00 f i SocketServer.obj
 0001:0002cb60       ??4?$_Iterator012@Ubidirectional_iterator_tag@std@@U?$pair@$$CBV?$basic_string@DU?$char_traits@D@std@@V?$allocator@D@2@@std@@PAUcanal_data@@@2@HPBU32@ABU32@U_Iterator_base12@2@@std@@QAEAAU01@ABU01@@Z 1002db60 f i SocketServer.obj
 0001:0002cbc0       ??4?$_Iterator012@Ubidirectional_iterator_tag@std@@U?$pair@$$CBV?$basic_string@DU?$char_traits@D@std@@V?$allocator@D@2@@std@@PAUcanal_socket_data@@@2@HPBU32@ABU32@U_Iterator_base12@2@@std@@QAEAAU01@ABU01@@Z 1002dbc0 f i SocketServer.obj
 0001:0002cc20       ??4?$_Tree_const_iterator@V?$_Tree_val@U?$_Tree_simple_types@U?$pair@$$CBV?$basic_string@DU?$char_traits@D@std@@V?$allocator@D@2@@std@@PAP6AHV12@PAX@Z@std@@@std@@@std@@@std@@QAEAAV01@ABV01@@Z 1002dc20 f i SocketServer.obj
 0001:0002cc80       ??4?$_Tree_const_iterator@V?$_Tree_val@U?$_Tree_simple_types@U?$pair@$$CBV?$basic_string@DU?$char_traits@D@std@@V?$allocator@D@2@@std@@PAUcanal_data@@@std@@@std@@@std@@@std@@QAEAAV01@ABV01@@Z 1002dc80 f i SocketServer.obj
 0001:0002cce0       ??4?$_Tree_const_iterator@V?$_Tree_val@U?$_Tree_simple_types@U?$pair@$$CBV?$basic_string@DU?$char_traits@D@std@@V?$allocator@D@2@@std@@PAUcanal_socket_data@@@std@@@std@@@std@@@std@@QAEAAV01@ABV01@@Z 1002dce0 f i SocketServer.obj
 0001:0002cd40       ??4?$_Tree_iterator@V?$_Tree_val@U?$_Tree_simple_types@U?$pair@$$CBV?$basic_string@DU?$char_traits@D@std@@V?$allocator@D@2@@std@@PAP6AHV12@PAX@Z@std@@@std@@@std@@@std@@QAEAAV01@ABV01@@Z 1002dd40 f i SocketServer.obj
 0001:0002cda0       ??4?$_Tree_iterator@V?$_Tree_val@U?$_Tree_simple_types@U?$pair@$$CBV?$basic_string@DU?$char_traits@D@std@@V?$allocator@D@2@@std@@PAUcanal_data@@@std@@@std@@@std@@@std@@QAEAAV01@ABV01@@Z 1002dda0 f i SocketServer.obj
 0001:0002ce00       ??4?$_Tree_iterator@V?$_Tree_val@U?$_Tree_simple_types@U?$pair@$$CBV?$basic_string@DU?$char_traits@D@std@@V?$allocator@D@2@@std@@PAUcanal_socket_data@@@std@@@std@@@std@@@std@@QAEAAV01@ABV01@@Z 1002de00 f i SocketServer.obj
 0001:0002ce60       ??4?$_Tree_unchecked_const_iterator@V?$_Tree_val@U?$_Tree_simple_types@U?$pair@$$CBV?$basic_string@DU?$char_traits@D@std@@V?$allocator@D@2@@std@@PAP6AHV12@PAX@Z@std@@@std@@@std@@U_Iterator_base12@2@@std@@QAEAAV01@ABV01@@Z 1002de60 f i SocketServer.obj
 0001:0002ced0       ??4?$_Tree_unchecked_const_iterator@V?$_Tree_val@U?$_Tree_simple_types@U?$pair@$$CBV?$basic_string@DU?$char_traits@D@std@@V?$allocator@D@2@@std@@PAUcanal_data@@@std@@@std@@@std@@U_Iterator_base12@2@@std@@QAEAAV01@ABV01@@Z 1002ded0 f i SocketServer.obj
 0001:0002cf40       ??4?$_Tree_unchecked_const_iterator@V?$_Tree_val@U?$_Tree_simple_types@U?$pair@$$CBV?$basic_string@DU?$char_traits@D@std@@V?$allocator@D@2@@std@@PAUcanal_socket_data@@@std@@@std@@@std@@U_Iterator_base12@2@@std@@QAEAAV01@ABV01@@Z 1002df40 f i SocketServer.obj
 0001:0002cfb0       ??4?$basic_string@DU?$char_traits@D@std@@V?$allocator@D@2@@std@@QAEAAV01@ABV01@@Z 1002dfb0 f i SocketServer.obj
 0001:0002d080       ??8?$_Tree_const_iterator@V?$_Tree_val@U?$_Tree_simple_types@U?$pair@$$CBV?$basic_string@DU?$char_traits@D@std@@V?$allocator@D@2@@std@@PAP6AHV12@PAX@Z@std@@@std@@@std@@@std@@QBE_NABV01@@Z 1002e080 f i SocketServer.obj
 0001:0002d1b0       ??8?$_Tree_const_iterator@V?$_Tree_val@U?$_Tree_simple_types@U?$pair@$$CBV?$basic_string@DU?$char_traits@D@std@@V?$allocator@D@2@@std@@PAUcanal_data@@@std@@@std@@@std@@@std@@QBE_NABV01@@Z 1002e1b0 f i SocketServer.obj
 0001:0002d2e0       ??8?$_Tree_const_iterator@V?$_Tree_val@U?$_Tree_simple_types@U?$pair@$$CBV?$basic_string@DU?$char_traits@D@std@@V?$allocator@D@2@@std@@PAUcanal_socket_data@@@std@@@std@@@std@@@std@@QBE_NABV01@@Z 1002e2e0 f i SocketServer.obj
 0001:0002d410       ??8?$_Vector_const_iterator@V?$_Vector_val@U?$_Simple_types@PAX@std@@@std@@@std@@QBE_NABV01@@Z 1002e410 f i SocketServer.obj
 0001:0002d4a0       ??9?$_Tree_const_iterator@V?$_Tree_val@U?$_Tree_simple_types@U?$pair@$$CBV?$basic_string@DU?$char_traits@D@std@@V?$allocator@D@2@@std@@PAP6AHV12@PAX@Z@std@@@std@@@std@@@std@@QBE_NABV01@@Z 1002e4a0 f i SocketServer.obj
 0001:0002d530       ??9?$_Tree_const_iterator@V?$_Tree_val@U?$_Tree_simple_types@U?$pair@$$CBV?$basic_string@DU?$char_traits@D@std@@V?$allocator@D@2@@std@@PAUcanal_data@@@std@@@std@@@std@@@std@@QBE_NABV01@@Z 1002e530 f i SocketServer.obj
 0001:0002d5c0       ??9?$_Tree_const_iterator@V?$_Tree_val@U?$_Tree_simple_types@U?$pair@$$CBV?$basic_string@DU?$char_traits@D@std@@V?$allocator@D@2@@std@@PAUcanal_socket_data@@@std@@@std@@@std@@@std@@QBE_NABV01@@Z 1002e5c0 f i SocketServer.obj
 0001:0002d650       ??9?$_Vector_const_iterator@V?$_Vector_val@U?$_Simple_types@PAX@std@@@std@@@std@@QBE_NABV01@@Z 1002e650 f i SocketServer.obj
 0001:0002d6e0       ??A?$map@V?$basic_string@DU?$char_traits@D@std@@V?$allocator@D@2@@std@@PAP6AHV12@PAX@ZU?$less@V?$basic_string@DU?$char_traits@D@std@@V?$allocator@D@2@@std@@@2@V?$allocator@U?$pair@$$CBV?$basic_string@DU?$char_traits@D@std@@V?$allocator@D@2@@std@@PAP6AHV12@PAX@Z@std@@@2@@std@@QAEAAPAP6AHV?$basic_string@DU?$char_traits@D@std@@V?$allocator@D@2@@1@PAX@ZABV21@@Z 1002e6e0 f i SocketServer.obj
 0001:0002d9e0       ??A?$map@V?$basic_string@DU?$char_traits@D@std@@V?$allocator@D@2@@std@@PAUcanal_data@@U?$less@V?$basic_string@DU?$char_traits@D@std@@V?$allocator@D@2@@std@@@2@V?$allocator@U?$pair@$$CBV?$basic_string@DU?$char_traits@D@std@@V?$allocator@D@2@@std@@PAUcanal_data@@@std@@@2@@std@@QAEAAPAUcanal_data@@ABV?$basic_string@DU?$char_traits@D@std@@V?$allocator@D@2@@1@@Z 1002e9e0 f i SocketServer.obj
 0001:0002dce0       ??A?$map@V?$basic_string@DU?$char_traits@D@std@@V?$allocator@D@2@@std@@PAUcanal_socket_data@@U?$less@V?$basic_string@DU?$char_traits@D@std@@V?$allocator@D@2@@std@@@2@V?$allocator@U?$pair@$$CBV?$basic_string@DU?$char_traits@D@std@@V?$allocator@D@2@@std@@PAUcanal_socket_data@@@std@@@2@@std@@QAEAAPAUcanal_socket_data@@ABV?$basic_string@DU?$char_traits@D@std@@V?$allocator@D@2@@1@@Z 1002ece0 f i SocketServer.obj
 0001:0002dfe0       ??C?$_Tree_iterator@V?$_Tree_val@U?$_Tree_simple_types@U?$pair@$$CBV?$basic_string@DU?$char_traits@D@std@@V?$allocator@D@2@@std@@PAP6AHV12@PAX@Z@std@@@std@@@std@@@std@@QBEPAU?$pair@$$CBV?$basic_string@DU?$char_traits@D@std@@V?$allocator@D@2@@std@@PAP6AHV12@PAX@Z@1@XZ 1002efe0 f i SocketServer.obj
 0001:0002e040       ??C?$_Tree_iterator@V?$_Tree_val@U?$_Tree_simple_types@U?$pair@$$CBV?$basic_string@DU?$char_traits@D@std@@V?$allocator@D@2@@std@@PAUcanal_data@@@std@@@std@@@std@@@std@@QBEPAU?$pair@$$CBV?$basic_string@DU?$char_traits@D@std@@V?$allocator@D@2@@std@@PAUcanal_data@@@1@XZ 1002f040 f i SocketServer.obj
 0001:0002e0a0       ??C?$_Tree_iterator@V?$_Tree_val@U?$_Tree_simple_types@U?$pair@$$CBV?$basic_string@DU?$char_traits@D@std@@V?$allocator@D@2@@std@@PAUcanal_socket_data@@@std@@@std@@@std@@@std@@QBEPAU?$pair@$$CBV?$basic_string@DU?$char_traits@D@std@@V?$allocator@D@2@@std@@PAUcanal_socket_data@@@1@XZ 1002f0a0 f i SocketServer.obj
 0001:0002e100       ??D?$_Tree_const_iterator@V?$_Tree_val@U?$_Tree_simple_types@U?$pair@$$CBV?$basic_string@DU?$char_traits@D@std@@V?$allocator@D@2@@std@@PAP6AHV12@PAX@Z@std@@@std@@@std@@@std@@QBEABU?$pair@$$CBV?$basic_string@DU?$char_traits@D@std@@V?$allocator@D@2@@std@@PAP6AHV12@PAX@Z@1@XZ 1002f100 f i SocketServer.obj
 0001:0002e210       ??D?$_Tree_const_iterator@V?$_Tree_val@U?$_Tree_simple_types@U?$pair@$$CBV?$basic_string@DU?$char_traits@D@std@@V?$allocator@D@2@@std@@PAUcanal_data@@@std@@@std@@@std@@@std@@QBEABU?$pair@$$CBV?$basic_string@DU?$char_traits@D@std@@V?$allocator@D@2@@std@@PAUcanal_data@@@1@XZ 1002f210 f i SocketServer.obj
 0001:0002e320       ??D?$_Tree_const_iterator@V?$_Tree_val@U?$_Tree_simple_types@U?$pair@$$CBV?$basic_string@DU?$char_traits@D@std@@V?$allocator@D@2@@std@@PAUcanal_socket_data@@@std@@@std@@@std@@@std@@QBEABU?$pair@$$CBV?$basic_string@DU?$char_traits@D@std@@V?$allocator@D@2@@std@@PAUcanal_socket_data@@@1@XZ 1002f320 f i SocketServer.obj
 0001:0002e430       ??D?$_Tree_iterator@V?$_Tree_val@U?$_Tree_simple_types@U?$pair@$$CBV?$basic_string@DU?$char_traits@D@std@@V?$allocator@D@2@@std@@PAP6AHV12@PAX@Z@std@@@std@@@std@@@std@@QBEAAU?$pair@$$CBV?$basic_string@DU?$char_traits@D@std@@V?$allocator@D@2@@std@@PAP6AHV12@PAX@Z@1@XZ 1002f430 f i SocketServer.obj
 0001:0002e480       ??D?$_Tree_iterator@V?$_Tree_val@U?$_Tree_simple_types@U?$pair@$$CBV?$basic_string@DU?$char_traits@D@std@@V?$allocator@D@2@@std@@PAUcanal_data@@@std@@@std@@@std@@@std@@QBEAAU?$pair@$$CBV?$basic_string@DU?$char_traits@D@std@@V?$allocator@D@2@@std@@PAUcanal_data@@@1@XZ 1002f480 f i SocketServer.obj
 0001:0002e4d0       ??D?$_Tree_iterator@V?$_Tree_val@U?$_Tree_simple_types@U?$pair@$$CBV?$basic_string@DU?$char_traits@D@std@@V?$allocator@D@2@@std@@PAUcanal_socket_data@@@std@@@std@@@std@@@std@@QBEAAU?$pair@$$CBV?$basic_string@DU?$char_traits@D@std@@V?$allocator@D@2@@std@@PAUcanal_socket_data@@@1@XZ 1002f4d0 f i SocketServer.obj
 0001:0002e520       ??D?$_Vector_const_iterator@V?$_Vector_val@U?$_Simple_types@PAX@std@@@std@@@std@@QBEABQAXXZ 1002f520 f i SocketServer.obj
 0001:0002e630       ??D?$_Vector_iterator@V?$_Vector_val@U?$_Simple_types@PAX@std@@@std@@@std@@QBEAAPAXXZ 1002f630 f i SocketServer.obj
 0001:0002e680       ??E?$_Tree_const_iterator@V?$_Tree_val@U?$_Tree_simple_types@U?$pair@$$CBV?$basic_string@DU?$char_traits@D@std@@V?$allocator@D@2@@std@@PAP6AHV12@PAX@Z@std@@@std@@@std@@@std@@QAE?AV01@H@Z 1002f680 f i SocketServer.obj
 0001:0002e7a0       ??E?$_Tree_const_iterator@V?$_Tree_val@U?$_Tree_simple_types@U?$pair@$$CBV?$basic_string@DU?$char_traits@D@std@@V?$allocator@D@2@@std@@PAP6AHV12@PAX@Z@std@@@std@@@std@@@std@@QAEAAV01@XZ 1002f7a0 f i SocketServer.obj
 0001:0002e8b0       ??E?$_Tree_const_iterator@V?$_Tree_val@U?$_Tree_simple_types@U?$pair@$$CBV?$basic_string@DU?$char_traits@D@std@@V?$allocator@D@2@@std@@PAUcanal_data@@@std@@@std@@@std@@@std@@QAE?AV01@H@Z 1002f8b0 f i SocketServer.obj
 0001:0002e9d0       ??E?$_Tree_const_iterator@V?$_Tree_val@U?$_Tree_simple_types@U?$pair@$$CBV?$basic_string@DU?$char_traits@D@std@@V?$allocator@D@2@@std@@PAUcanal_data@@@std@@@std@@@std@@@std@@QAEAAV01@XZ 1002f9d0 f i SocketServer.obj
 0001:0002eae0       ??E?$_Tree_const_iterator@V?$_Tree_val@U?$_Tree_simple_types@U?$pair@$$CBV?$basic_string@DU?$char_traits@D@std@@V?$allocator@D@2@@std@@PAUcanal_socket_data@@@std@@@std@@@std@@@std@@QAE?AV01@H@Z 1002fae0 f i SocketServer.obj
 0001:0002ec00       ??E?$_Tree_const_iterator@V?$_Tree_val@U?$_Tree_simple_types@U?$pair@$$CBV?$basic_string@DU?$char_traits@D@std@@V?$allocator@D@2@@std@@PAUcanal_socket_data@@@std@@@std@@@std@@@std@@QAEAAV01@XZ 1002fc00 f i SocketServer.obj
 0001:0002ed10       ??E?$_Tree_iterator@V?$_Tree_val@U?$_Tree_simple_types@U?$pair@$$CBV?$basic_string@DU?$char_traits@D@std@@V?$allocator@D@2@@std@@PAP6AHV12@PAX@Z@std@@@std@@@std@@@std@@QAEAAV01@XZ 1002fd10 f i SocketServer.obj
 0001:0002ed70       ??E?$_Tree_iterator@V?$_Tree_val@U?$_Tree_simple_types@U?$pair@$$CBV?$basic_string@DU?$char_traits@D@std@@V?$allocator@D@2@@std@@PAUcanal_data@@@std@@@std@@@std@@@std@@QAEAAV01@XZ 1002fd70 f i SocketServer.obj
 0001:0002edd0       ??E?$_Tree_iterator@V?$_Tree_val@U?$_Tree_simple_types@U?$pair@$$CBV?$basic_string@DU?$char_traits@D@std@@V?$allocator@D@2@@std@@PAUcanal_socket_data@@@std@@@std@@@std@@@std@@QAEAAV01@XZ 1002fdd0 f i SocketServer.obj
 0001:0002ee30       ??E?$_Tree_unchecked_const_iterator@V?$_Tree_val@U?$_Tree_simple_types@U?$pair@$$CBV?$basic_string@DU?$char_traits@D@std@@V?$allocator@D@2@@std@@PAP6AHV12@PAX@Z@std@@@std@@@std@@U_Iterator_base12@2@@std@@QAEAAV01@XZ 1002fe30 f i SocketServer.obj
 0001:0002ef60       ??E?$_Tree_unchecked_const_iterator@V?$_Tree_val@U?$_Tree_simple_types@U?$pair@$$CBV?$basic_string@DU?$char_traits@D@std@@V?$allocator@D@2@@std@@PAUcanal_data@@@std@@@std@@@std@@U_Iterator_base12@2@@std@@QAEAAV01@XZ 1002ff60 f i SocketServer.obj
 0001:0002f090       ??E?$_Tree_unchecked_const_iterator@V?$_Tree_val@U?$_Tree_simple_types@U?$pair@$$CBV?$basic_string@DU?$char_traits@D@std@@V?$allocator@D@2@@std@@PAUcanal_socket_data@@@std@@@std@@@std@@U_Iterator_base12@2@@std@@QAEAAV01@XZ 10030090 f i SocketServer.obj
 0001:0002f1c0       ??E?$_Vector_const_iterator@V?$_Vector_val@U?$_Simple_types@PAX@std@@@std@@@std@@QAEAAV01@XZ 100301c0 f i SocketServer.obj
 0001:0002f2d0       ??E?$_Vector_iterator@V?$_Vector_val@U?$_Simple_types@PAX@std@@@std@@@std@@QAEAAV01@XZ 100302d0 f i SocketServer.obj
 0001:0002f330       ??F?$_Tree_const_iterator@V?$_Tree_val@U?$_Tree_simple_types@U?$pair@$$CBV?$basic_string@DU?$char_traits@D@std@@V?$allocator@D@2@@std@@PAP6AHV12@PAX@Z@std@@@std@@@std@@@std@@QAEAAV01@XZ 10030330 f i SocketServer.obj
 0001:0002f4c0       ??F?$_Tree_const_iterator@V?$_Tree_val@U?$_Tree_simple_types@U?$pair@$$CBV?$basic_string@DU?$char_traits@D@std@@V?$allocator@D@2@@std@@PAUcanal_data@@@std@@@std@@@std@@@std@@QAEAAV01@XZ 100304c0 f i SocketServer.obj
 0001:0002f650       ??F?$_Tree_const_iterator@V?$_Tree_val@U?$_Tree_simple_types@U?$pair@$$CBV?$basic_string@DU?$char_traits@D@std@@V?$allocator@D@2@@std@@PAUcanal_socket_data@@@std@@@std@@@std@@@std@@QAEAAV01@XZ 10030650 f i SocketServer.obj
 0001:0002f7e0       ??F?$_Tree_iterator@V?$_Tree_val@U?$_Tree_simple_types@U?$pair@$$CBV?$basic_string@DU?$char_traits@D@std@@V?$allocator@D@2@@std@@PAP6AHV12@PAX@Z@std@@@std@@@std@@@std@@QAEAAV01@XZ 100307e0 f i SocketServer.obj
 0001:0002f840       ??F?$_Tree_iterator@V?$_Tree_val@U?$_Tree_simple_types@U?$pair@$$CBV?$basic_string@DU?$char_traits@D@std@@V?$allocator@D@2@@std@@PAUcanal_data@@@std@@@std@@@std@@@std@@QAEAAV01@XZ 10030840 f i SocketServer.obj
 0001:0002f8a0       ??F?$_Tree_iterator@V?$_Tree_val@U?$_Tree_simple_types@U?$pair@$$CBV?$basic_string@DU?$char_traits@D@std@@V?$allocator@D@2@@std@@PAUcanal_socket_data@@@std@@@std@@@std@@@std@@QAEAAV01@XZ 100308a0 f i SocketServer.obj
 0001:0002f900       ??F?$_Tree_unchecked_const_iterator@V?$_Tree_val@U?$_Tree_simple_types@U?$pair@$$CBV?$basic_string@DU?$char_traits@D@std@@V?$allocator@D@2@@std@@PAP6AHV12@PAX@Z@std@@@std@@@std@@U_Iterator_base12@2@@std@@QAEAAV01@XZ 10030900 f i SocketServer.obj
 0001:0002fa60       ??F?$_Tree_unchecked_const_iterator@V?$_Tree_val@U?$_Tree_simple_types@U?$pair@$$CBV?$basic_string@DU?$char_traits@D@std@@V?$allocator@D@2@@std@@PAUcanal_data@@@std@@@std@@@std@@U_Iterator_base12@2@@std@@QAEAAV01@XZ 10030a60 f i SocketServer.obj
 0001:0002fbc0       ??F?$_Tree_unchecked_const_iterator@V?$_Tree_val@U?$_Tree_simple_types@U?$pair@$$CBV?$basic_string@DU?$char_traits@D@std@@V?$allocator@D@2@@std@@PAUcanal_socket_data@@@std@@@std@@@std@@U_Iterator_base12@2@@std@@QAEAAV01@XZ 10030bc0 f i SocketServer.obj
 0001:0002fd20       ??_G?$pair@$$CBV?$basic_string@DU?$char_traits@D@std@@V?$allocator@D@2@@std@@PAP6AHV12@PAX@Z@std@@QAEPAXI@Z 10030d20 f i SocketServer.obj
 0001:0002fd90       ??_G?$pair@$$CBV?$basic_string@DU?$char_traits@D@std@@V?$allocator@D@2@@std@@PAUcanal_data@@@std@@QAEPAXI@Z 10030d90 f i SocketServer.obj
 0001:0002fe00       ??_G?$pair@$$CBV?$basic_string@DU?$char_traits@D@std@@V?$allocator@D@2@@std@@PAUcanal_socket_data@@@std@@QAEPAXI@Z 10030e00 f i SocketServer.obj
 0001:0002fe70       ??_Gcanal_data@@QAEPAXI@Z  10030e70 f i SocketServer.obj
 0001:0002fee0       ??_Gcanal_socket_data@@QAEPAXI@Z 10030ee0 f i SocketServer.obj
 0001:0002ff50       ?_Alloc_proxy@?$_Tree_alloc@$0A@U?$_Tree_base_types@U?$pair@$$CBV?$basic_string@DU?$char_traits@D@std@@V?$allocator@D@2@@std@@PAP6AHV12@PAX@Z@std@@V?$allocator@U?$pair@$$CBV?$basic_string@DU?$char_traits@D@std@@V?$allocator@D@2@@std@@PAP6AHV12@PAX@Z@std@@@2@@std@@@std@@QAEXXZ 10030f50 f i SocketServer.obj
 0001:00030030       ?_Alloc_proxy@?$_Tree_alloc@$0A@U?$_Tree_base_types@U?$pair@$$CBV?$basic_string@DU?$char_traits@D@std@@V?$allocator@D@2@@std@@PAUcanal_data@@@std@@V?$allocator@U?$pair@$$CBV?$basic_string@DU?$char_traits@D@std@@V?$allocator@D@2@@std@@PAUcanal_data@@@std@@@2@@std@@@std@@QAEXXZ 10031030 f i SocketServer.obj
 0001:00030110       ?_Alloc_proxy@?$_Tree_alloc@$0A@U?$_Tree_base_types@U?$pair@$$CBV?$basic_string@DU?$char_traits@D@std@@V?$allocator@D@2@@std@@PAUcanal_socket_data@@@std@@V?$allocator@U?$pair@$$CBV?$basic_string@DU?$char_traits@D@std@@V?$allocator@D@2@@std@@PAUcanal_socket_data@@@std@@@2@@std@@@std@@QAEXXZ 10031110 f i SocketServer.obj
 0001:000301f0       ?_Alloc_proxy@?$_Vector_alloc@$0A@U?$_Vec_base_types@PAXV?$allocator@PAX@std@@@std@@@std@@QAEXXZ 100311f0 f i SocketServer.obj
 0001:000302c0       ?_Buyheadnode@?$_Tree_alloc@$0A@U?$_Tree_base_types@U?$pair@$$CBV?$basic_string@DU?$char_traits@D@std@@V?$allocator@D@2@@std@@PAP6AHV12@PAX@Z@std@@V?$allocator@U?$pair@$$CBV?$basic_string@DU?$char_traits@D@std@@V?$allocator@D@2@@std@@PAP6AHV12@PAX@Z@std@@@2@@std@@@std@@QAEPAU?$_Tree_node@U?$pair@$$CBV?$basic_string@DU?$char_traits@D@std@@V?$allocator@D@2@@std@@PAP6AHV12@PAX@Z@std@@PAX@2@XZ 100312c0 f i SocketServer.obj
 0001:00030520       ?_Buyheadnode@?$_Tree_alloc@$0A@U?$_Tree_base_types@U?$pair@$$CBV?$basic_string@DU?$char_traits@D@std@@V?$allocator@D@2@@std@@PAUcanal_data@@@std@@V?$allocator@U?$pair@$$CBV?$basic_string@DU?$char_traits@D@std@@V?$allocator@D@2@@std@@PAUcanal_data@@@std@@@2@@std@@@std@@QAEPAU?$_Tree_node@U?$pair@$$CBV?$basic_string@DU?$char_traits@D@std@@V?$allocator@D@2@@std@@PAUcanal_data@@@std@@PAX@2@XZ 10031520 f i SocketServer.obj
 0001:00030780       ?_Buyheadnode@?$_Tree_alloc@$0A@U?$_Tree_base_types@U?$pair@$$CBV?$basic_string@DU?$char_traits@D@std@@V?$allocator@D@2@@std@@PAUcanal_socket_data@@@std@@V?$allocator@U?$pair@$$CBV?$basic_string@DU?$char_traits@D@std@@V?$allocator@D@2@@std@@PAUcanal_socket_data@@@std@@@2@@std@@@std@@QAEPAU?$_Tree_node@U?$pair@$$CBV?$basic_string@DU?$char_traits@D@std@@V?$allocator@D@2@@std@@PAUcanal_socket_data@@@std@@PAX@2@XZ 10031780 f i SocketServer.obj
 0001:000309e0       ?_Buynode0@?$_Tree_buy@U?$pair@$$CBV?$basic_string@DU?$char_traits@D@std@@V?$allocator@D@2@@std@@PAP6AHV12@PAX@Z@std@@V?$allocator@U?$pair@$$CBV?$basic_string@DU?$char_traits@D@std@@V?$allocator@D@2@@std@@PAP6AHV12@PAX@Z@std@@@2@@std@@QAEPAU?$_Tree_node@U?$pair@$$CBV?$basic_string@DU?$char_traits@D@std@@V?$allocator@D@2@@std@@PAP6AHV12@PAX@Z@std@@PAX@2@XZ 100319e0 f i SocketServer.obj
 0001:00030bf0       ?_Buynode0@?$_Tree_buy@U?$pair@$$CBV?$basic_string@DU?$char_traits@D@std@@V?$allocator@D@2@@std@@PAUcanal_data@@@std@@V?$allocator@U?$pair@$$CBV?$basic_string@DU?$char_traits@D@std@@V?$allocator@D@2@@std@@PAUcanal_data@@@std@@@2@@std@@QAEPAU?$_Tree_node@U?$pair@$$CBV?$basic_string@DU?$char_traits@D@std@@V?$allocator@D@2@@std@@PAUcanal_data@@@std@@PAX@2@XZ 10031bf0 f i SocketServer.obj
 0001:00030e00       ?_Buynode0@?$_Tree_buy@U?$pair@$$CBV?$basic_string@DU?$char_traits@D@std@@V?$allocator@D@2@@std@@PAUcanal_socket_data@@@std@@V?$allocator@U?$pair@$$CBV?$basic_string@DU?$char_traits@D@std@@V?$allocator@D@2@@std@@PAUcanal_socket_data@@@std@@@2@@std@@QAEPAU?$_Tree_node@U?$pair@$$CBV?$basic_string@DU?$char_traits@D@std@@V?$allocator@D@2@@std@@PAUcanal_socket_data@@@std@@PAX@2@XZ 10031e00 f i SocketServer.obj
 0001:00031010       ?_Change_alloc@?$_String_alloc@$0A@U?$_String_base_types@DV?$allocator@D@std@@@std@@@std@@QAEXABU?$_Wrap_alloc@V?$allocator@D@std@@@2@@Z 10032010 f i SocketServer.obj
 0001:00031050       ?_Color@?$_Tree_val@U?$_Tree_simple_types@U?$pair@$$CBV?$basic_string@DU?$char_traits@D@std@@V?$allocator@D@2@@std@@PAP6AHV12@PAX@Z@std@@@std@@@std@@SAAADPAU?$_Tree_node@U?$pair@$$CBV?$basic_string@DU?$char_traits@D@std@@V?$allocator@D@2@@std@@PAP6AHV12@PAX@Z@std@@PAX@2@@Z 10032050 f i SocketServer.obj
 0001:00031090       ?_Color@?$_Tree_val@U?$_Tree_simple_types@U?$pair@$$CBV?$basic_string@DU?$char_traits@D@std@@V?$allocator@D@2@@std@@PAUcanal_data@@@std@@@std@@@std@@SAAADPAU?$_Tree_node@U?$pair@$$CBV?$basic_string@DU?$char_traits@D@std@@V?$allocator@D@2@@std@@PAUcanal_data@@@std@@PAX@2@@Z 10032090 f i SocketServer.obj
 0001:000310d0       ?_Color@?$_Tree_val@U?$_Tree_simple_types@U?$pair@$$CBV?$basic_string@DU?$char_traits@D@std@@V?$allocator@D@2@@std@@PAUcanal_socket_data@@@std@@@std@@@std@@SAAADPAU?$_Tree_node@U?$pair@$$CBV?$basic_string@DU?$char_traits@D@std@@V?$allocator@D@2@@std@@PAUcanal_socket_data@@@std@@PAX@2@@Z 100320d0 f i SocketServer.obj
 0001:00031110       ?_Compat@?$_Vector_const_iterator@V?$_Vector_val@U?$_Simple_types@PAX@std@@@std@@@std@@QBEXABV12@@Z 10032110 f i SocketServer.obj
 0001:00031210       ?_Destroy@?$vector@PAXV?$allocator@PAX@std@@@std@@IAEXPAPAX0@Z 10032210 f i SocketServer.obj
 0001:000312c0       ?_Destroy_if_not_nil@?$_Tree@V?$_Tmap_traits@V?$basic_string@DU?$char_traits@D@std@@V?$allocator@D@2@@std@@PAP6AHV12@PAX@ZU?$less@V?$basic_string@DU?$char_traits@D@std@@V?$allocator@D@2@@std@@@2@V?$allocator@U?$pair@$$CBV?$basic_string@DU?$char_traits@D@std@@V?$allocator@D@2@@std@@PAP6AHV12@PAX@Z@std@@@2@$0A@@std@@@std@@IAEXPAU?$_Tree_node@U?$pair@$$CBV?$basic_string@DU?$char_traits@D@std@@V?$allocator@D@2@@std@@PAP6AHV12@PAX@Z@std@@PAX@2@@Z 100322c0 f i SocketServer.obj
 0001:00031370       ?_Destroy_if_not_nil@?$_Tree@V?$_Tmap_traits@V?$basic_string@DU?$char_traits@D@std@@V?$allocator@D@2@@std@@PAUcanal_data@@U?$less@V?$basic_string@DU?$char_traits@D@std@@V?$allocator@D@2@@std@@@2@V?$allocator@U?$pair@$$CBV?$basic_string@DU?$char_traits@D@std@@V?$allocator@D@2@@std@@PAUcanal_data@@@std@@@2@$0A@@std@@@std@@IAEXPAU?$_Tree_node@U?$pair@$$CBV?$basic_string@DU?$char_traits@D@std@@V?$allocator@D@2@@std@@PAUcanal_data@@@std@@PAX@2@@Z 10032370 f i SocketServer.obj
 0001:00031420       ?_Destroy_if_not_nil@?$_Tree@V?$_Tmap_traits@V?$basic_string@DU?$char_traits@D@std@@V?$allocator@D@2@@std@@PAUcanal_socket_data@@U?$less@V?$basic_string@DU?$char_traits@D@std@@V?$allocator@D@2@@std@@@2@V?$allocator@U?$pair@$$CBV?$basic_string@DU?$char_traits@D@std@@V?$allocator@D@2@@std@@PAUcanal_socket_data@@@std@@@2@$0A@@std@@@std@@IAEXPAU?$_Tree_node@U?$pair@$$CBV?$basic_string@DU?$char_traits@D@std@@V?$allocator@D@2@@std@@PAUcanal_socket_data@@@std@@PAX@2@@Z 10032420 f i SocketServer.obj
 0001:000314d0       ?_Eqrange@?$_Tree@V?$_Tmap_traits@V?$basic_string@DU?$char_traits@D@std@@V?$allocator@D@2@@std@@PAP6AHV12@PAX@ZU?$less@V?$basic_string@DU?$char_traits@D@std@@V?$allocator@D@2@@std@@@2@V?$allocator@U?$pair@$$CBV?$basic_string@DU?$char_traits@D@std@@V?$allocator@D@2@@std@@PAP6AHV12@PAX@Z@std@@@2@$0A@@std@@@std@@IAE?AU?$pair@V?$_Tree_iterator@V?$_Tree_val@U?$_Tree_simple_types@U?$pair@$$CBV?$basic_string@DU?$char_traits@D@std@@V?$allocator@D@2@@std@@PAP6AHV12@PAX@Z@std@@@std@@@std@@@std@@V12@@2@ABV?$basic_string@DU?$char_traits@D@std@@V?$allocator@D@2@@2@@Z 100324d0 f i SocketServer.obj
 0001:000318a0       ?_Eqrange@?$_Tree@V?$_Tmap_traits@V?$basic_string@DU?$char_traits@D@std@@V?$allocator@D@2@@std@@PAUcanal_socket_data@@U?$less@V?$basic_string@DU?$char_traits@D@std@@V?$allocator@D@2@@std@@@2@V?$allocator@U?$pair@$$CBV?$basic_string@DU?$char_traits@D@std@@V?$allocator@D@2@@std@@PAUcanal_socket_data@@@std@@@2@$0A@@std@@@std@@IAE?AU?$pair@V?$_Tree_iterator@V?$_Tree_val@U?$_Tree_simple_types@U?$pair@$$CBV?$basic_string@DU?$char_traits@D@std@@V?$allocator@D@2@@std@@PAUcanal_socket_data@@@std@@@std@@@std@@@std@@V12@@2@ABV?$basic_string@DU?$char_traits@D@std@@V?$allocator@D@2@@2@@Z 100328a0 f i SocketServer.obj
 0001:00031c70       ?_Erase@?$_Tree@V?$_Tmap_traits@V?$basic_string@DU?$char_traits@D@std@@V?$allocator@D@2@@std@@PAP6AHV12@PAX@ZU?$less@V?$basic_string@DU?$char_traits@D@std@@V?$allocator@D@2@@std@@@2@V?$allocator@U?$pair@$$CBV?$basic_string@DU?$char_traits@D@std@@V?$allocator@D@2@@std@@PAP6AHV12@PAX@Z@std@@@2@$0A@@std@@@std@@IAEXPAU?$_Tree_node@U?$pair@$$CBV?$basic_string@DU?$char_traits@D@std@@V?$allocator@D@2@@std@@PAP6AHV12@PAX@Z@std@@PAX@2@@Z 10032c70 f i SocketServer.obj
 0001:00031d80       ?_Erase@?$_Tree@V?$_Tmap_traits@V?$basic_string@DU?$char_traits@D@std@@V?$allocator@D@2@@std@@PAUcanal_data@@U?$less@V?$basic_string@DU?$char_traits@D@std@@V?$allocator@D@2@@std@@@2@V?$allocator@U?$pair@$$CBV?$basic_string@DU?$char_traits@D@std@@V?$allocator@D@2@@std@@PAUcanal_data@@@std@@@2@$0A@@std@@@std@@IAEXPAU?$_Tree_node@U?$pair@$$CBV?$basic_string@DU?$char_traits@D@std@@V?$allocator@D@2@@std@@PAUcanal_data@@@std@@PAX@2@@Z 10032d80 f i SocketServer.obj
 0001:00031e90       ?_Erase@?$_Tree@V?$_Tmap_traits@V?$basic_string@DU?$char_traits@D@std@@V?$allocator@D@2@@std@@PAUcanal_socket_data@@U?$less@V?$basic_string@DU?$char_traits@D@std@@V?$allocator@D@2@@std@@@2@V?$allocator@U?$pair@$$CBV?$basic_string@DU?$char_traits@D@std@@V?$allocator@D@2@@std@@PAUcanal_socket_data@@@std@@@2@$0A@@std@@@std@@IAEXPAU?$_Tree_node@U?$pair@$$CBV?$basic_string@DU?$char_traits@D@std@@V?$allocator@D@2@@std@@PAUcanal_socket_data@@@std@@PAX@2@@Z 10032e90 f i SocketServer.obj
 0001:00031fa0       ?_Free_proxy@?$_Tree_alloc@$0A@U?$_Tree_base_types@U?$pair@$$CBV?$basic_string@DU?$char_traits@D@std@@V?$allocator@D@2@@std@@PAP6AHV12@PAX@Z@std@@V?$allocator@U?$pair@$$CBV?$basic_string@DU?$char_traits@D@std@@V?$allocator@D@2@@std@@PAP6AHV12@PAX@Z@std@@@2@@std@@@std@@QAEXXZ 10032fa0 f i SocketServer.obj
 0001:00032080       ?_Free_proxy@?$_Tree_alloc@$0A@U?$_Tree_base_types@U?$pair@$$CBV?$basic_string@DU?$char_traits@D@std@@V?$allocator@D@2@@std@@PAUcanal_data@@@std@@V?$allocator@U?$pair@$$CBV?$basic_string@DU?$char_traits@D@std@@V?$allocator@D@2@@std@@PAUcanal_data@@@std@@@2@@std@@@std@@QAEXXZ 10033080 f i SocketServer.obj
 0001:00032160       ?_Free_proxy@?$_Tree_alloc@$0A@U?$_Tree_base_types@U?$pair@$$CBV?$basic_string@DU?$char_traits@D@std@@V?$allocator@D@2@@std@@PAUcanal_socket_data@@@std@@V?$allocator@U?$pair@$$CBV?$basic_string@DU?$char_traits@D@std@@V?$allocator@D@2@@std@@PAUcanal_socket_data@@@std@@@2@@std@@@std@@QAEXXZ 10033160 f i SocketServer.obj
 0001:00032240       ?_Free_proxy@?$_Vector_alloc@$0A@U?$_Vec_base_types@PAXV?$allocator@PAX@std@@@std@@@std@@QAEXXZ 10033240 f i SocketServer.obj
 0001:00032310       ?_Freeheadnode@?$_Tree_alloc@$0A@U?$_Tree_base_types@U?$pair@$$CBV?$basic_string@DU?$char_traits@D@std@@V?$allocator@D@2@@std@@PAP6AHV12@PAX@Z@std@@V?$allocator@U?$pair@$$CBV?$basic_string@DU?$char_traits@D@std@@V?$allocator@D@2@@std@@PAP6AHV12@PAX@Z@std@@@2@@std@@@std@@QAEXPAU?$_Tree_node@U?$pair@$$CBV?$basic_string@DU?$char_traits@D@std@@V?$allocator@D@2@@std@@PAP6AHV12@PAX@Z@std@@PAX@2@@Z 10033310 f i SocketServer.obj
 0001:00032420       ?_Freeheadnode@?$_Tree_alloc@$0A@U?$_Tree_base_types@U?$pair@$$CBV?$basic_string@DU?$char_traits@D@std@@V?$allocator@D@2@@std@@PAUcanal_data@@@std@@V?$allocator@U?$pair@$$CBV?$basic_string@DU?$char_traits@D@std@@V?$allocator@D@2@@std@@PAUcanal_data@@@std@@@2@@std@@@std@@QAEXPAU?$_Tree_node@U?$pair@$$CBV?$basic_string@DU?$char_traits@D@std@@V?$allocator@D@2@@std@@PAUcanal_data@@@std@@PAX@2@@Z 10033420 f i SocketServer.obj
 0001:00032530       ?_Freeheadnode@?$_Tree_alloc@$0A@U?$_Tree_base_types@U?$pair@$$CBV?$basic_string@DU?$char_traits@D@std@@V?$allocator@D@2@@std@@PAUcanal_socket_data@@@std@@V?$allocator@U?$pair@$$CBV?$basic_string@DU?$char_traits@D@std@@V?$allocator@D@2@@std@@PAUcanal_socket_data@@@std@@@2@@std@@@std@@QAEXPAU?$_Tree_node@U?$pair@$$CBV?$basic_string@DU?$char_traits@D@std@@V?$allocator@D@2@@std@@PAUcanal_socket_data@@@std@@PAX@2@@Z 10033530 f i SocketServer.obj
 0001:00032640       ?_Freenode0@?$_Tree_buy@U?$pair@$$CBV?$basic_string@DU?$char_traits@D@std@@V?$allocator@D@2@@std@@PAP6AHV12@PAX@Z@std@@V?$allocator@U?$pair@$$CBV?$basic_string@DU?$char_traits@D@std@@V?$allocator@D@2@@std@@PAP6AHV12@PAX@Z@std@@@2@@std@@QAEXPAU?$_Tree_node@U?$pair@$$CBV?$basic_string@DU?$char_traits@D@std@@V?$allocator@D@2@@std@@PAP6AHV12@PAX@Z@std@@PAX@2@@Z 10033640 f i SocketServer.obj
 0001:00032750       ?_Freenode0@?$_Tree_buy@U?$pair@$$CBV?$basic_string@DU?$char_traits@D@std@@V?$allocator@D@2@@std@@PAUcanal_data@@@std@@V?$allocator@U?$pair@$$CBV?$basic_string@DU?$char_traits@D@std@@V?$allocator@D@2@@std@@PAUcanal_data@@@std@@@2@@std@@QAEXPAU?$_Tree_node@U?$pair@$$CBV?$basic_string@DU?$char_traits@D@std@@V?$allocator@D@2@@std@@PAUcanal_data@@@std@@PAX@2@@Z 10033750 f i SocketServer.obj
 0001:00032860       ?_Freenode0@?$_Tree_buy@U?$pair@$$CBV?$basic_string@DU?$char_traits@D@std@@V?$allocator@D@2@@std@@PAUcanal_socket_data@@@std@@V?$allocator@U?$pair@$$CBV?$basic_string@DU?$char_traits@D@std@@V?$allocator@D@2@@std@@PAUcanal_socket_data@@@std@@@2@@std@@QAEXPAU?$_Tree_node@U?$pair@$$CBV?$basic_string@DU?$char_traits@D@std@@V?$allocator@D@2@@std@@PAUcanal_socket_data@@@std@@PAX@2@@Z 10033860 f i SocketServer.obj
 0001:00032970       ?_Getal@?$_Tree_alloc@$0A@U?$_Tree_base_types@U?$pair@$$CBV?$basic_string@DU?$char_traits@D@std@@V?$allocator@D@2@@std@@PAP6AHV12@PAX@Z@std@@V?$allocator@U?$pair@$$CBV?$basic_string@DU?$char_traits@D@std@@V?$allocator@D@2@@std@@PAP6AHV12@PAX@Z@std@@@2@@std@@@std@@QBE?AU?$_Wrap_alloc@V?$allocator@U?$_Tree_node@U?$pair@$$CBV?$basic_string@DU?$char_traits@D@std@@V?$allocator@D@2@@std@@PAP6AHV12@PAX@Z@std@@PAX@std@@@std@@@2@XZ 10033970 f i SocketServer.obj
 0001:000329d0       ?_Getal@?$_Tree_alloc@$0A@U?$_Tree_base_types@U?$pair@$$CBV?$basic_string@DU?$char_traits@D@std@@V?$allocator@D@2@@std@@PAUcanal_data@@@std@@V?$allocator@U?$pair@$$CBV?$basic_string@DU?$char_traits@D@std@@V?$allocator@D@2@@std@@PAUcanal_data@@@std@@@2@@std@@@std@@QBE?AU?$_Wrap_alloc@V?$allocator@U?$_Tree_node@U?$pair@$$CBV?$basic_string@DU?$char_traits@D@std@@V?$allocator@D@2@@std@@PAUcanal_data@@@std@@PAX@std@@@std@@@2@XZ 100339d0 f i SocketServer.obj
 0001:00032a30       ?_Getal@?$_Tree_alloc@$0A@U?$_Tree_base_types@U?$pair@$$CBV?$basic_string@DU?$char_traits@D@std@@V?$allocator@D@2@@std@@PAUcanal_socket_data@@@std@@V?$allocator@U?$pair@$$CBV?$basic_string@DU?$char_traits@D@std@@V?$allocator@D@2@@std@@PAUcanal_socket_data@@@std@@@2@@std@@@std@@QBE?AU?$_Wrap_alloc@V?$allocator@U?$_Tree_node@U?$pair@$$CBV?$basic_string@DU?$char_traits@D@std@@V?$allocator@D@2@@std@@PAUcanal_socket_data@@@std@@PAX@std@@@std@@@2@XZ 10033a30 f i SocketServer.obj
 0001:00032a90       ?_Getal@?$_Vector_alloc@$0A@U?$_Vec_base_types@PAXV?$allocator@PAX@std@@@std@@@std@@QBE?AU?$_Wrap_alloc@V?$allocator@PAX@std@@@2@XZ 10033a90 f i SocketServer.obj
 0001:00032af0       ?_Getcomp@?$_Tree_comp@$0A@V?$_Tmap_traits@V?$basic_string@DU?$char_traits@D@std@@V?$allocator@D@2@@std@@PAP6AHV12@PAX@ZU?$less@V?$basic_string@DU?$char_traits@D@std@@V?$allocator@D@2@@std@@@2@V?$allocator@U?$pair@$$CBV?$basic_string@DU?$char_traits@D@std@@V?$allocator@D@2@@std@@PAP6AHV12@PAX@Z@std@@@2@$0A@@std@@@std@@QBE?AU?$less@V?$basic_string@DU?$char_traits@D@std@@V?$allocator@D@2@@std@@@2@XZ 10033af0 f i SocketServer.obj
 0001:00032b30       ?_Getcomp@?$_Tree_comp@$0A@V?$_Tmap_traits@V?$basic_string@DU?$char_traits@D@std@@V?$allocator@D@2@@std@@PAUcanal_data@@U?$less@V?$basic_string@DU?$char_traits@D@std@@V?$allocator@D@2@@std@@@2@V?$allocator@U?$pair@$$CBV?$basic_string@DU?$char_traits@D@std@@V?$allocator@D@2@@std@@PAUcanal_data@@@std@@@2@$0A@@std@@@std@@QBE?AU?$less@V?$basic_string@DU?$char_traits@D@std@@V?$allocator@D@2@@std@@@2@XZ 10033b30 f i SocketServer.obj
 0001:00032b70       ?_Getcomp@?$_Tree_comp@$0A@V?$_Tmap_traits@V?$basic_string@DU?$char_traits@D@std@@V?$allocator@D@2@@std@@PAUcanal_socket_data@@U?$less@V?$basic_string@DU?$char_traits@D@std@@V?$allocator@D@2@@std@@@2@V?$allocator@U?$pair@$$CBV?$basic_string@DU?$char_traits@D@std@@V?$allocator@D@2@@std@@PAUcanal_socket_data@@@std@@@2@$0A@@std@@@std@@QBE?AU?$less@V?$basic_string@DU?$char_traits@D@std@@V?$allocator@D@2@@std@@@2@XZ 10033b70 f i SocketServer.obj
 0001:00032bb0       ?_Grow_to@?$vector@PAXV?$allocator@PAX@std@@@std@@IBEII@Z 10033bb0 f i SocketServer.obj
 0001:00032c60       ?_Inside@?$vector@PAXV?$allocator@PAX@std@@@std@@IBE_NPBQAX@Z 10033c60 f i SocketServer.obj
 0001:00032ce0       ?_Isnil@?$_Tree_val@U?$_Tree_simple_types@U?$pair@$$CBV?$basic_string@DU?$char_traits@D@std@@V?$allocator@D@2@@std@@PAP6AHV12@PAX@Z@std@@@std@@@std@@SAAADPAU?$_Tree_node@U?$pair@$$CBV?$basic_string@DU?$char_traits@D@std@@V?$allocator@D@2@@std@@PAP6AHV12@PAX@Z@std@@PAX@2@@Z 10033ce0 f i SocketServer.obj
 0001:00032d20       ?_Isnil@?$_Tree_val@U?$_Tree_simple_types@U?$pair@$$CBV?$basic_string@DU?$char_traits@D@std@@V?$allocator@D@2@@std@@PAUcanal_data@@@std@@@std@@@std@@SAAADPAU?$_Tree_node@U?$pair@$$CBV?$basic_string@DU?$char_traits@D@std@@V?$allocator@D@2@@std@@PAUcanal_data@@@std@@PAX@2@@Z 10033d20 f i SocketServer.obj
 0001:00032d60       ?_Isnil@?$_Tree_val@U?$_Tree_simple_types@U?$pair@$$CBV?$basic_string@DU?$char_traits@D@std@@V?$allocator@D@2@@std@@PAUcanal_socket_data@@@std@@@std@@@std@@SAAADPAU?$_Tree_node@U?$pair@$$CBV?$basic_string@DU?$char_traits@D@std@@V?$allocator@D@2@@std@@PAUcanal_socket_data@@@std@@PAX@2@@Z 10033d60 f i SocketServer.obj
 0001:00032da0       ?_Key@?$_Tree@V?$_Tmap_traits@V?$basic_string@DU?$char_traits@D@std@@V?$allocator@D@2@@std@@PAP6AHV12@PAX@ZU?$less@V?$basic_string@DU?$char_traits@D@std@@V?$allocator@D@2@@std@@@2@V?$allocator@U?$pair@$$CBV?$basic_string@DU?$char_traits@D@std@@V?$allocator@D@2@@std@@PAP6AHV12@PAX@Z@std@@@2@$0A@@std@@@std@@IBEABV?$basic_string@DU?$char_traits@D@std@@V?$allocator@D@2@@2@PAU?$_Tree_node@U?$pair@$$CBV?$basic_string@DU?$char_traits@D@std@@V?$allocator@D@2@@std@@PAP6AHV12@PAX@Z@std@@PAX@2@@Z 10033da0 f i SocketServer.obj
 0001:00032e10       ?_Key@?$_Tree@V?$_Tmap_traits@V?$basic_string@DU?$char_traits@D@std@@V?$allocator@D@2@@std@@PAUcanal_data@@U?$less@V?$basic_string@DU?$char_traits@D@std@@V?$allocator@D@2@@std@@@2@V?$allocator@U?$pair@$$CBV?$basic_string@DU?$char_traits@D@std@@V?$allocator@D@2@@std@@PAUcanal_data@@@std@@@2@$0A@@std@@@std@@IBEABV?$basic_string@DU?$char_traits@D@std@@V?$allocator@D@2@@2@PAU?$_Tree_node@U?$pair@$$CBV?$basic_string@DU?$char_traits@D@std@@V?$allocator@D@2@@std@@PAUcanal_data@@@std@@PAX@2@@Z 10033e10 f i SocketServer.obj
 0001:00032e80       ?_Key@?$_Tree@V?$_Tmap_traits@V?$basic_string@DU?$char_traits@D@std@@V?$allocator@D@2@@std@@PAUcanal_socket_data@@U?$less@V?$basic_string@DU?$char_traits@D@std@@V?$allocator@D@2@@std@@@2@V?$allocator@U?$pair@$$CBV?$basic_string@DU?$char_traits@D@std@@V?$allocator@D@2@@std@@PAUcanal_socket_data@@@std@@@2@$0A@@std@@@std@@IBEABV?$basic_string@DU?$char_traits@D@std@@V?$allocator@D@2@@2@PAU?$_Tree_node@U?$pair@$$CBV?$basic_string@DU?$char_traits@D@std@@V?$allocator@D@2@@std@@PAUcanal_socket_data@@@std@@PAX@2@@Z 10033e80 f i SocketServer.obj
 0001:00032ef0       ?_Kfn@?$_Tree@V?$_Tmap_traits@V?$basic_string@DU?$char_traits@D@std@@V?$allocator@D@2@@std@@PAP6AHV12@PAX@ZU?$less@V?$basic_string@DU?$char_traits@D@std@@V?$allocator@D@2@@std@@@2@V?$allocator@U?$pair@$$CBV?$basic_string@DU?$char_traits@D@std@@V?$allocator@D@2@@std@@PAP6AHV12@PAX@Z@std@@@2@$0A@@std@@@std@@IBEABV?$basic_string@DU?$char_traits@D@std@@V?$allocator@D@2@@2@ABU?$pair@$$CBV?$basic_string@DU?$char_traits@D@std@@V?$allocator@D@2@@std@@PAP6AHV12@PAX@Z@2@@Z 10033ef0 f i SocketServer.obj
 0001:00032f50       ?_Kfn@?$_Tree@V?$_Tmap_traits@V?$basic_string@DU?$char_traits@D@std@@V?$allocator@D@2@@std@@PAUcanal_data@@U?$less@V?$basic_string@DU?$char_traits@D@std@@V?$allocator@D@2@@std@@@2@V?$allocator@U?$pair@$$CBV?$basic_string@DU?$char_traits@D@std@@V?$allocator@D@2@@std@@PAUcanal_data@@@std@@@2@$0A@@std@@@std@@IBEABV?$basic_string@DU?$char_traits@D@std@@V?$allocator@D@2@@2@ABU?$pair@$$CBV?$basic_string@DU?$char_traits@D@std@@V?$allocator@D@2@@std@@PAUcanal_data@@@2@@Z 10033f50 f i SocketServer.obj
 0001:00032fb0       ?_Kfn@?$_Tree@V?$_Tmap_traits@V?$basic_string@DU?$char_traits@D@std@@V?$allocator@D@2@@std@@PAUcanal_socket_data@@U?$less@V?$basic_string@DU?$char_traits@D@std@@V?$allocator@D@2@@std@@@2@V?$allocator@U?$pair@$$CBV?$basic_string@DU?$char_traits@D@std@@V?$allocator@D@2@@std@@PAUcanal_socket_data@@@std@@@2@$0A@@std@@@std@@IBEABV?$basic_string@DU?$char_traits@D@std@@V?$allocator@D@2@@2@ABU?$pair@$$CBV?$basic_string@DU?$char_traits@D@std@@V?$allocator@D@2@@std@@PAUcanal_socket_data@@@2@@Z 10033fb0 f i SocketServer.obj
 0001:00033010       ?_Lbound@?$_Tree@V?$_Tmap_traits@V?$basic_string@DU?$char_traits@D@std@@V?$allocator@D@2@@std@@PAP6AHV12@PAX@ZU?$less@V?$basic_string@DU?$char_traits@D@std@@V?$allocator@D@2@@std@@@2@V?$allocator@U?$pair@$$CBV?$basic_string@DU?$char_traits@D@std@@V?$allocator@D@2@@std@@PAP6AHV12@PAX@Z@std@@@2@$0A@@std@@@std@@IAEPAU?$_Tree_node@U?$pair@$$CBV?$basic_string@DU?$char_traits@D@std@@V?$allocator@D@2@@std@@PAP6AHV12@PAX@Z@std@@PAX@2@ABV?$basic_string@DU?$char_traits@D@std@@V?$allocator@D@2@@2@@Z 10034010 f i SocketServer.obj
 0001:00033120       ?_Lbound@?$_Tree@V?$_Tmap_traits@V?$basic_string@DU?$char_traits@D@std@@V?$allocator@D@2@@std@@PAUcanal_data@@U?$less@V?$basic_string@DU?$char_traits@D@std@@V?$allocator@D@2@@std@@@2@V?$allocator@U?$pair@$$CBV?$basic_string@DU?$char_traits@D@std@@V?$allocator@D@2@@std@@PAUcanal_data@@@std@@@2@$0A@@std@@@std@@IAEPAU?$_Tree_node@U?$pair@$$CBV?$basic_string@DU?$char_traits@D@std@@V?$allocator@D@2@@std@@PAUcanal_data@@@std@@PAX@2@ABV?$basic_string@DU?$char_traits@D@std@@V?$allocator@D@2@@2@@Z 10034120 f i SocketServer.obj
 0001:00033230       ?_Lbound@?$_Tree@V?$_Tmap_traits@V?$basic_string@DU?$char_traits@D@std@@V?$allocator@D@2@@std@@PAUcanal_socket_data@@U?$less@V?$basic_string@DU?$char_traits@D@std@@V?$allocator@D@2@@std@@@2@V?$allocator@U?$pair@$$CBV?$basic_string@DU?$char_traits@D@std@@V?$allocator@D@2@@std@@PAUcanal_socket_data@@@std@@@2@$0A@@std@@@std@@IAEPAU?$_Tree_node@U?$pair@$$CBV?$basic_string@DU?$char_traits@D@std@@V?$allocator@D@2@@std@@PAUcanal_socket_data@@@std@@PAX@2@ABV?$basic_string@DU?$char_traits@D@std@@V?$allocator@D@2@@2@@Z 10034230 f i SocketServer.obj
 0001:00033340       ?_Left@?$_Tree_val@U?$_Tree_simple_types@U?$pair@$$CBV?$basic_string@DU?$char_traits@D@std@@V?$allocator@D@2@@std@@PAP6AHV12@PAX@Z@std@@@std@@@std@@SAAAPAU?$_Tree_node@U?$pair@$$CBV?$basic_string@DU?$char_traits@D@std@@V?$allocator@D@2@@std@@PAP6AHV12@PAX@Z@std@@PAX@2@PAU32@@Z 10034340 f i SocketServer.obj
 0001:00033380       ?_Left@?$_Tree_val@U?$_Tree_simple_types@U?$pair@$$CBV?$basic_string@DU?$char_traits@D@std@@V?$allocator@D@2@@std@@PAUcanal_data@@@std@@@std@@@std@@SAAAPAU?$_Tree_node@U?$pair@$$CBV?$basic_string@DU?$char_traits@D@std@@V?$allocator@D@2@@std@@PAUcanal_data@@@std@@PAX@2@PAU32@@Z 10034380 f i SocketServer.obj
 0001:000333c0       ?_Left@?$_Tree_val@U?$_Tree_simple_types@U?$pair@$$CBV?$basic_string@DU?$char_traits@D@std@@V?$allocator@D@2@@std@@PAUcanal_socket_data@@@std@@@std@@@std@@SAAAPAU?$_Tree_node@U?$pair@$$CBV?$basic_string@DU?$char_traits@D@std@@V?$allocator@D@2@@std@@PAUcanal_socket_data@@@std@@PAX@2@PAU32@@Z 100343c0 f i SocketServer.obj
 0001:00033400       ?_Lmost@?$_Tree@V?$_Tmap_traits@V?$basic_string@DU?$char_traits@D@std@@V?$allocator@D@2@@std@@PAP6AHV12@PAX@ZU?$less@V?$basic_string@DU?$char_traits@D@std@@V?$allocator@D@2@@std@@@2@V?$allocator@U?$pair@$$CBV?$basic_string@DU?$char_traits@D@std@@V?$allocator@D@2@@std@@PAP6AHV12@PAX@Z@std@@@2@$0A@@std@@@std@@IBEAAPAU?$_Tree_node@U?$pair@$$CBV?$basic_string@DU?$char_traits@D@std@@V?$allocator@D@2@@std@@PAP6AHV12@PAX@Z@std@@PAX@2@XZ 10034400 f i SocketServer.obj
 0001:00033460       ?_Lmost@?$_Tree@V?$_Tmap_traits@V?$basic_string@DU?$char_traits@D@std@@V?$allocator@D@2@@std@@PAUcanal_data@@U?$less@V?$basic_string@DU?$char_traits@D@std@@V?$allocator@D@2@@std@@@2@V?$allocator@U?$pair@$$CBV?$basic_string@DU?$char_traits@D@std@@V?$allocator@D@2@@std@@PAUcanal_data@@@std@@@2@$0A@@std@@@std@@IBEAAPAU?$_Tree_node@U?$pair@$$CBV?$basic_string@DU?$char_traits@D@std@@V?$allocator@D@2@@std@@PAUcanal_data@@@std@@PAX@2@XZ 10034460 f i SocketServer.obj
 0001:000334c0       ?_Lmost@?$_Tree@V?$_Tmap_traits@V?$basic_string@DU?$char_traits@D@std@@V?$allocator@D@2@@std@@PAUcanal_socket_data@@U?$less@V?$basic_string@DU?$char_traits@D@std@@V?$allocator@D@2@@std@@@2@V?$allocator@U?$pair@$$CBV?$basic_string@DU?$char_traits@D@std@@V?$allocator@D@2@@std@@PAUcanal_socket_data@@@std@@@2@$0A@@std@@@std@@IBEAAPAU?$_Tree_node@U?$pair@$$CBV?$basic_string@DU?$char_traits@D@std@@V?$allocator@D@2@@std@@PAUcanal_socket_data@@@std@@PAX@2@XZ 100344c0 f i SocketServer.obj
 0001:00033520       ?_Lrotate@?$_Tree@V?$_Tmap_traits@V?$basic_string@DU?$char_traits@D@std@@V?$allocator@D@2@@std@@PAP6AHV12@PAX@ZU?$less@V?$basic_string@DU?$char_traits@D@std@@V?$allocator@D@2@@std@@@2@V?$allocator@U?$pair@$$CBV?$basic_string@DU?$char_traits@D@std@@V?$allocator@D@2@@std@@PAP6AHV12@PAX@Z@std@@@2@$0A@@std@@@std@@IAEXPAU?$_Tree_node@U?$pair@$$CBV?$basic_string@DU?$char_traits@D@std@@V?$allocator@D@2@@std@@PAP6AHV12@PAX@Z@std@@PAX@2@@Z 10034520 f i SocketServer.obj
 0001:000336d0       ?_Lrotate@?$_Tree@V?$_Tmap_traits@V?$basic_string@DU?$char_traits@D@std@@V?$allocator@D@2@@std@@PAUcanal_data@@U?$less@V?$basic_string@DU?$char_traits@D@std@@V?$allocator@D@2@@std@@@2@V?$allocator@U?$pair@$$CBV?$basic_string@DU?$char_traits@D@std@@V?$allocator@D@2@@std@@PAUcanal_data@@@std@@@2@$0A@@std@@@std@@IAEXPAU?$_Tree_node@U?$pair@$$CBV?$basic_string@DU?$char_traits@D@std@@V?$allocator@D@2@@std@@PAUcanal_data@@@std@@PAX@2@@Z 100346d0 f i SocketServer.obj
 0001:00033880       ?_Lrotate@?$_Tree@V?$_Tmap_traits@V?$basic_string@DU?$char_traits@D@std@@V?$allocator@D@2@@std@@PAUcanal_socket_data@@U?$less@V?$basic_string@DU?$char_traits@D@std@@V?$allocator@D@2@@std@@@2@V?$allocator@U?$pair@$$CBV?$basic_string@DU?$char_traits@D@std@@V?$allocator@D@2@@std@@PAUcanal_socket_data@@@std@@@2@$0A@@std@@@std@@IAEXPAU?$_Tree_node@U?$pair@$$CBV?$basic_string@DU?$char_traits@D@std@@V?$allocator@D@2@@std@@PAUcanal_socket_data@@@std@@PAX@2@@Z 10034880 f i SocketServer.obj
 0001:00033a30       ?_Max@?$_Tree_val@U?$_Tree_simple_types@U?$pair@$$CBV?$basic_string@DU?$char_traits@D@std@@V?$allocator@D@2@@std@@PAP6AHV12@PAX@Z@std@@@std@@@std@@SAPAU?$_Tree_node@U?$pair@$$CBV?$basic_string@DU?$char_traits@D@std@@V?$allocator@D@2@@std@@PAP6AHV12@PAX@Z@std@@PAX@2@PAU32@@Z 10034a30 f i SocketServer.obj
 0001:00033ab0       ?_Max@?$_Tree_val@U?$_Tree_simple_types@U?$pair@$$CBV?$basic_string@DU?$char_traits@D@std@@V?$allocator@D@2@@std@@PAUcanal_data@@@std@@@std@@@std@@SAPAU?$_Tree_node@U?$pair@$$CBV?$basic_string@DU?$char_traits@D@std@@V?$allocator@D@2@@std@@PAUcanal_data@@@std@@PAX@2@PAU32@@Z 10034ab0 f i SocketServer.obj
 0001:00033b30       ?_Max@?$_Tree_val@U?$_Tree_simple_types@U?$pair@$$CBV?$basic_string@DU?$char_traits@D@std@@V?$allocator@D@2@@std@@PAUcanal_socket_data@@@std@@@std@@@std@@SAPAU?$_Tree_node@U?$pair@$$CBV?$basic_string@DU?$char_traits@D@std@@V?$allocator@D@2@@std@@PAUcanal_socket_data@@@std@@PAX@2@PAU32@@Z 10034b30 f i SocketServer.obj
 0001:00033bb0       ?_Min@?$_Tree_val@U?$_Tree_simple_types@U?$pair@$$CBV?$basic_string@DU?$char_traits@D@std@@V?$allocator@D@2@@std@@PAP6AHV12@PAX@Z@std@@@std@@@std@@SAPAU?$_Tree_node@U?$pair@$$CBV?$basic_string@DU?$char_traits@D@std@@V?$allocator@D@2@@std@@PAP6AHV12@PAX@Z@std@@PAX@2@PAU32@@Z 10034bb0 f i SocketServer.obj
 0001:00033c30       ?_Min@?$_Tree_val@U?$_Tree_simple_types@U?$pair@$$CBV?$basic_string@DU?$char_traits@D@std@@V?$allocator@D@2@@std@@PAUcanal_data@@@std@@@std@@@std@@SAPAU?$_Tree_node@U?$pair@$$CBV?$basic_string@DU?$char_traits@D@std@@V?$allocator@D@2@@std@@PAUcanal_data@@@std@@PAX@2@PAU32@@Z 10034c30 f i SocketServer.obj
 0001:00033cb0       ?_Min@?$_Tree_val@U?$_Tree_simple_types@U?$pair@$$CBV?$basic_string@DU?$char_traits@D@std@@V?$allocator@D@2@@std@@PAUcanal_socket_data@@@std@@@std@@@std@@SAPAU?$_Tree_node@U?$pair@$$CBV?$basic_string@DU?$char_traits@D@std@@V?$allocator@D@2@@std@@PAUcanal_socket_data@@@std@@PAX@2@PAU32@@Z 10034cb0 f i SocketServer.obj
 0001:00033d30       ?_Mynode@?$_Tree_unchecked_const_iterator@V?$_Tree_val@U?$_Tree_simple_types@U?$pair@$$CBV?$basic_string@DU?$char_traits@D@std@@V?$allocator@D@2@@std@@PAP6AHV12@PAX@Z@std@@@std@@@std@@U_Iterator_base12@2@@std@@QBEPAU?$_Tree_node@U?$pair@$$CBV?$basic_string@DU?$char_traits@D@std@@V?$allocator@D@2@@std@@PAP6AHV12@PAX@Z@std@@PAX@2@XZ 10034d30 f i SocketServer.obj
 0001:00033d70       ?_Mynode@?$_Tree_unchecked_const_iterator@V?$_Tree_val@U?$_Tree_simple_types@U?$pair@$$CBV?$basic_string@DU?$char_traits@D@std@@V?$allocator@D@2@@std@@PAUcanal_data@@@std@@@std@@@std@@U_Iterator_base12@2@@std@@QBEPAU?$_Tree_node@U?$pair@$$CBV?$basic_string@DU?$char_traits@D@std@@V?$allocator@D@2@@std@@PAUcanal_data@@@std@@PAX@2@XZ 10034d70 f i SocketServer.obj
 0001:00033db0       ?_Mynode@?$_Tree_unchecked_const_iterator@V?$_Tree_val@U?$_Tree_simple_types@U?$pair@$$CBV?$basic_string@DU?$char_traits@D@std@@V?$allocator@D@2@@std@@PAUcanal_socket_data@@@std@@@std@@@std@@U_Iterator_base12@2@@std@@QBEPAU?$_Tree_node@U?$pair@$$CBV?$basic_string@DU?$char_traits@D@std@@V?$allocator@D@2@@std@@PAUcanal_socket_data@@@std@@PAX@2@XZ 10034db0 f i SocketServer.obj
 0001:00033df0       ?_Myval@?$_Tree_val@U?$_Tree_simple_types@U?$pair@$$CBV?$basic_string@DU?$char_traits@D@std@@V?$allocator@D@2@@std@@PAP6AHV12@PAX@Z@std@@@std@@@std@@SAAAU?$pair@$$CBV?$basic_string@DU?$char_traits@D@std@@V?$allocator@D@2@@std@@PAP6AHV12@PAX@Z@2@PAU?$_Tree_node@U?$pair@$$CBV?$basic_string@DU?$char_traits@D@std@@V?$allocator@D@2@@std@@PAP6AHV12@PAX@Z@std@@PAX@2@@Z 10034df0 f i SocketServer.obj
 0001:00033e30       ?_Myval@?$_Tree_val@U?$_Tree_simple_types@U?$pair@$$CBV?$basic_string@DU?$char_traits@D@std@@V?$allocator@D@2@@std@@PAUcanal_data@@@std@@@std@@@std@@SAAAU?$pair@$$CBV?$basic_string@DU?$char_traits@D@std@@V?$allocator@D@2@@std@@PAUcanal_data@@@2@PAU?$_Tree_node@U?$pair@$$CBV?$basic_string@DU?$char_traits@D@std@@V?$allocator@D@2@@std@@PAUcanal_data@@@std@@PAX@2@@Z 10034e30 f i SocketServer.obj
 0001:00033e70       ?_Myval@?$_Tree_val@U?$_Tree_simple_types@U?$pair@$$CBV?$basic_string@DU?$char_traits@D@std@@V?$allocator@D@2@@std@@PAUcanal_socket_data@@@std@@@std@@@std@@SAAAU?$pair@$$CBV?$basic_string@DU?$char_traits@D@std@@V?$allocator@D@2@@std@@PAUcanal_socket_data@@@2@PAU?$_Tree_node@U?$pair@$$CBV?$basic_string@DU?$char_traits@D@std@@V?$allocator@D@2@@std@@PAUcanal_socket_data@@@std@@PAX@2@@Z 10034e70 f i SocketServer.obj
 0001:00033eb0       ?_Orphan_ptr@?$_Tree@V?$_Tmap_traits@V?$basic_string@DU?$char_traits@D@std@@V?$allocator@D@2@@std@@PAP6AHV12@PAX@ZU?$less@V?$basic_string@DU?$char_traits@D@std@@V?$allocator@D@2@@std@@@2@V?$allocator@U?$pair@$$CBV?$basic_string@DU?$char_traits@D@std@@V?$allocator@D@2@@std@@PAP6AHV12@PAX@Z@std@@@2@$0A@@std@@@std@@IBEXAAV12@PAU?$_Tree_node@U?$pair@$$CBV?$basic_string@DU?$char_traits@D@std@@V?$allocator@D@2@@std@@PAP6AHV12@PAX@Z@std@@PAX@2@@Z 10034eb0 f i SocketServer.obj
 0001:00034010       ?_Orphan_ptr@?$_Tree@V?$_Tmap_traits@V?$basic_string@DU?$char_traits@D@std@@V?$allocator@D@2@@std@@PAUcanal_data@@U?$less@V?$basic_string@DU?$char_traits@D@std@@V?$allocator@D@2@@std@@@2@V?$allocator@U?$pair@$$CBV?$basic_string@DU?$char_traits@D@std@@V?$allocator@D@2@@std@@PAUcanal_data@@@std@@@2@$0A@@std@@@std@@IBEXAAV12@PAU?$_Tree_node@U?$pair@$$CBV?$basic_string@DU?$char_traits@D@std@@V?$allocator@D@2@@std@@PAUcanal_data@@@std@@PAX@2@@Z 10035010 f i SocketServer.obj
 0001:00034170       ?_Orphan_ptr@?$_Tree@V?$_Tmap_traits@V?$basic_string@DU?$char_traits@D@std@@V?$allocator@D@2@@std@@PAUcanal_socket_data@@U?$less@V?$basic_string@DU?$char_traits@D@std@@V?$allocator@D@2@@std@@@2@V?$allocator@U?$pair@$$CBV?$basic_string@DU?$char_traits@D@std@@V?$allocator@D@2@@std@@PAUcanal_socket_data@@@std@@@2@$0A@@std@@@std@@IBEXAAV12@PAU?$_Tree_node@U?$pair@$$CBV?$basic_string@DU?$char_traits@D@std@@V?$allocator@D@2@@std@@PAUcanal_socket_data@@@std@@PAX@2@@Z 10035170 f i SocketServer.obj
 0001:000342d0       ?_Orphan_range@?$vector@PAXV?$allocator@PAX@std@@@std@@IBEXPAPAX0@Z 100352d0 f i SocketServer.obj
 0001:00034430       ?_Parent@?$_Tree_val@U?$_Tree_simple_types@U?$pair@$$CBV?$basic_string@DU?$char_traits@D@std@@V?$allocator@D@2@@std@@PAP6AHV12@PAX@Z@std@@@std@@@std@@SAAAPAU?$_Tree_node@U?$pair@$$CBV?$basic_string@DU?$char_traits@D@std@@V?$allocator@D@2@@std@@PAP6AHV12@PAX@Z@std@@PAX@2@PAU32@@Z 10035430 f i SocketServer.obj
 0001:00034470       ?_Parent@?$_Tree_val@U?$_Tree_simple_types@U?$pair@$$CBV?$basic_string@DU?$char_traits@D@std@@V?$allocator@D@2@@std@@PAUcanal_data@@@std@@@std@@@std@@SAAAPAU?$_Tree_node@U?$pair@$$CBV?$basic_string@DU?$char_traits@D@std@@V?$allocator@D@2@@std@@PAUcanal_data@@@std@@PAX@2@PAU32@@Z 10035470 f i SocketServer.obj
 0001:000344b0       ?_Parent@?$_Tree_val@U?$_Tree_simple_types@U?$pair@$$CBV?$basic_string@DU?$char_traits@D@std@@V?$allocator@D@2@@std@@PAUcanal_socket_data@@@std@@@std@@@std@@SAAAPAU?$_Tree_node@U?$pair@$$CBV?$basic_string@DU?$char_traits@D@std@@V?$allocator@D@2@@std@@PAUcanal_socket_data@@@std@@PAX@2@PAU32@@Z 100354b0 f i SocketServer.obj
 0001:000344f0       ?_Reallocate@?$vector@PAXV?$allocator@PAX@std@@@std@@IAEXI@Z 100354f0 f i SocketServer.obj
 0001:000346c0       ?_Reserve@?$vector@PAXV?$allocator@PAX@std@@@std@@IAEXI@Z 100356c0 f i SocketServer.obj
 0001:00034770       ?_Right@?$_Tree_val@U?$_Tree_simple_types@U?$pair@$$CBV?$basic_string@DU?$char_traits@D@std@@V?$allocator@D@2@@std@@PAP6AHV12@PAX@Z@std@@@std@@@std@@SAAAPAU?$_Tree_node@U?$pair@$$CBV?$basic_string@DU?$char_traits@D@std@@V?$allocator@D@2@@std@@PAP6AHV12@PAX@Z@std@@PAX@2@PAU32@@Z 10035770 f i SocketServer.obj
 0001:000347b0       ?_Right@?$_Tree_val@U?$_Tree_simple_types@U?$pair@$$CBV?$basic_string@DU?$char_traits@D@std@@V?$allocator@D@2@@std@@PAUcanal_data@@@std@@@std@@@std@@SAAAPAU?$_Tree_node@U?$pair@$$CBV?$basic_string@DU?$char_traits@D@std@@V?$allocator@D@2@@std@@PAUcanal_data@@@std@@PAX@2@PAU32@@Z 100357b0 f i SocketServer.obj
 0001:000347f0       ?_Right@?$_Tree_val@U?$_Tree_simple_types@U?$pair@$$CBV?$basic_string@DU?$char_traits@D@std@@V?$allocator@D@2@@std@@PAUcanal_socket_data@@@std@@@std@@@std@@SAAAPAU?$_Tree_node@U?$pair@$$CBV?$basic_string@DU?$char_traits@D@std@@V?$allocator@D@2@@std@@PAUcanal_socket_data@@@std@@PAX@2@PAU32@@Z 100357f0 f i SocketServer.obj
 0001:00034830       ?_Rmost@?$_Tree@V?$_Tmap_traits@V?$basic_string@DU?$char_traits@D@std@@V?$allocator@D@2@@std@@PAP6AHV12@PAX@ZU?$less@V?$basic_string@DU?$char_traits@D@std@@V?$allocator@D@2@@std@@@2@V?$allocator@U?$pair@$$CBV?$basic_string@DU?$char_traits@D@std@@V?$allocator@D@2@@std@@PAP6AHV12@PAX@Z@std@@@2@$0A@@std@@@std@@IBEAAPAU?$_Tree_node@U?$pair@$$CBV?$basic_string@DU?$char_traits@D@std@@V?$allocator@D@2@@std@@PAP6AHV12@PAX@Z@std@@PAX@2@XZ 10035830 f i SocketServer.obj
 0001:00034890       ?_Rmost@?$_Tree@V?$_Tmap_traits@V?$basic_string@DU?$char_traits@D@std@@V?$allocator@D@2@@std@@PAUcanal_data@@U?$less@V?$basic_string@DU?$char_traits@D@std@@V?$allocator@D@2@@std@@@2@V?$allocator@U?$pair@$$CBV?$basic_string@DU?$char_traits@D@std@@V?$allocator@D@2@@std@@PAUcanal_data@@@std@@@2@$0A@@std@@@std@@IBEAAPAU?$_Tree_node@U?$pair@$$CBV?$basic_string@DU?$char_traits@D@std@@V?$allocator@D@2@@std@@PAUcanal_data@@@std@@PAX@2@XZ 10035890 f i SocketServer.obj
 0001:000348f0       ?_Rmost@?$_Tree@V?$_Tmap_traits@V?$basic_string@DU?$char_traits@D@std@@V?$allocator@D@2@@std@@PAUcanal_socket_data@@U?$less@V?$basic_string@DU?$char_traits@D@std@@V?$allocator@D@2@@std@@@2@V?$allocator@U?$pair@$$CBV?$basic_string@DU?$char_traits@D@std@@V?$allocator@D@2@@std@@PAUcanal_socket_data@@@std@@@2@$0A@@std@@@std@@IBEAAPAU?$_Tree_node@U?$pair@$$CBV?$basic_string@DU?$char_traits@D@std@@V?$allocator@D@2@@std@@PAUcanal_socket_data@@@std@@PAX@2@XZ 100358f0 f i SocketServer.obj
 0001:00034950       ?_Root@?$_Tree@V?$_Tmap_traits@V?$basic_string@DU?$char_traits@D@std@@V?$allocator@D@2@@std@@PAP6AHV12@PAX@ZU?$less@V?$basic_string@DU?$char_traits@D@std@@V?$allocator@D@2@@std@@@2@V?$allocator@U?$pair@$$CBV?$basic_string@DU?$char_traits@D@std@@V?$allocator@D@2@@std@@PAP6AHV12@PAX@Z@std@@@2@$0A@@std@@@std@@IBEAAPAU?$_Tree_node@U?$pair@$$CBV?$basic_string@DU?$char_traits@D@std@@V?$allocator@D@2@@std@@PAP6AHV12@PAX@Z@std@@PAX@2@XZ 10035950 f i SocketServer.obj
 0001:000349b0       ?_Root@?$_Tree@V?$_Tmap_traits@V?$basic_string@DU?$char_traits@D@std@@V?$allocator@D@2@@std@@PAUcanal_data@@U?$less@V?$basic_string@DU?$char_traits@D@std@@V?$allocator@D@2@@std@@@2@V?$allocator@U?$pair@$$CBV?$basic_string@DU?$char_traits@D@std@@V?$allocator@D@2@@std@@PAUcanal_data@@@std@@@2@$0A@@std@@@std@@IBEAAPAU?$_Tree_node@U?$pair@$$CBV?$basic_string@DU?$char_traits@D@std@@V?$allocator@D@2@@std@@PAUcanal_data@@@std@@PAX@2@XZ 100359b0 f i SocketServer.obj
 0001:00034a10       ?_Root@?$_Tree@V?$_Tmap_traits@V?$basic_string@DU?$char_traits@D@std@@V?$allocator@D@2@@std@@PAUcanal_socket_data@@U?$less@V?$basic_string@DU?$char_traits@D@std@@V?$allocator@D@2@@std@@@2@V?$allocator@U?$pair@$$CBV?$basic_string@DU?$char_traits@D@std@@V?$allocator@D@2@@std@@PAUcanal_socket_data@@@std@@@2@$0A@@std@@@std@@IBEAAPAU?$_Tree_node@U?$pair@$$CBV?$basic_string@DU?$char_traits@D@std@@V?$allocator@D@2@@std@@PAUcanal_socket_data@@@std@@PAX@2@XZ 10035a10 f i SocketServer.obj
 0001:00034a70       ?_Rrotate@?$_Tree@V?$_Tmap_traits@V?$basic_string@DU?$char_traits@D@std@@V?$allocator@D@2@@std@@PAP6AHV12@PAX@ZU?$less@V?$basic_string@DU?$char_traits@D@std@@V?$allocator@D@2@@std@@@2@V?$allocator@U?$pair@$$CBV?$basic_string@DU?$char_traits@D@std@@V?$allocator@D@2@@std@@PAP6AHV12@PAX@Z@std@@@2@$0A@@std@@@std@@IAEXPAU?$_Tree_node@U?$pair@$$CBV?$basic_string@DU?$char_traits@D@std@@V?$allocator@D@2@@std@@PAP6AHV12@PAX@Z@std@@PAX@2@@Z 10035a70 f i SocketServer.obj
 0001:00034c20       ?_Rrotate@?$_Tree@V?$_Tmap_traits@V?$basic_string@DU?$char_traits@D@std@@V?$allocator@D@2@@std@@PAUcanal_data@@U?$less@V?$basic_string@DU?$char_traits@D@std@@V?$allocator@D@2@@std@@@2@V?$allocator@U?$pair@$$CBV?$basic_string@DU?$char_traits@D@std@@V?$allocator@D@2@@std@@PAUcanal_data@@@std@@@2@$0A@@std@@@std@@IAEXPAU?$_Tree_node@U?$pair@$$CBV?$basic_string@DU?$char_traits@D@std@@V?$allocator@D@2@@std@@PAUcanal_data@@@std@@PAX@2@@Z 10035c20 f i SocketServer.obj
 0001:00034dd0       ?_Rrotate@?$_Tree@V?$_Tmap_traits@V?$basic_string@DU?$char_traits@D@std@@V?$allocator@D@2@@std@@PAUcanal_socket_data@@U?$less@V?$basic_string@DU?$char_traits@D@std@@V?$allocator@D@2@@std@@@2@V?$allocator@U?$pair@$$CBV?$basic_string@DU?$char_traits@D@std@@V?$allocator@D@2@@std@@PAUcanal_socket_data@@@std@@@2@$0A@@std@@@std@@IAEXPAU?$_Tree_node@U?$pair@$$CBV?$basic_string@DU?$char_traits@D@std@@V?$allocator@D@2@@std@@PAUcanal_socket_data@@@std@@PAX@2@@Z 10035dd0 f i SocketServer.obj
 0001:00034f80       ?_Tidy@?$_Tree@V?$_Tmap_traits@V?$basic_string@DU?$char_traits@D@std@@V?$allocator@D@2@@std@@PAP6AHV12@PAX@ZU?$less@V?$basic_string@DU?$char_traits@D@std@@V?$allocator@D@2@@std@@@2@V?$allocator@U?$pair@$$CBV?$basic_string@DU?$char_traits@D@std@@V?$allocator@D@2@@std@@PAP6AHV12@PAX@Z@std@@@2@$0A@@std@@@std@@IAEXXZ 10035f80 f i SocketServer.obj
 0001:00035110       ?_Tidy@?$_Tree@V?$_Tmap_traits@V?$basic_string@DU?$char_traits@D@std@@V?$allocator@D@2@@std@@PAUcanal_data@@U?$less@V?$basic_string@DU?$char_traits@D@std@@V?$allocator@D@2@@std@@@2@V?$allocator@U?$pair@$$CBV?$basic_string@DU?$char_traits@D@std@@V?$allocator@D@2@@std@@PAUcanal_data@@@std@@@2@$0A@@std@@@std@@IAEXXZ 10036110 f i SocketServer.obj
 0001:000352a0       ?_Tidy@?$_Tree@V?$_Tmap_traits@V?$basic_string@DU?$char_traits@D@std@@V?$allocator@D@2@@std@@PAUcanal_socket_data@@U?$less@V?$basic_string@DU?$char_traits@D@std@@V?$allocator@D@2@@std@@@2@V?$allocator@U?$pair@$$CBV?$basic_string@DU?$char_traits@D@std@@V?$allocator@D@2@@std@@PAUcanal_socket_data@@@std@@@2@$0A@@std@@@std@@IAEXXZ 100362a0 f i SocketServer.obj
 0001:00035430       ?_Tidy@?$vector@PAXV?$allocator@PAX@std@@@std@@IAEXXZ 10036430 f i SocketServer.obj
 0001:00035510       ?_Unused_capacity@?$vector@PAXV?$allocator@PAX@std@@@std@@QBEIXZ 10036510 f i SocketServer.obj
 0001:00035560       ?_Xlen@?$vector@PAXV?$allocator@PAX@std@@@std@@IBEXXZ 10036560 f i SocketServer.obj
 0001:000355c0       ?_proc@SocketServer@@CAXPAX@Z 100365c0 f   SocketServer.obj
 0001:00035680       ?_proc_soket@SocketServer@@CAXPAX@Z 10036680 f   SocketServer.obj
 0001:00035980       ?allocate@?$_Wrap_alloc@V?$allocator@PAX@std@@@std@@QAEPAPAXI@Z 10036980 f i SocketServer.obj
 0001:000359e0       ?allocate@?$_Wrap_alloc@V?$allocator@U?$_Tree_node@U?$pair@$$CBV?$basic_string@DU?$char_traits@D@std@@V?$allocator@D@2@@std@@PAP6AHV12@PAX@Z@std@@PAX@std@@@std@@@std@@QAEPAU?$_Tree_node@U?$pair@$$CBV?$basic_string@DU?$char_traits@D@std@@V?$allocator@D@2@@std@@PAP6AHV12@PAX@Z@std@@PAX@2@I@Z 100369e0 f i SocketServer.obj
 0001:00035a40       ?allocate@?$_Wrap_alloc@V?$allocator@U?$_Tree_node@U?$pair@$$CBV?$basic_string@DU?$char_traits@D@std@@V?$allocator@D@2@@std@@PAUcanal_data@@@std@@PAX@std@@@std@@@std@@QAEPAU?$_Tree_node@U?$pair@$$CBV?$basic_string@DU?$char_traits@D@std@@V?$allocator@D@2@@std@@PAUcanal_data@@@std@@PAX@2@I@Z 10036a40 f i SocketServer.obj
 0001:00035aa0       ?allocate@?$_Wrap_alloc@V?$allocator@U?$_Tree_node@U?$pair@$$CBV?$basic_string@DU?$char_traits@D@std@@V?$allocator@D@2@@std@@PAUcanal_socket_data@@@std@@PAX@std@@@std@@@std@@QAEPAU?$_Tree_node@U?$pair@$$CBV?$basic_string@DU?$char_traits@D@std@@V?$allocator@D@2@@std@@PAUcanal_socket_data@@@std@@PAX@2@I@Z 10036aa0 f i SocketServer.obj
 0001:00035b00       ?allocate@?$allocator@PAX@std@@QAEPAPAXI@Z 10036b00 f i SocketServer.obj
 0001:00035b60       ?allocate@?$allocator@U?$_Tree_node@U?$pair@$$CBV?$basic_string@DU?$char_traits@D@std@@V?$allocator@D@2@@std@@PAP6AHV12@PAX@Z@std@@PAX@std@@@std@@QAEPAU?$_Tree_node@U?$pair@$$CBV?$basic_string@DU?$char_traits@D@std@@V?$allocator@D@2@@std@@PAP6AHV12@PAX@Z@std@@PAX@2@I@Z 10036b60 f i SocketServer.obj
 0001:00035bc0       ?allocate@?$allocator@U?$_Tree_node@U?$pair@$$CBV?$basic_string@DU?$char_traits@D@std@@V?$allocator@D@2@@std@@PAUcanal_data@@@std@@PAX@std@@@std@@QAEPAU?$_Tree_node@U?$pair@$$CBV?$basic_string@DU?$char_traits@D@std@@V?$allocator@D@2@@std@@PAUcanal_data@@@std@@PAX@2@I@Z 10036bc0 f i SocketServer.obj
 0001:00035c20       ?allocate@?$allocator@U?$_Tree_node@U?$pair@$$CBV?$basic_string@DU?$char_traits@D@std@@V?$allocator@D@2@@std@@PAUcanal_socket_data@@@std@@PAX@std@@@std@@QAEPAU?$_Tree_node@U?$pair@$$CBV?$basic_string@DU?$char_traits@D@std@@V?$allocator@D@2@@std@@PAUcanal_socket_data@@@std@@PAX@2@I@Z 10036c20 f i SocketServer.obj
 0001:00035c80       ?assign@?$basic_string@DU?$char_traits@D@std@@V?$allocator@D@2@@std@@QAEAAV12@ABV12@@Z 10036c80 f i SocketServer.obj
 0001:00035ce0       ?begin@?$_Tree@V?$_Tmap_traits@V?$basic_string@DU?$char_traits@D@std@@V?$allocator@D@2@@std@@PAP6AHV12@PAX@ZU?$less@V?$basic_string@DU?$char_traits@D@std@@V?$allocator@D@2@@std@@@2@V?$allocator@U?$pair@$$CBV?$basic_string@DU?$char_traits@D@std@@V?$allocator@D@2@@std@@PAP6AHV12@PAX@Z@std@@@2@$0A@@std@@@std@@QAE?AV?$_Tree_iterator@V?$_Tree_val@U?$_Tree_simple_types@U?$pair@$$CBV?$basic_string@DU?$char_traits@D@std@@V?$allocator@D@2@@std@@PAP6AHV12@PAX@Z@std@@@std@@@std@@@2@XZ 10036ce0 f i SocketServer.obj
 0001:00035d50       ?begin@?$_Tree@V?$_Tmap_traits@V?$basic_string@DU?$char_traits@D@std@@V?$allocator@D@2@@std@@PAUcanal_data@@U?$less@V?$basic_string@DU?$char_traits@D@std@@V?$allocator@D@2@@std@@@2@V?$allocator@U?$pair@$$CBV?$basic_string@DU?$char_traits@D@std@@V?$allocator@D@2@@std@@PAUcanal_data@@@std@@@2@$0A@@std@@@std@@QAE?AV?$_Tree_iterator@V?$_Tree_val@U?$_Tree_simple_types@U?$pair@$$CBV?$basic_string@DU?$char_traits@D@std@@V?$allocator@D@2@@std@@PAUcanal_data@@@std@@@std@@@std@@@2@XZ 10036d50 f i SocketServer.obj
 0001:00035dc0       ?begin@?$_Tree@V?$_Tmap_traits@V?$basic_string@DU?$char_traits@D@std@@V?$allocator@D@2@@std@@PAUcanal_socket_data@@U?$less@V?$basic_string@DU?$char_traits@D@std@@V?$allocator@D@2@@std@@@2@V?$allocator@U?$pair@$$CBV?$basic_string@DU?$char_traits@D@std@@V?$allocator@D@2@@std@@PAUcanal_socket_data@@@std@@@2@$0A@@std@@@std@@QAE?AV?$_Tree_iterator@V?$_Tree_val@U?$_Tree_simple_types@U?$pair@$$CBV?$basic_string@DU?$char_traits@D@std@@V?$allocator@D@2@@std@@PAUcanal_socket_data@@@std@@@std@@@std@@@2@XZ 10036dc0 f i SocketServer.obj
 0001:00035e30       ?begin@?$vector@PAXV?$allocator@PAX@std@@@std@@QAE?AV?$_Vector_iterator@V?$_Vector_val@U?$_Simple_types@PAX@std@@@std@@@2@XZ 10036e30 f i SocketServer.obj
 0001:00035ea0       ?canalStart@SocketServer@@QAE_NV?$basic_string@DU?$char_traits@D@std@@V?$allocator@D@2@@std@@@Z 10036ea0 f   SocketServer.obj
 0001:00036000       ?capacity@?$vector@PAXV?$allocator@PAX@std@@@std@@QBEIXZ 10037000 f i SocketServer.obj
 0001:00036050       ?clear@?$_Tree@V?$_Tmap_traits@V?$basic_string@DU?$char_traits@D@std@@V?$allocator@D@2@@std@@PAP6AHV12@PAX@ZU?$less@V?$basic_string@DU?$char_traits@D@std@@V?$allocator@D@2@@std@@@2@V?$allocator@U?$pair@$$CBV?$basic_string@DU?$char_traits@D@std@@V?$allocator@D@2@@std@@PAP6AHV12@PAX@Z@std@@@2@$0A@@std@@@std@@QAEXXZ 10037050 f i SocketServer.obj
 0001:00036110       ?clear@?$_Tree@V?$_Tmap_traits@V?$basic_string@DU?$char_traits@D@std@@V?$allocator@D@2@@std@@PAUcanal_data@@U?$less@V?$basic_string@DU?$char_traits@D@std@@V?$allocator@D@2@@std@@@2@V?$allocator@U?$pair@$$CBV?$basic_string@DU?$char_traits@D@std@@V?$allocator@D@2@@std@@PAUcanal_data@@@std@@@2@$0A@@std@@@std@@QAEXXZ 10037110 f i SocketServer.obj
 0001:000361d0       ?clear@?$_Tree@V?$_Tmap_traits@V?$basic_string@DU?$char_traits@D@std@@V?$allocator@D@2@@std@@PAUcanal_socket_data@@U?$less@V?$basic_string@DU?$char_traits@D@std@@V?$allocator@D@2@@std@@@2@V?$allocator@U?$pair@$$CBV?$basic_string@DU?$char_traits@D@std@@V?$allocator@D@2@@std@@PAUcanal_socket_data@@@std@@@2@$0A@@std@@@std@@QAEXXZ 100371d0 f i SocketServer.obj
 0001:00036290       ?deallocate@?$_Wrap_alloc@V?$allocator@PAX@std@@@std@@QAEXPAPAXI@Z 10037290 f i SocketServer.obj
 0001:000362f0       ?deallocate@?$_Wrap_alloc@V?$allocator@U?$_Tree_node@U?$pair@$$CBV?$basic_string@DU?$char_traits@D@std@@V?$allocator@D@2@@std@@PAP6AHV12@PAX@Z@std@@PAX@std@@@std@@@std@@QAEXPAU?$_Tree_node@U?$pair@$$CBV?$basic_string@DU?$char_traits@D@std@@V?$allocator@D@2@@std@@PAP6AHV12@PAX@Z@std@@PAX@2@I@Z 100372f0 f i SocketServer.obj
 0001:00036350       ?deallocate@?$_Wrap_alloc@V?$allocator@U?$_Tree_node@U?$pair@$$CBV?$basic_string@DU?$char_traits@D@std@@V?$allocator@D@2@@std@@PAUcanal_data@@@std@@PAX@std@@@std@@@std@@QAEXPAU?$_Tree_node@U?$pair@$$CBV?$basic_string@DU?$char_traits@D@std@@V?$allocator@D@2@@std@@PAUcanal_data@@@std@@PAX@2@I@Z 10037350 f i SocketServer.obj
 0001:000363b0       ?deallocate@?$_Wrap_alloc@V?$allocator@U?$_Tree_node@U?$pair@$$CBV?$basic_string@DU?$char_traits@D@std@@V?$allocator@D@2@@std@@PAUcanal_socket_data@@@std@@PAX@std@@@std@@@std@@QAEXPAU?$_Tree_node@U?$pair@$$CBV?$basic_string@DU?$char_traits@D@std@@V?$allocator@D@2@@std@@PAUcanal_socket_data@@@std@@PAX@2@I@Z 100373b0 f i SocketServer.obj
 0001:00036410       ?deallocate@?$allocator@PAX@std@@QAEXPAPAXI@Z 10037410 f i SocketServer.obj
 0001:00036470       ?deallocate@?$allocator@U?$_Tree_node@U?$pair@$$CBV?$basic_string@DU?$char_traits@D@std@@V?$allocator@D@2@@std@@PAP6AHV12@PAX@Z@std@@PAX@std@@@std@@QAEXPAU?$_Tree_node@U?$pair@$$CBV?$basic_string@DU?$char_traits@D@std@@V?$allocator@D@2@@std@@PAP6AHV12@PAX@Z@std@@PAX@2@I@Z 10037470 f i SocketServer.obj
 0001:000364d0       ?deallocate@?$allocator@U?$_Tree_node@U?$pair@$$CBV?$basic_string@DU?$char_traits@D@std@@V?$allocator@D@2@@std@@PAUcanal_data@@@std@@PAX@std@@@std@@QAEXPAU?$_Tree_node@U?$pair@$$CBV?$basic_string@DU?$char_traits@D@std@@V?$allocator@D@2@@std@@PAUcanal_data@@@std@@PAX@2@I@Z 100374d0 f i SocketServer.obj
 0001:00036530       ?deallocate@?$allocator@U?$_Tree_node@U?$pair@$$CBV?$basic_string@DU?$char_traits@D@std@@V?$allocator@D@2@@std@@PAUcanal_socket_data@@@std@@PAX@std@@@std@@QAEXPAU?$_Tree_node@U?$pair@$$CBV?$basic_string@DU?$char_traits@D@std@@V?$allocator@D@2@@std@@PAUcanal_socket_data@@@std@@PAX@2@I@Z 10037530 f i SocketServer.obj
 0001:00036590       ?end@?$_Tree@V?$_Tmap_traits@V?$basic_string@DU?$char_traits@D@std@@V?$allocator@D@2@@std@@PAP6AHV12@PAX@ZU?$less@V?$basic_string@DU?$char_traits@D@std@@V?$allocator@D@2@@std@@@2@V?$allocator@U?$pair@$$CBV?$basic_string@DU?$char_traits@D@std@@V?$allocator@D@2@@std@@PAP6AHV12@PAX@Z@std@@@2@$0A@@std@@@std@@QAE?AV?$_Tree_iterator@V?$_Tree_val@U?$_Tree_simple_types@U?$pair@$$CBV?$basic_string@DU?$char_traits@D@std@@V?$allocator@D@2@@std@@PAP6AHV12@PAX@Z@std@@@std@@@std@@@2@XZ 10037590 f i SocketServer.obj
 0001:00036600       ?end@?$_Tree@V?$_Tmap_traits@V?$basic_string@DU?$char_traits@D@std@@V?$allocator@D@2@@std@@PAUcanal_data@@U?$less@V?$basic_string@DU?$char_traits@D@std@@V?$allocator@D@2@@std@@@2@V?$allocator@U?$pair@$$CBV?$basic_string@DU?$char_traits@D@std@@V?$allocator@D@2@@std@@PAUcanal_data@@@std@@@2@$0A@@std@@@std@@QAE?AV?$_Tree_iterator@V?$_Tree_val@U?$_Tree_simple_types@U?$pair@$$CBV?$basic_string@DU?$char_traits@D@std@@V?$allocator@D@2@@std@@PAUcanal_data@@@std@@@std@@@std@@@2@XZ 10037600 f i SocketServer.obj
 0001:00036670       ?end@?$_Tree@V?$_Tmap_traits@V?$basic_string@DU?$char_traits@D@std@@V?$allocator@D@2@@std@@PAUcanal_socket_data@@U?$less@V?$basic_string@DU?$char_traits@D@std@@V?$allocator@D@2@@std@@@2@V?$allocator@U?$pair@$$CBV?$basic_string@DU?$char_traits@D@std@@V?$allocator@D@2@@std@@PAUcanal_socket_data@@@std@@@2@$0A@@std@@@std@@QAE?AV?$_Tree_iterator@V?$_Tree_val@U?$_Tree_simple_types@U?$pair@$$CBV?$basic_string@DU?$char_traits@D@std@@V?$allocator@D@2@@std@@PAUcanal_socket_data@@@std@@@std@@@std@@@2@XZ 10037670 f i SocketServer.obj
 0001:000366e0       ?end@?$vector@PAXV?$allocator@PAX@std@@@std@@QAE?AV?$_Vector_iterator@V?$_Vector_val@U?$_Simple_types@PAX@std@@@std@@@2@XZ 100376e0 f i SocketServer.obj
 0001:00036750       ?endThread@SocketServer@@QAEXV?$basic_string@DU?$char_traits@D@std@@V?$allocator@D@2@@std@@@Z 10037750 f   SocketServer.obj
 0001:00036820       ?equal_range@?$_Tree@V?$_Tmap_traits@V?$basic_string@DU?$char_traits@D@std@@V?$allocator@D@2@@std@@PAP6AHV12@PAX@ZU?$less@V?$basic_string@DU?$char_traits@D@std@@V?$allocator@D@2@@std@@@2@V?$allocator@U?$pair@$$CBV?$basic_string@DU?$char_traits@D@std@@V?$allocator@D@2@@std@@PAP6AHV12@PAX@Z@std@@@2@$0A@@std@@@std@@QAE?AU?$pair@V?$_Tree_iterator@V?$_Tree_val@U?$_Tree_simple_types@U?$pair@$$CBV?$basic_string@DU?$char_traits@D@std@@V?$allocator@D@2@@std@@PAP6AHV12@PAX@Z@std@@@std@@@std@@@std@@V12@@2@ABV?$basic_string@DU?$char_traits@D@std@@V?$allocator@D@2@@2@@Z 10037820 f i SocketServer.obj
 0001:00036930       ?equal_range@?$_Tree@V?$_Tmap_traits@V?$basic_string@DU?$char_traits@D@std@@V?$allocator@D@2@@std@@PAUcanal_socket_data@@U?$less@V?$basic_string@DU?$char_traits@D@std@@V?$allocator@D@2@@std@@@2@V?$allocator@U?$pair@$$CBV?$basic_string@DU?$char_traits@D@std@@V?$allocator@D@2@@std@@PAUcanal_socket_data@@@std@@@2@$0A@@std@@@std@@QAE?AU?$pair@V?$_Tree_iterator@V?$_Tree_val@U?$_Tree_simple_types@U?$pair@$$CBV?$basic_string@DU?$char_traits@D@std@@V?$allocator@D@2@@std@@PAUcanal_socket_data@@@std@@@std@@@std@@@std@@V12@@2@ABV?$basic_string@DU?$char_traits@D@std@@V?$allocator@D@2@@2@@Z 10037930 f i SocketServer.obj
 0001:00036a40       ?erase@?$_Tree@V?$_Tmap_traits@V?$basic_string@DU?$char_traits@D@std@@V?$allocator@D@2@@std@@PAP6AHV12@PAX@ZU?$less@V?$basic_string@DU?$char_traits@D@std@@V?$allocator@D@2@@std@@@2@V?$allocator@U?$pair@$$CBV?$basic_string@DU?$char_traits@D@std@@V?$allocator@D@2@@std@@PAP6AHV12@PAX@Z@std@@@2@$0A@@std@@@std@@QAE?AV?$_Tree_iterator@V?$_Tree_val@U?$_Tree_simple_types@U?$pair@$$CBV?$basic_string@DU?$char_traits@D@std@@V?$allocator@D@2@@std@@PAP6AHV12@PAX@Z@std@@@std@@@std@@@2@V?$_Tree_const_iterator@V?$_Tree_val@U?$_Tree_simple_types@U?$pair@$$CBV?$basic_string@DU?$char_traits@D@std@@V?$allocator@D@2@@std@@PAP6AHV12@PAX@Z@std@@@std@@@std@@@2@0@Z 10037a40 f i SocketServer.obj
 0001:00036d60       ?erase@?$_Tree@V?$_Tmap_traits@V?$basic_string@DU?$char_traits@D@std@@V?$allocator@D@2@@std@@PAP6AHV12@PAX@ZU?$less@V?$basic_string@DU?$char_traits@D@std@@V?$allocator@D@2@@std@@@2@V?$allocator@U?$pair@$$CBV?$basic_string@DU?$char_traits@D@std@@V?$allocator@D@2@@std@@PAP6AHV12@PAX@Z@std@@@2@$0A@@std@@@std@@QAE?AV?$_Tree_iterator@V?$_Tree_val@U?$_Tree_simple_types@U?$pair@$$CBV?$basic_string@DU?$char_traits@D@std@@V?$allocator@D@2@@std@@PAP6AHV12@PAX@Z@std@@@std@@@std@@@2@V?$_Tree_const_iterator@V?$_Tree_val@U?$_Tree_simple_types@U?$pair@$$CBV?$basic_string@DU?$char_traits@D@std@@V?$allocator@D@2@@std@@PAP6AHV12@PAX@Z@std@@@std@@@std@@@2@@Z 10037d60 f i SocketServer.obj
 0001:000377d0       ?erase@?$_Tree@V?$_Tmap_traits@V?$basic_string@DU?$char_traits@D@std@@V?$allocator@D@2@@std@@PAP6AHV12@PAX@ZU?$less@V?$basic_string@DU?$char_traits@D@std@@V?$allocator@D@2@@std@@@2@V?$allocator@U?$pair@$$CBV?$basic_string@DU?$char_traits@D@std@@V?$allocator@D@2@@std@@PAP6AHV12@PAX@Z@std@@@2@$0A@@std@@@std@@QAEIABV?$basic_string@DU?$char_traits@D@std@@V?$allocator@D@2@@2@@Z 100387d0 f i SocketServer.obj
 0001:00037a20       ?erase@?$_Tree@V?$_Tmap_traits@V?$basic_string@DU?$char_traits@D@std@@V?$allocator@D@2@@std@@PAUcanal_data@@U?$less@V?$basic_string@DU?$char_traits@D@std@@V?$allocator@D@2@@std@@@2@V?$allocator@U?$pair@$$CBV?$basic_string@DU?$char_traits@D@std@@V?$allocator@D@2@@std@@PAUcanal_data@@@std@@@2@$0A@@std@@@std@@QAE?AV?$_Tree_iterator@V?$_Tree_val@U?$_Tree_simple_types@U?$pair@$$CBV?$basic_string@DU?$char_traits@D@std@@V?$allocator@D@2@@std@@PAUcanal_data@@@std@@@std@@@std@@@2@V?$_Tree_const_iterator@V?$_Tree_val@U?$_Tree_simple_types@U?$pair@$$CBV?$basic_string@DU?$char_traits@D@std@@V?$allocator@D@2@@std@@PAUcanal_data@@@std@@@std@@@std@@@2@0@Z 10038a20 f i SocketServer.obj
 0001:00037d40       ?erase@?$_Tree@V?$_Tmap_traits@V?$basic_string@DU?$char_traits@D@std@@V?$allocator@D@2@@std@@PAUcanal_data@@U?$less@V?$basic_string@DU?$char_traits@D@std@@V?$allocator@D@2@@std@@@2@V?$allocator@U?$pair@$$CBV?$basic_string@DU?$char_traits@D@std@@V?$allocator@D@2@@std@@PAUcanal_data@@@std@@@2@$0A@@std@@@std@@QAE?AV?$_Tree_iterator@V?$_Tree_val@U?$_Tree_simple_types@U?$pair@$$CBV?$basic_string@DU?$char_traits@D@std@@V?$allocator@D@2@@std@@PAUcanal_data@@@std@@@std@@@std@@@2@V?$_Tree_const_iterator@V?$_Tree_val@U?$_Tree_simple_types@U?$pair@$$CBV?$basic_string@DU?$char_traits@D@std@@V?$allocator@D@2@@std@@PAUcanal_data@@@std@@@std@@@std@@@2@@Z 10038d40 f i SocketServer.obj
 0001:000387b0       ?erase@?$_Tree@V?$_Tmap_traits@V?$basic_string@DU?$char_traits@D@std@@V?$allocator@D@2@@std@@PAUcanal_socket_data@@U?$less@V?$basic_string@DU?$char_traits@D@std@@V?$allocator@D@2@@std@@@2@V?$allocator@U?$pair@$$CBV?$basic_string@DU?$char_traits@D@std@@V?$allocator@D@2@@std@@PAUcanal_socket_data@@@std@@@2@$0A@@std@@@std@@QAE?AV?$_Tree_iterator@V?$_Tree_val@U?$_Tree_simple_types@U?$pair@$$CBV?$basic_string@DU?$char_traits@D@std@@V?$allocator@D@2@@std@@PAUcanal_socket_data@@@std@@@std@@@std@@@2@V?$_Tree_const_iterator@V?$_Tree_val@U?$_Tree_simple_types@U?$pair@$$CBV?$basic_string@DU?$char_traits@D@std@@V?$allocator@D@2@@std@@PAUcanal_socket_data@@@std@@@std@@@std@@@2@0@Z 100397b0 f i SocketServer.obj
 0001:00038ad0       ?erase@?$_Tree@V?$_Tmap_traits@V?$basic_string@DU?$char_traits@D@std@@V?$allocator@D@2@@std@@PAUcanal_socket_data@@U?$less@V?$basic_string@DU?$char_traits@D@std@@V?$allocator@D@2@@std@@@2@V?$allocator@U?$pair@$$CBV?$basic_string@DU?$char_traits@D@std@@V?$allocator@D@2@@std@@PAUcanal_socket_data@@@std@@@2@$0A@@std@@@std@@QAE?AV?$_Tree_iterator@V?$_Tree_val@U?$_Tree_simple_types@U?$pair@$$CBV?$basic_string@DU?$char_traits@D@std@@V?$allocator@D@2@@std@@PAUcanal_socket_data@@@std@@@std@@@std@@@2@V?$_Tree_const_iterator@V?$_Tree_val@U?$_Tree_simple_types@U?$pair@$$CBV?$basic_string@DU?$char_traits@D@std@@V?$allocator@D@2@@std@@PAUcanal_socket_data@@@std@@@std@@@std@@@2@@Z 10039ad0 f i SocketServer.obj
 0001:00039540       ?erase@?$_Tree@V?$_Tmap_traits@V?$basic_string@DU?$char_traits@D@std@@V?$allocator@D@2@@std@@PAUcanal_socket_data@@U?$less@V?$basic_string@DU?$char_traits@D@std@@V?$allocator@D@2@@std@@@2@V?$allocator@U?$pair@$$CBV?$basic_string@DU?$char_traits@D@std@@V?$allocator@D@2@@std@@PAUcanal_socket_data@@@std@@@2@$0A@@std@@@std@@QAEIABV?$basic_string@DU?$char_traits@D@std@@V?$allocator@D@2@@2@@Z 1003a540 f i SocketServer.obj
 0001:00039790       ?find@?$_Tree@V?$_Tmap_traits@V?$basic_string@DU?$char_traits@D@std@@V?$allocator@D@2@@std@@PAP6AHV12@PAX@ZU?$less@V?$basic_string@DU?$char_traits@D@std@@V?$allocator@D@2@@std@@@2@V?$allocator@U?$pair@$$CBV?$basic_string@DU?$char_traits@D@std@@V?$allocator@D@2@@std@@PAP6AHV12@PAX@Z@std@@@2@$0A@@std@@@std@@QAE?AV?$_Tree_iterator@V?$_Tree_val@U?$_Tree_simple_types@U?$pair@$$CBV?$basic_string@DU?$char_traits@D@std@@V?$allocator@D@2@@std@@PAP6AHV12@PAX@Z@std@@@std@@@std@@@2@ABV?$basic_string@DU?$char_traits@D@std@@V?$allocator@D@2@@2@@Z 1003a790 f i SocketServer.obj
 0001:00039aa0       ?initCanal@SocketServer@@QAEHV?$basic_string@DU?$char_traits@D@std@@V?$allocator@D@2@@std@@PAP6AH0PAX@Z1@Z 1003aaa0 f   SocketServer.obj
 0001:00039c60       ?initSocketCanal@SocketServer@@QAEHV?$basic_string@DU?$char_traits@D@std@@V?$allocator@D@2@@std@@PAP6AH0PAX@ZH1@Z 1003ac60 f   SocketServer.obj
 0001:00039f90       ?lower_bound@?$_Tree@V?$_Tmap_traits@V?$basic_string@DU?$char_traits@D@std@@V?$allocator@D@2@@std@@PAP6AHV12@PAX@ZU?$less@V?$basic_string@DU?$char_traits@D@std@@V?$allocator@D@2@@std@@@2@V?$allocator@U?$pair@$$CBV?$basic_string@DU?$char_traits@D@std@@V?$allocator@D@2@@std@@PAP6AHV12@PAX@Z@std@@@2@$0A@@std@@@std@@QAE?AV?$_Tree_iterator@V?$_Tree_val@U?$_Tree_simple_types@U?$pair@$$CBV?$basic_string@DU?$char_traits@D@std@@V?$allocator@D@2@@std@@PAP6AHV12@PAX@Z@std@@@std@@@std@@@2@ABV?$basic_string@DU?$char_traits@D@std@@V?$allocator@D@2@@2@@Z 1003af90 f i SocketServer.obj
 0001:0003a020       ?lower_bound@?$_Tree@V?$_Tmap_traits@V?$basic_string@DU?$char_traits@D@std@@V?$allocator@D@2@@std@@PAUcanal_data@@U?$less@V?$basic_string@DU?$char_traits@D@std@@V?$allocator@D@2@@std@@@2@V?$allocator@U?$pair@$$CBV?$basic_string@DU?$char_traits@D@std@@V?$allocator@D@2@@std@@PAUcanal_data@@@std@@@2@$0A@@std@@@std@@QAE?AV?$_Tree_iterator@V?$_Tree_val@U?$_Tree_simple_types@U?$pair@$$CBV?$basic_string@DU?$char_traits@D@std@@V?$allocator@D@2@@std@@PAUcanal_data@@@std@@@std@@@std@@@2@ABV?$basic_string@DU?$char_traits@D@std@@V?$allocator@D@2@@2@@Z 1003b020 f i SocketServer.obj
 0001:0003a0b0       ?lower_bound@?$_Tree@V?$_Tmap_traits@V?$basic_string@DU?$char_traits@D@std@@V?$allocator@D@2@@std@@PAUcanal_socket_data@@U?$less@V?$basic_string@DU?$char_traits@D@std@@V?$allocator@D@2@@std@@@2@V?$allocator@U?$pair@$$CBV?$basic_string@DU?$char_traits@D@std@@V?$allocator@D@2@@std@@PAUcanal_socket_data@@@std@@@2@$0A@@std@@@std@@QAE?AV?$_Tree_iterator@V?$_Tree_val@U?$_Tree_simple_types@U?$pair@$$CBV?$basic_string@DU?$char_traits@D@std@@V?$allocator@D@2@@std@@PAUcanal_socket_data@@@std@@@std@@@std@@@2@ABV?$basic_string@DU?$char_traits@D@std@@V?$allocator@D@2@@2@@Z 1003b0b0 f i SocketServer.obj
 0001:0003a140       ?max_size@?$_Tree@V?$_Tmap_traits@V?$basic_string@DU?$char_traits@D@std@@V?$allocator@D@2@@std@@PAP6AHV12@PAX@ZU?$less@V?$basic_string@DU?$char_traits@D@std@@V?$allocator@D@2@@std@@@2@V?$allocator@U?$pair@$$CBV?$basic_string@DU?$char_traits@D@std@@V?$allocator@D@2@@std@@PAP6AHV12@PAX@Z@std@@@2@$0A@@std@@@std@@QBEIXZ 1003b140 f i SocketServer.obj
 0001:0003a1a0       ?max_size@?$_Tree@V?$_Tmap_traits@V?$basic_string@DU?$char_traits@D@std@@V?$allocator@D@2@@std@@PAUcanal_data@@U?$less@V?$basic_string@DU?$char_traits@D@std@@V?$allocator@D@2@@std@@@2@V?$allocator@U?$pair@$$CBV?$basic_string@DU?$char_traits@D@std@@V?$allocator@D@2@@std@@PAUcanal_data@@@std@@@2@$0A@@std@@@std@@QBEIXZ 1003b1a0 f i SocketServer.obj
 0001:0003a200       ?max_size@?$_Tree@V?$_Tmap_traits@V?$basic_string@DU?$char_traits@D@std@@V?$allocator@D@2@@std@@PAUcanal_socket_data@@U?$less@V?$basic_string@DU?$char_traits@D@std@@V?$allocator@D@2@@std@@@2@V?$allocator@U?$pair@$$CBV?$basic_string@DU?$char_traits@D@std@@V?$allocator@D@2@@std@@PAUcanal_socket_data@@@std@@@2@$0A@@std@@@std@@QBEIXZ 1003b200 f i SocketServer.obj
 0001:0003a260       ?max_size@?$_Wrap_alloc@V?$allocator@PAX@std@@@std@@QBEIXZ 1003b260 f i SocketServer.obj
 0001:0003a2c0       ?max_size@?$_Wrap_alloc@V?$allocator@U?$_Tree_node@U?$pair@$$CBV?$basic_string@DU?$char_traits@D@std@@V?$allocator@D@2@@std@@PAP6AHV12@PAX@Z@std@@PAX@std@@@std@@@std@@QBEIXZ 1003b2c0 f i SocketServer.obj
 0001:0003a320       ?max_size@?$_Wrap_alloc@V?$allocator@U?$_Tree_node@U?$pair@$$CBV?$basic_string@DU?$char_traits@D@std@@V?$allocator@D@2@@std@@PAUcanal_data@@@std@@PAX@std@@@std@@@std@@QBEIXZ 1003b320 f i SocketServer.obj
 0001:0003a380       ?max_size@?$_Wrap_alloc@V?$allocator@U?$_Tree_node@U?$pair@$$CBV?$basic_string@DU?$char_traits@D@std@@V?$allocator@D@2@@std@@PAUcanal_socket_data@@@std@@PAX@std@@@std@@@std@@QBEIXZ 1003b380 f i SocketServer.obj
 0001:0003a3e0       ?max_size@?$allocator@PAX@std@@QBEIXZ 1003b3e0 f i SocketServer.obj
 0001:0003a420       ?max_size@?$allocator@U?$_Tree_node@U?$pair@$$CBV?$basic_string@DU?$char_traits@D@std@@V?$allocator@D@2@@std@@PAP6AHV12@PAX@Z@std@@PAX@std@@@std@@QBEIXZ 1003b420 f i SocketServer.obj
 0001:0003a460       ?max_size@?$allocator@U?$_Tree_node@U?$pair@$$CBV?$basic_string@DU?$char_traits@D@std@@V?$allocator@D@2@@std@@PAUcanal_data@@@std@@PAX@std@@@std@@QBEIXZ 1003b460 f i SocketServer.obj
 0001:0003a4a0       ?max_size@?$allocator@U?$_Tree_node@U?$pair@$$CBV?$basic_string@DU?$char_traits@D@std@@V?$allocator@D@2@@std@@PAUcanal_socket_data@@@std@@PAX@std@@@std@@QBEIXZ 1003b4a0 f i SocketServer.obj
 0001:0003a4e0       ?max_size@?$allocator_traits@V?$allocator@PAX@std@@@std@@SAIABV?$allocator@PAX@2@@Z 1003b4e0 f i SocketServer.obj
 0001:0003a530       ?max_size@?$allocator_traits@V?$allocator@U?$_Tree_node@U?$pair@$$CBV?$basic_string@DU?$char_traits@D@std@@V?$allocator@D@2@@std@@PAP6AHV12@PAX@Z@std@@PAX@std@@@std@@@std@@SAIABV?$allocator@U?$_Tree_node@U?$pair@$$CBV?$basic_string@DU?$char_traits@D@std@@V?$allocator@D@2@@std@@PAP6AHV12@PAX@Z@std@@PAX@std@@@2@@Z 1003b530 f i SocketServer.obj
 0001:0003a580       ?max_size@?$allocator_traits@V?$allocator@U?$_Tree_node@U?$pair@$$CBV?$basic_string@DU?$char_traits@D@std@@V?$allocator@D@2@@std@@PAUcanal_data@@@std@@PAX@std@@@std@@@std@@SAIABV?$allocator@U?$_Tree_node@U?$pair@$$CBV?$basic_string@DU?$char_traits@D@std@@V?$allocator@D@2@@std@@PAUcanal_data@@@std@@PAX@std@@@2@@Z 1003b580 f i SocketServer.obj
 0001:0003a5d0       ?max_size@?$allocator_traits@V?$allocator@U?$_Tree_node@U?$pair@$$CBV?$basic_string@DU?$char_traits@D@std@@V?$allocator@D@2@@std@@PAUcanal_socket_data@@@std@@PAX@std@@@std@@@std@@SAIABV?$allocator@U?$_Tree_node@U?$pair@$$CBV?$basic_string@DU?$char_traits@D@std@@V?$allocator@D@2@@std@@PAUcanal_socket_data@@@std@@PAX@std@@@2@@Z 1003b5d0 f i SocketServer.obj
 0001:0003a620       ?max_size@?$vector@PAXV?$allocator@PAX@std@@@std@@QBEIXZ 1003b620 f i SocketServer.obj
 0001:0003a680       ?pointer_to@?$pointer_traits@PAU?$pair@$$CBV?$basic_string@DU?$char_traits@D@std@@V?$allocator@D@2@@std@@PAP6AHV12@PAX@Z@std@@@std@@SAPAU?$pair@$$CBV?$basic_string@DU?$char_traits@D@std@@V?$allocator@D@2@@std@@PAP6AHV12@PAX@Z@2@AAU32@@Z 1003b680 f i SocketServer.obj
 0001:0003a6d0       ?pointer_to@?$pointer_traits@PAU?$pair@$$CBV?$basic_string@DU?$char_traits@D@std@@V?$allocator@D@2@@std@@PAUcanal_data@@@std@@@std@@SAPAU?$pair@$$CBV?$basic_string@DU?$char_traits@D@std@@V?$allocator@D@2@@std@@PAUcanal_data@@@2@AAU32@@Z 1003b6d0 f i SocketServer.obj
 0001:0003a720       ?pointer_to@?$pointer_traits@PAU?$pair@$$CBV?$basic_string@DU?$char_traits@D@std@@V?$allocator@D@2@@std@@PAUcanal_socket_data@@@std@@@std@@SAPAU?$pair@$$CBV?$basic_string@DU?$char_traits@D@std@@V?$allocator@D@2@@std@@PAUcanal_socket_data@@@2@AAU32@@Z 1003b720 f i SocketServer.obj
 0001:0003a770       ?push_back@?$vector@PAXV?$allocator@PAX@std@@@std@@QAEX$$QAPAX@Z 1003b770 f i SocketServer.obj
 0001:0003a910       ?size@?$_Tree@V?$_Tmap_traits@V?$basic_string@DU?$char_traits@D@std@@V?$allocator@D@2@@std@@PAP6AHV12@PAX@ZU?$less@V?$basic_string@DU?$char_traits@D@std@@V?$allocator@D@2@@std@@@2@V?$allocator@U?$pair@$$CBV?$basic_string@DU?$char_traits@D@std@@V?$allocator@D@2@@std@@PAP6AHV12@PAX@Z@std@@@2@$0A@@std@@@std@@QBEIXZ 1003b910 f i SocketServer.obj
 0001:0003a950       ?size@?$_Tree@V?$_Tmap_traits@V?$basic_string@DU?$char_traits@D@std@@V?$allocator@D@2@@std@@PAUcanal_data@@U?$less@V?$basic_string@DU?$char_traits@D@std@@V?$allocator@D@2@@std@@@2@V?$allocator@U?$pair@$$CBV?$basic_string@DU?$char_traits@D@std@@V?$allocator@D@2@@std@@PAUcanal_data@@@std@@@2@$0A@@std@@@std@@QBEIXZ 1003b950 f i SocketServer.obj
 0001:0003a990       ?size@?$_Tree@V?$_Tmap_traits@V?$basic_string@DU?$char_traits@D@std@@V?$allocator@D@2@@std@@PAUcanal_socket_data@@U?$less@V?$basic_string@DU?$char_traits@D@std@@V?$allocator@D@2@@std@@@2@V?$allocator@U?$pair@$$CBV?$basic_string@DU?$char_traits@D@std@@V?$allocator@D@2@@std@@PAUcanal_socket_data@@@std@@@2@$0A@@std@@@std@@QBEIXZ 1003b990 f i SocketServer.obj
 0001:0003a9d0       ?size@?$vector@PAXV?$allocator@PAX@std@@@std@@QBEIXZ 1003b9d0 f i SocketServer.obj
 0001:0003aa20       _sqlite3_value_text        1003ba20 f   sqlite3.obj
 0001:0003aa70       _sqlite3_value_text16      1003ba70 f   sqlite3.obj
 0001:0003ab30       _sqlite3_value_text16le    1003bb30 f   sqlite3.obj
 0001:0003ab80       _sqlite3_value_text16be    1003bb80 f   sqlite3.obj
 0001:0003ac30       _sqlite3_value_type        1003bc30 f   sqlite3.obj
 0001:0003ac80       _sqlite3_value_numeric_type 1003bc80 f   sqlite3.obj
 0001:0003ad10       _sqlite3_value_subtype     1003bd10 f   sqlite3.obj
 0001:0003ad50       _sqlite3_value_dup         1003bd50 f   sqlite3.obj
 0001:0003ae80       _sqlite3_value_free        1003be80 f   sqlite3.obj
 0001:0003af30       _sqlite3_aggregate_context 1003bf30 f   sqlite3.obj
 0001:0003afb0       _sqlite3_user_data         1003bfb0 f   sqlite3.obj
 0001:0003aff0       _sqlite3_context_db_handle 1003bff0 f   sqlite3.obj
 0001:0003b030       _sqlite3_get_auxdata       1003c030 f   sqlite3.obj
 0001:0003b0e0       _sqlite3_set_auxdata       1003c0e0 f   sqlite3.obj
 0001:0003b3d0       _sqlite3_result_blob       1003c3d0 f   sqlite3.obj
 0001:0003b430       _sqlite3_result_blob64     1003c430 f   sqlite3.obj
 0001:0003b4c0       _sqlite3_result_double     1003c4c0 f   sqlite3.obj
 0001:0003b520       _sqlite3_result_error      1003c520 f   sqlite3.obj
 0001:0003b620       _sqlite3_result_error16    1003c620 f   sqlite3.obj
 0001:0003b6a0       _sqlite3_result_error_toobig 1003c6a0 f   sqlite3.obj
 0001:0003b720       _sqlite3_result_error_nomem 1003c720 f   sqlite3.obj
 0001:0003b7a0       _sqlite3_result_error_code 1003c7a0 f   sqlite3.obj
 0001:0003b830       _sqlite3_result_int        1003c830 f   sqlite3.obj
 0001:0003b890       _sqlite3_result_int64      1003c890 f   sqlite3.obj
 0001:0003b8f0       _sqlite3_result_null       1003c8f0 f   sqlite3.obj
 0001:0003b940       _sqlite3_result_text       1003c940 f   sqlite3.obj
 0001:0003b9a0       _sqlite3_result_text64     1003c9a0 f   sqlite3.obj
 0001:0003bcd0       _sqlite3_result_text16     1003ccd0 f   sqlite3.obj
 0001:0003bd30       _sqlite3_result_text16le   1003cd30 f   sqlite3.obj
 0001:0003be50       _sqlite3_result_text16be   1003ce50 f   sqlite3.obj
 0001:0003beb0       _sqlite3_result_value      1003ceb0 f   sqlite3.obj
 0001:0003c100       _sqlite3_result_zeroblob   1003d100 f   sqlite3.obj
 0001:0003c230       _sqlite3_result_zeroblob64 1003d230 f   sqlite3.obj
 0001:0003c2e0       _sqlite3_result_subtype    1003d2e0 f   sqlite3.obj
 0001:0003c6b0       _sqlite3_create_collation  1003d6b0 f   sqlite3.obj
 0001:0003c930       _sqlite3_create_collation_v2 1003d930 f   sqlite3.obj
 0001:0003cc90       _sqlite3_create_collation16 1003dc90 f   sqlite3.obj
 0001:0003ce10       _sqlite3_collation_needed  1003de10 f   sqlite3.obj
 0001:0003cf40       _sqlite3_collation_needed16 1003df40 f   sqlite3.obj
 0001:0003cfe0       _sqlite3_sleep             1003dfe0 f   sqlite3.obj
 0001:0003d100       _sqlite3_get_autocommit    1003e100 f   sqlite3.obj
 0001:0003d140       _sqlite3_db_handle         1003e140 f   sqlite3.obj
 0001:0003d1a0       _sqlite3_db_filename       1003e1a0 f   sqlite3.obj
 0001:0003d230       _sqlite3_db_readonly       1003e230 f   sqlite3.obj
 0001:0003d890       _sqlite3_next_stmt         1003e890 f   sqlite3.obj
 0001:0003d920       _sqlite3_commit_hook       1003e920 f   sqlite3.obj
 0001:0003d9c0       _sqlite3_rollback_hook     1003e9c0 f   sqlite3.obj
 0001:0003da60       _sqlite3_update_hook       1003ea60 f   sqlite3.obj
 0001:0003db00       _sqlite3_enable_shared_cache 1003eb00 f   sqlite3.obj
 0001:0003db40       _sqlite3_release_memory    1003eb40 f   sqlite3.obj
 0001:0003db70       _sqlite3_db_release_memory 1003eb70 f   sqlite3.obj
 0001:0003dc60       _sqlite3_soft_heap_limit64 1003ec60 f   sqlite3.obj
 0001:0003ddf0       _sqlite3_soft_heap_limit   1003edf0 f   sqlite3.obj
 0001:0003de50       _sqlite3_table_column_metadata 1003ee50 f   sqlite3.obj
 0001:0003e390       _sqlite3_load_extension    1003f390 f   sqlite3.obj
 0001:0003e440       _sqlite3_libversion        1003f440 f   sqlite3.obj
 0001:0003e770       _sqlite3_sourceid          1003f770 f   sqlite3.obj
 0001:0003e7b0       _sqlite3_libversion_number 1003f7b0 f   sqlite3.obj
 0001:0003e7f0       _sqlite3_auto_extension    1003f7f0 f   sqlite3.obj
 0001:0003e960       _sqlite3_compileoption_used 1003f960 f   sqlite3.obj
 0001:0003ea60       _sqlite3_compileoption_get 1003fa60 f   sqlite3.obj
 0001:0003eab0       _sqlite3_cancel_auto_extension 1003fab0 f   sqlite3.obj
 0001:0003ebb0       _sqlite3_threadsafe        1003fbb0 f   sqlite3.obj
 0001:0003ebf0       _sqlite3_reset_auto_extension 1003fbf0 f   sqlite3.obj
 0001:0003eca0       _sqlite3_close             1003fca0 f   sqlite3.obj
 0001:0003ecf0       _sqlite3_close_v2          1003fcf0 f   sqlite3.obj
 0001:0003eff0       _sqlite3_exec              1003fff0 f   sqlite3.obj
 0001:000418d0       _sqlite3_create_module     100428d0 f   sqlite3.obj
 0001:00041960       _sqlite3_create_module_v2  10042960 f   sqlite3.obj
 0001:00041bc0       _sqlite3_declare_vtab      10042bc0 f   sqlite3.obj
 0001:00042140       _sqlite3_overload_function 10043140 f   sqlite3.obj
 0001:000424f0       _sqlite3_blob_open         100434f0 f   sqlite3.obj
 0001:00042dd0       _sqlite3_blob_reopen       10043dd0 f   sqlite3.obj
 0001:00042f60       _sqlite3_blob_close        10043f60 f   sqlite3.obj
 0001:00043180       _sqlite3_blob_bytes        10044180 f   sqlite3.obj
 0001:000431f0       _sqlite3_blob_read         100441f0 f   sqlite3.obj
 0001:00043670       _sqlite3_blob_write        10044670 f   sqlite3.obj
 0001:000436e0       _sqlite3_vfs_find          100446e0 f   sqlite3.obj
 0001:00043830       _sqlite3_vfs_register      10044830 f   sqlite3.obj
 0001:00043920       _sqlite3_vfs_unregister    10044920 f   sqlite3.obj
 0001:00043ba0       _sqlite3_db_config         10044ba0 f   sqlite3.obj
 0001:00043dc0       _sqlite3_mutex_alloc       10044dc0 f   sqlite3.obj
 0001:00043e50       _sqlite3_mutex_free        10044e50 f   sqlite3.obj
 0001:00043ec0       _sqlite3_mutex_enter       10044ec0 f   sqlite3.obj
 0001:00044090       _sqlite3_mutex_try         10045090 f   sqlite3.obj
 0001:00044170       _sqlite3_mutex_leave       10045170 f   sqlite3.obj
 0001:00044590       _sqlite3_extended_result_codes 10045590 f   sqlite3.obj
 0001:00044b90       _sqlite3_last_insert_rowid 10045b90 f   sqlite3.obj
 0001:00044bd0       _sqlite3_changes           10045bd0 f   sqlite3.obj
 0001:00044c10       _sqlite3_total_changes     10045c10 f   sqlite3.obj
 0001:00044d00       _sqlite3_interrupt         10045d00 f   sqlite3.obj
 0001:00044d40       _sqlite3_complete          10045d40 f   sqlite3.obj
 0001:00045320       _sqlite3_db_mutex          10046320 f   sqlite3.obj
 0001:000453c0       _sqlite3_complete16        100463c0 f   sqlite3.obj
 0001:000456e0       _sqlite3_file_control      100466e0 f   sqlite3.obj
 0001:00045840       _sqlite3_busy_handler      10046840 f   sqlite3.obj
 0001:00045970       _sqlite3_test_control      10046970 f   sqlite3.obj
 0001:00045f90       _sqlite3_busy_timeout      10046f90 f   sqlite3.obj
 0001:000462a0       _sqlite3_status            100472a0 f   sqlite3.obj
 0001:00046460       _sqlite3_get_table         10047460 f   sqlite3.obj
 0001:00046740       _sqlite3_free_table        10047740 f   sqlite3.obj
 0001:00046800       _sqlite3_mprintf           10047800 f   sqlite3.obj
 0001:00046880       _sqlite3_vmprintf          10047880 f   sqlite3.obj
 0001:00046bd0       _sqlite3_snprintf          10047bd0 f   sqlite3.obj
 0001:00046c50       _sqlite3_db_status         10047c50 f   sqlite3.obj
 0001:00047370       _sqlite3_vsnprintf         10048370 f   sqlite3.obj
 0001:00047440       _sqlite3_stmt_status       10048440 f   sqlite3.obj
 0001:000475b0       _sqlite3_malloc            100485b0 f   sqlite3.obj
 0001:00047810       _sqlite3_malloc64          10048810 f   sqlite3.obj
 0001:00047880       _sqlite3_realloc           10048880 f   sqlite3.obj
 0001:00047980       _sqlite3_realloc64         10048980 f   sqlite3.obj
 0001:000479f0       _sqlite3_free              100489f0 f   sqlite3.obj
 0001:00047ad0       _sqlite3_msize             10048ad0 f   sqlite3.obj
 0001:00047cb0       _sqlite3_memory_used       10048cb0 f   sqlite3.obj
 0001:00047d60       _sqlite3_memory_highwater  10048d60 f   sqlite3.obj
 0001:00047e10       _sqlite3_randomness        10048e10 f   sqlite3.obj
 0001:000481c0       _sqlite3_set_authorizer    100491c0 f   sqlite3.obj
 0001:00048260       _sqlite3_trace             10049260 f   sqlite3.obj
 0001:00048300       _sqlite3_profile           10049300 f   sqlite3.obj
 0001:000483a0       _sqlite3_progress_handler  100493a0 f   sqlite3.obj
 0001:000488e0       _sqlite3_open              100498e0 f   sqlite3.obj
 0001:00048940       _sqlite3_open16            10049940 f   sqlite3.obj
 0001:00048aa0       _sqlite3_open_v2           10049aa0 f   sqlite3.obj
 0001:00048b00       _sqlite3_uri_parameter     10049b00 f   sqlite3.obj
 0001:00048bf0       _sqlite3_uri_boolean       10049bf0 f   sqlite3.obj
 0001:00048cc0       _sqlite3_uri_int64         10049cc0 f   sqlite3.obj
 0001:00048d80       _sqlite3_errcode           10049d80 f   sqlite3.obj
 0001:00048e20       _sqlite3_extended_errcode  10049e20 f   sqlite3.obj
 0001:00049010       _sqlite3_errmsg            1004a010 f   sqlite3.obj
 0001:00049130       _sqlite3_errmsg16          1004a130 f   sqlite3.obj
 0001:00049260       _sqlite3_errstr            1004a260 f   sqlite3.obj
 0001:000492b0       _sqlite3_backup_init       1004a2b0 f   sqlite3.obj
 0001:000494e0       _sqlite3_limit             1004a4e0 f   sqlite3.obj
 0001:00049580       _sqlite3_backup_step       1004a580 f   sqlite3.obj
 0001:00049fd0       _sqlite3_backup_finish     1004afd0 f   sqlite3.obj
 0001:0004a1b0       _sqlite3_backup_remaining  1004b1b0 f   sqlite3.obj
 0001:0004a2f0       _sqlite3_backup_pagecount  1004b2f0 f   sqlite3.obj
 0001:0004a330       _sqlite3_prepare           1004b330 f   sqlite3.obj
 0001:0004a3a0       _sqlite3_prepare_v2        1004b3a0 f   sqlite3.obj
 0001:0004a410       _sqlite3_stricmp           1004b410 f   sqlite3.obj
 0001:0004a510       _sqlite3_strnicmp          1004b510 f   sqlite3.obj
 0001:0004a850       _sqlite3_prepare16         1004b850 f   sqlite3.obj
 0001:0004a8c0       _sqlite3_strglob           1004b8c0 f   sqlite3.obj
 0001:0004a950       _sqlite3_log               1004b950 f   sqlite3.obj
 0001:0004a9d0       _sqlite3_prepare16_v2      1004b9d0 f   sqlite3.obj
 0001:0004aa40       _sqlite3_wal_hook          1004ba40 f   sqlite3.obj
 0001:0004aae0       _sqlite3_sql               1004bae0 f   sqlite3.obj
 0001:0004ab50       _sqlite3_stmt_readonly     1004bb50 f   sqlite3.obj
 0001:0004abc0       _sqlite3_wal_autocheckpoint 1004bbc0 f   sqlite3.obj
 0001:0004ac40       _sqlite3_stmt_busy         1004bc40 f   sqlite3.obj
 0001:0004acc0       _sqlite3_wal_checkpoint    1004bcc0 f   sqlite3.obj
 0001:0004b7a0       _sqlite3_bind_blob         1004c7a0 f   sqlite3.obj
 0001:0004b810       _sqlite3_wal_checkpoint_v2 1004c810 f   sqlite3.obj
 0001:0004b990       _sqlite3_vtab_config       1004c990 f   sqlite3.obj
 0001:0004bab0       _sqlite3_bind_blob64       1004cab0 f   sqlite3.obj
 0001:0004bb50       _sqlite3_vtab_on_conflict  1004cb50 f   sqlite3.obj
 0001:0004bb90       _sqlite3_bind_double       1004cb90 f   sqlite3.obj
 0001:0004bc40       _sqlite3_bind_int          1004cc40 f   sqlite3.obj
 0001:0004bed0       _sqlite3_bind_int64        1004ced0 f   sqlite3.obj
 0001:0004bf80       _sqlite3_bind_null         1004cf80 f   sqlite3.obj
 0001:0004c000       _sqlite3_bind_text         1004d000 f   sqlite3.obj
 0001:0004c070       _sqlite3_bind_text16       1004d070 f   sqlite3.obj
 0001:0004c0e0       _sqlite3_bind_text64       1004d0e0 f   sqlite3.obj
 0001:0004c300       _sqlite3_bind_value        1004d300 f   sqlite3.obj
 0001:0004c4b0       _sqlite3_bind_zeroblob     1004d4b0 f   sqlite3.obj
 0001:0004c560       _sqlite3_bind_zeroblob64   1004d560 f   sqlite3.obj
 0001:0004c660       _sqlite3_bind_parameter_count 1004d660 f   sqlite3.obj
 0001:0004ccf0       _sqlite3_bind_parameter_name 1004dcf0 f   sqlite3.obj
 0001:0004cd60       _sqlite3_bind_parameter_index 1004dd60 f   sqlite3.obj
 0001:0004cdd0       _sqlite3_clear_bindings    1004ddd0 f   sqlite3.obj
 0001:0004d010       _sqlite3_column_count      1004e010 f   sqlite3.obj
 0001:0004d080       _sqlite3_column_name       1004e080 f   sqlite3.obj
 0001:0004d0e0       _sqlite3_column_name16     1004e0e0 f   sqlite3.obj
 0001:0004d440       _sqlite3_column_decltype   1004e440 f   sqlite3.obj
 0001:0004d4a0       _sqlite3_column_decltype16 1004e4a0 f   sqlite3.obj
 0001:0004d500       _sqlite3_step              1004e500 f   sqlite3.obj
 0001:0004d750       _sqlite3_data_count        1004e750 f   sqlite3.obj
 0001:0004d7b0       _sqlite3_column_blob       1004e7b0 f   sqlite3.obj
 0001:0004d830       _sqlite3_column_bytes      1004e830 f   sqlite3.obj
 0001:0004d8b0       _sqlite3_column_bytes16    1004e8b0 f   sqlite3.obj
 0001:0004da40       _sqlite3_column_double     1004ea40 f   sqlite3.obj
 0001:0004dc30       _sqlite3_column_int        1004ec30 f   sqlite3.obj
 0001:0004e730       _sqlite3_column_int64      1004f730 f   sqlite3.obj
 0001:0004e8e0       _sqlite3_column_text       1004f8e0 f   sqlite3.obj
 0001:0004e9c0       _sqlite3_column_text16     1004f9c0 f   sqlite3.obj
 0001:0004ea40       _sqlite3_column_type       1004fa40 f   sqlite3.obj
 0001:0004ebe0       _sqlite3_column_value      1004fbe0 f   sqlite3.obj
 0001:0004f1f0       _sqlite3_finalize          100501f0 f   sqlite3.obj
 0001:0004f320       _sqlite3_reset             10050320 f   sqlite3.obj
 0001:00050140       _sqlite3_create_function   10051140 f   sqlite3.obj
 0001:00050560       _sqlite3_create_function16 10051560 f   sqlite3.obj
 0001:000507f0       _sqlite3_create_function_v2 100517f0 f   sqlite3.obj
 0001:00050950       _sqlite3_aggregate_count   10051950 f   sqlite3.obj
 0001:00050990       _sqlite3_expired           10051990 f   sqlite3.obj
 0001:00050a10       _sqlite3_transfer_bindings 10051a10 f   sqlite3.obj
 0001:00050b00       _sqlite3_thread_cleanup    10051b00 f   sqlite3.obj
 0001:00050bb0       _sqlite3_value_blob        10051bb0 f   sqlite3.obj
 0001:00050c80       _sqlite3_value_bytes       10051c80 f   sqlite3.obj
 0001:00050cd0       _sqlite3_value_bytes16     10051cd0 f   sqlite3.obj
 0001:00050d90       _sqlite3_value_double      10051d90 f   sqlite3.obj
 0001:00050de0       _sqlite3_value_int         10051de0 f   sqlite3.obj
 0001:00050e90       _sqlite3_value_int64       10051e90 f   sqlite3.obj
 0001:000e6020       _sqlite3_config            100e7020 f   sqlite3.obj
 0001:000e65b0       _sqlite3_enable_load_extension 100e75b0 f   sqlite3.obj
 0001:000e6910       _sqlite3_global_recover    100e7910 f   sqlite3.obj
 0001:000e6940       _sqlite3_initialize        100e7940 f   sqlite3.obj
 0001:000e6bc0       _sqlite3_memory_alarm      100e7bc0 f   sqlite3.obj
 0001:000e6bf0       _sqlite3_os_end            100e7bf0 f   sqlite3.obj
 0001:000e6c20       _sqlite3_os_init           100e7c20 f   sqlite3.obj
 0001:000e6cd0       _sqlite3_shutdown          100e7cd0 f   sqlite3.obj
 0001:000e6db0       _sqlite3_status64          100e7db0 f   sqlite3.obj
 0001:000e6ed0       _sqlite3_win32_is_nt       100e7ed0 f   sqlite3.obj
 0001:000e7070       _sqlite3_win32_mbcs_to_utf8 100e8070 f   sqlite3.obj
 0001:000e7100       _sqlite3_win32_set_directory 100e8100 f   sqlite3.obj
 0001:000e7200       _sqlite3_win32_sleep       100e8200 f   sqlite3.obj
 0001:000e7270       _sqlite3_win32_utf8_to_mbcs 100e8270 f   sqlite3.obj
 0001:000e7300       _sqlite3_win32_write_debug 100e8300 f   sqlite3.obj
 0001:00105910       ??0SQLite@@QAE@XZ          10106910 f   SQLite.obj
 0001:00105950       ??0SQLiteResult@@QAE@PAUsqlite3_stmt@@@Z 10106950 f   SQLite.obj
 0001:001059e0       ??1SQLite@@QAE@XZ          101069e0 f   SQLite.obj
 0001:00105a40       ??1SQLiteResult@@QAE@XZ    10106a40 f   SQLite.obj
 0001:00105aa0       ??4SQLiteResult@@QAEAAV0@ABV0@@Z 10106aa0 f   SQLite.obj
 0001:00105b20       ?getError@SQLite@@QAEHXZ   10106b20 f   SQLite.obj
 0001:00105b80       ?getErrorMsg@SQLite@@QAEPADXZ 10106b80 f   SQLite.obj
 0001:00105c10       ?getIntVal@SQLite@@QAEHH@Z 10106c10 f   SQLite.obj
 0001:00105c70       ?getIntVal@SQLiteResult@@QAEHH@Z 10106c70 f   SQLite.obj
 0001:00105cd0       ?getStrVal@SQLite@@QAE?AV?$basic_string@DU?$char_traits@D@std@@V?$allocator@D@2@@std@@H@Z 10106cd0 f   SQLite.obj
 0001:00105dd0       ?getStrVal@SQLiteResult@@QAE?AV?$basic_string@DU?$char_traits@D@std@@V?$allocator@D@2@@std@@H@Z 10106dd0 f   SQLite.obj
 0001:00105ed0       ?init@SQLite@@QAEXV?$basic_string@DU?$char_traits@D@std@@V?$allocator@D@2@@std@@0@Z 10106ed0 f   SQLite.obj
 0001:00106090       ?insert_id@SQLite@@QAEHXZ  10107090 f   SQLite.obj
 0001:001060f0       ?length@?$basic_string@DU?$char_traits@D@std@@V?$allocator@D@2@@std@@QBEIXZ 101070f0 f i SQLite.obj
 0001:00106130       ?next@SQLite@@QAEHXZ       10107130 f   SQLite.obj
 0001:00106190       ?next@SQLiteResult@@QAEHXZ 10107190 f   SQLite.obj
 0001:001061f0       ?query@SQLite@@QAEHV?$basic_string@DU?$char_traits@D@std@@V?$allocator@D@2@@std@@@Z 101071f0 f   SQLite.obj
 0001:00106340       ?query_result@SQLite@@QAE?AVSQLiteResult@@V?$basic_string@DU?$char_traits@D@std@@V?$allocator@D@2@@std@@@Z 10107340 f   SQLite.obj
 0001:00106490       _InitializeCriticalSection@4 10107490 f   kernel32:KERNEL32.dll
 0001:00106496       _DeleteCriticalSection@4   10107496 f   kernel32:KERNEL32.dll
 0001:0010649c       _EnterCriticalSection@4    1010749c f   kernel32:KERNEL32.dll
 0001:001064a2       _LeaveCriticalSection@4    101074a2 f   kernel32:KERNEL32.dll
 0001:001064a8       _GetLocalTime@4            101074a8 f   kernel32:KERNEL32.dll
 0001:001064ae       _GetModuleFileNameA@12     101074ae f   kernel32:KERNEL32.dll
 0001:001064b4       _CloseHandle@4             101074b4 f   kernel32:KERNEL32.dll
 0001:001064ba       _WaitForSingleObject@8     101074ba f   kernel32:KERNEL32.dll
 0001:001064c0       _TerminateThread@8         101074c0 f   kernel32:KERNEL32.dll
 0001:001064c6       _DeleteFileA@4             101074c6 f   kernel32:KERNEL32.dll
 0001:001064cc       _AreFileApisANSI@0         101074cc f   kernel32:KERNEL32.dll
 0001:001064d2       _GetSystemTime@4           101074d2 f   kernel32:KERNEL32.dll
 0001:001064d8       _LocalFree@4               101074d8 f   kernel32:KERNEL32.dll
 0001:001064de       _GetTempPathA@8            101074de f   kernel32:KERNEL32.dll
 0001:001064e4       _GetCurrentProcessId@0     101074e4 f   kernel32:KERNEL32.dll
 0001:001064ea       _DeleteFileW@4             101074ea f   kernel32:KERNEL32.dll
 0001:001064f0       _GetVersionExA@4           101074f0 f   kernel32:KERNEL32.dll
 0001:001064f6       _OutputDebugStringA@4      101074f6 f   kernel32:KERNEL32.dll
 0001:001064fc       _GetFileAttributesExW@12   101074fc f   kernel32:KERNEL32.dll
 0001:00106502       _GetSystemInfo@4           10107502 f   kernel32:KERNEL32.dll
 0001:00106508       _GetDiskFreeSpaceA@20      10107508 f   kernel32:KERNEL32.dll
 0001:0010650e       _CreateFileMappingW@24     1010750e f   kernel32:KERNEL32.dll
 0001:00106514       _CreateFileMappingA@24     10107514 f   kernel32:KERNEL32.dll
 0001:0010651a       _LoadLibraryA@4            1010751a f   kernel32:KERNEL32.dll
 0001:00106520       _GetDiskFreeSpaceW@20      10107520 f   kernel32:KERNEL32.dll
 0001:00106526       _LockFileEx@24             10107526 f   kernel32:KERNEL32.dll
 0001:0010652c       _HeapSize@12               1010752c f   kernel32:KERNEL32.dll
 0001:00106532       _GetProcAddress@8          10107532 f   kernel32:KERNEL32.dll
 0001:00106538       _GetLastError@0            10107538 f   kernel32:KERNEL32.dll
 0001:0010653e       _GetTempPathW@8            1010753e f   kernel32:KERNEL32.dll
 0001:00106544       _FlushFileBuffers@4        10107544 f   kernel32:KERNEL32.dll
 0001:0010654a       _MultiByteToWideChar@24    1010754a f   kernel32:KERNEL32.dll
 0001:00106550       _CreateFileW@28            10107550 f   kernel32:KERNEL32.dll
 0001:00106556       _ReadFile@20               10107556 f   kernel32:KERNEL32.dll
 0001:0010655c       _GetFileAttributesW@4      1010755c f   kernel32:KERNEL32.dll
 0001:00106562       _HeapValidate@12           10107562 f   kernel32:KERNEL32.dll
 0001:00106568       _HeapCreate@12             10107568 f   kernel32:KERNEL32.dll
 0001:0010656e       _GetFileAttributesA@4      1010756e f   kernel32:KERNEL32.dll
 0001:00106574       _HeapDestroy@4             10107574 f   kernel32:KERNEL32.dll
 0001:0010657a       _GetVersionExW@4           1010757a f   kernel32:KERNEL32.dll
 0001:00106580       _FormatMessageW@28         10107580 f   kernel32:KERNEL32.dll
 0001:00106586       _Sleep@4                   10107586 f   kernel32:KERNEL32.dll
 0001:0010658c       _LoadLibraryW@4            1010758c f   kernel32:KERNEL32.dll
 0001:00106592       _WideCharToMultiByte@32    10107592 f   kernel32:KERNEL32.dll
 0001:00106598       _WriteFile@20              10107598 f   kernel32:KERNEL32.dll
 0001:0010659e       _FormatMessageA@28         1010759e f   kernel32:KERNEL32.dll
 0001:001065a4       _GetSystemTimeAsFileTime@4 101075a4 f   kernel32:KERNEL32.dll
 0001:001065aa       _GetProcessHeap@0          101075aa f   kernel32:KERNEL32.dll
 0001:001065b0       _UnlockFileEx@20           101075b0 f   kernel32:KERNEL32.dll
 0001:001065b6       _GetTickCount@0            101075b6 f   kernel32:KERNEL32.dll
 0001:001065bc       _OutputDebugStringW@4      101075bc f   kernel32:KERNEL32.dll
 0001:001065c2       _WaitForSingleObjectEx@12  101075c2 f   kernel32:KERNEL32.dll
 0001:001065c8       _LockFile@20               101075c8 f   kernel32:KERNEL32.dll
 0001:001065ce       _FlushViewOfFile@8         101075ce f   kernel32:KERNEL32.dll
 0001:001065d4       _UnlockFile@20             101075d4 f   kernel32:KERNEL32.dll
 0001:001065da       _InterlockedCompareExchange@12 101075da f   kernel32:KERNEL32.dll
 0001:001065e0       _HeapFree@12               101075e0 f   kernel32:KERNEL32.dll
 0001:001065e6       _QueryPerformanceCounter@4 101075e6 f   kernel32:KERNEL32.dll
 0001:001065ec       _SystemTimeToFileTime@8    101075ec f   kernel32:KERNEL32.dll
 0001:001065f2       _HeapAlloc@12              101075f2 f   kernel32:KERNEL32.dll
 0001:001065f8       _FreeLibrary@4             101075f8 f   kernel32:KERNEL32.dll
 0001:001065fe       _SetEndOfFile@4            101075fe f   kernel32:KERNEL32.dll
 0001:00106604       _UnmapViewOfFile@4         10107604 f   kernel32:KERNEL32.dll
 0001:0010660a       _MapViewOfFile@20          1010760a f   kernel32:KERNEL32.dll
 0001:00106610       _SetFilePointer@16         10107610 f   kernel32:KERNEL32.dll
 0001:00106616       _HeapCompact@8             10107616 f   kernel32:KERNEL32.dll
 0001:0010661c       _CreateMutexW@12           1010761c f   kernel32:KERNEL32.dll
 0001:00106622       _GetFileSize@8             10107622 f   kernel32:KERNEL32.dll
 0001:00106628       _CreateFileA@28            10107628 f   kernel32:KERNEL32.dll
 0001:0010662e       _HeapReAlloc@16            1010762e f   kernel32:KERNEL32.dll
 0001:00106634       _GetFullPathNameA@16       10107634 f   kernel32:KERNEL32.dll
 0001:0010663a       _GetFullPathNameW@16       1010763a f   kernel32:KERNEL32.dll
 0001:00106640       _TryEnterCriticalSection@4 10107640 f   kernel32:KERNEL32.dll
 0001:00106646       _GetCurrentThreadId@0      10107646 f   kernel32:KERNEL32.dll
 0001:00106650       ??0_Init_locks@std@@QAE@XZ 10107650 f   libcpmtd:xlock.obj
 0001:001066a0       ??0_Lockit@std@@QAE@H@Z    101076a0 f   libcpmtd:xlock.obj
 0001:001066f0       ??0_Lockit@std@@QAE@XZ     101076f0 f   libcpmtd:xlock.obj
 0001:00106740       ??1_Init_locks@std@@QAE@XZ 10107740 f   libcpmtd:xlock.obj
 0001:00106790       ??1_Lockit@std@@QAE@XZ     10107790 f   libcpmtd:xlock.obj
 0001:001067d0       ?_Init_locks_ctor@_Init_locks@std@@CAXPAV12@@Z 101077d0 f   libcpmtd:xlock.obj
 0001:00106820       ?_Init_locks_dtor@_Init_locks@std@@CAXPAV12@@Z 10107820 f   libcpmtd:xlock.obj
 0001:00106870       ?_Lockit_ctor@_Lockit@std@@CAXPAV12@@Z 10107870 f   libcpmtd:xlock.obj
 0001:00106890       ?_Lockit_ctor@_Lockit@std@@CAXPAV12@H@Z 10107890 f   libcpmtd:xlock.obj
 0001:001068d0       ?_Lockit_ctor@_Lockit@std@@SAXH@Z 101078d0 f   libcpmtd:xlock.obj
 0001:00106900       ?_Lockit_dtor@_Lockit@std@@CAXPAV12@@Z 10107900 f   libcpmtd:xlock.obj
 0001:00106920       ?_Lockit_dtor@_Lockit@std@@SAXH@Z 10107920 f   libcpmtd:xlock.obj
 0001:00106950       ?_Debug_message@std@@YAXPBG0I@Z 10107950 f   libcpmtd:stdthrow.obj
 0001:00106970       ?_Debug_message@std@@YAXPB_W0I@Z 10107970 f   libcpmtd:stdthrow.obj
 0001:001069a0       ??0_Ignore@std@@QAE@XZ     101079a0 f i libcpmtd:xthrow.obj
 0001:001069b0       ??0bad_alloc@std@@QAE@ABV01@@Z 101079b0 f i libcpmtd:xthrow.obj
 0001:001069e0       ??0bad_alloc@std@@QAE@XZ   101079e0 f i libcpmtd:xthrow.obj
 0001:00106a10       ??0bad_function_call@std@@QAE@ABV01@@Z 10107a10 f i libcpmtd:xthrow.obj
 0001:00106a40       ??0bad_function_call@std@@QAE@PBD@Z 10107a40 f i libcpmtd:xthrow.obj
 0001:00106a70       ??0invalid_argument@std@@QAE@ABV01@@Z 10107a70 f i libcpmtd:xthrow.obj
 0001:00106aa0       ??0invalid_argument@std@@QAE@PBD@Z 10107aa0 f i libcpmtd:xthrow.obj
 0001:00106ad0       ??0length_error@std@@QAE@ABV01@@Z 10107ad0 f i libcpmtd:xthrow.obj
 0001:00106b00       ??0length_error@std@@QAE@PBD@Z 10107b00 f i libcpmtd:xthrow.obj
 0001:00106b30       ??0logic_error@std@@QAE@ABV01@@Z 10107b30 f i libcpmtd:xthrow.obj
 0001:00106b60       ??0logic_error@std@@QAE@PBD@Z 10107b60 f i libcpmtd:xthrow.obj
 0001:00106b90       ??0out_of_range@std@@QAE@ABV01@@Z 10107b90 f i libcpmtd:xthrow.obj
 0001:00106bc0       ??0out_of_range@std@@QAE@PBD@Z 10107bc0 f i libcpmtd:xthrow.obj
 0001:00106bf0       ??0overflow_error@std@@QAE@ABV01@@Z 10107bf0 f i libcpmtd:xthrow.obj
 0001:00106c20       ??0overflow_error@std@@QAE@PBD@Z 10107c20 f i libcpmtd:xthrow.obj
 0001:00106c50       ??0regex_error@std@@QAE@ABV01@@Z 10107c50 f i libcpmtd:xthrow.obj
 0001:00106c90       ??0regex_error@std@@QAE@W4error_type@regex_constants@1@@Z 10107c90 f i libcpmtd:xthrow.obj
 0001:00106cd0       ??0runtime_error@std@@QAE@ABV01@@Z 10107cd0 f i libcpmtd:xthrow.obj
 0001:00106d00       ??0runtime_error@std@@QAE@PBD@Z 10107d00 f i libcpmtd:xthrow.obj
 0001:00106d30       ??1bad_alloc@std@@UAE@XZ   10107d30 f i libcpmtd:xthrow.obj
 0001:00106d50       ??1bad_function_call@std@@UAE@XZ 10107d50 f i libcpmtd:xthrow.obj
 0001:00106d70       ??1invalid_argument@std@@UAE@XZ 10107d70 f i libcpmtd:xthrow.obj
 0001:00106d90       ??1length_error@std@@UAE@XZ 10107d90 f i libcpmtd:xthrow.obj
 0001:00106db0       ??1logic_error@std@@UAE@XZ 10107db0 f i libcpmtd:xthrow.obj
 0001:00106dd0       ??1out_of_range@std@@UAE@XZ 10107dd0 f i libcpmtd:xthrow.obj
 0001:00106df0       ??1overflow_error@std@@UAE@XZ 10107df0 f i libcpmtd:xthrow.obj
 0001:00106e10       ??1regex_error@std@@UAE@XZ 10107e10 f i libcpmtd:xthrow.obj
 0001:00106e30       ??1runtime_error@std@@UAE@XZ 10107e30 f i libcpmtd:xthrow.obj
 0001:00106e50       ??_Gbad_alloc@std@@UAEPAXI@Z 10107e50 f i libcpmtd:xthrow.obj
 0001:00106e50       ??_Ebad_alloc@std@@UAEPAXI@Z 10107e50 f i libcpmtd:xthrow.obj
 0001:00106e80       ??_Ebad_function_call@std@@UAEPAXI@Z 10107e80 f i libcpmtd:xthrow.obj
 0001:00106e80       ??_Gbad_function_call@std@@UAEPAXI@Z 10107e80 f i libcpmtd:xthrow.obj
 0001:00106eb0       ??_Ginvalid_argument@std@@UAEPAXI@Z 10107eb0 f i libcpmtd:xthrow.obj
 0001:00106eb0       ??_Einvalid_argument@std@@UAEPAXI@Z 10107eb0 f i libcpmtd:xthrow.obj
 0001:00106ee0       ??_Glength_error@std@@UAEPAXI@Z 10107ee0 f i libcpmtd:xthrow.obj
 0001:00106ee0       ??_Elength_error@std@@UAEPAXI@Z 10107ee0 f i libcpmtd:xthrow.obj
 0001:00106f10       ??_Elogic_error@std@@UAEPAXI@Z 10107f10 f i libcpmtd:xthrow.obj
 0001:00106f10       ??_Glogic_error@std@@UAEPAXI@Z 10107f10 f i libcpmtd:xthrow.obj
 0001:00106f40       ??_Eout_of_range@std@@UAEPAXI@Z 10107f40 f i libcpmtd:xthrow.obj
 0001:00106f40       ??_Gout_of_range@std@@UAEPAXI@Z 10107f40 f i libcpmtd:xthrow.obj
 0001:00106f70       ??_Goverflow_error@std@@UAEPAXI@Z 10107f70 f i libcpmtd:xthrow.obj
 0001:00106f70       ??_Eoverflow_error@std@@UAEPAXI@Z 10107f70 f i libcpmtd:xthrow.obj
 0001:00106fa0       ??_Eregex_error@std@@UAEPAXI@Z 10107fa0 f i libcpmtd:xthrow.obj
 0001:00106fa0       ??_Gregex_error@std@@UAEPAXI@Z 10107fa0 f i libcpmtd:xthrow.obj
 0001:00106fd0       ??_Eruntime_error@std@@UAEPAXI@Z 10107fd0 f i libcpmtd:xthrow.obj
 0001:00106fd0       ??_Gruntime_error@std@@UAEPAXI@Z 10107fd0 f i libcpmtd:xthrow.obj
 0001:00107000       ?_Stringify@regex_error@std@@CAPBDW4error_type@regex_constants@2@@Z 10108000 f i libcpmtd:xthrow.obj
 0001:001070d0       ?_Xbad_alloc@std@@YAXXZ    101080d0 f   libcpmtd:xthrow.obj
 0001:001070f0       ?_Xbad_function_call@std@@YAXXZ 101080f0 f   libcpmtd:xthrow.obj
 0001:00107120       ?_Xinvalid_argument@std@@YAXPBD@Z 10108120 f   libcpmtd:xthrow.obj
 0001:00107150       ?_Xlength_error@std@@YAXPBD@Z 10108150 f   libcpmtd:xthrow.obj
 0001:00107180       ?_Xout_of_range@std@@YAXPBD@Z 10108180 f   libcpmtd:xthrow.obj
 0001:001071b0       ?_Xoverflow_error@std@@YAXPBD@Z 101081b0 f   libcpmtd:xthrow.obj
 0001:001071e0       ?_Xregex_error@std@@YAXW4error_type@regex_constants@1@@Z 101081e0 f   libcpmtd:xthrow.obj
 0001:00107210       ?_Xruntime_error@std@@YAXPBD@Z 10108210 f   libcpmtd:xthrow.obj
 0001:00107240       ?what@bad_function_call@std@@UBEPBDXZ 10108240 f i libcpmtd:xthrow.obj
 0001:00107250       ?_Syserror_map@std@@YAPBDH@Z 10108250 f   libcpmtd:syserror.obj
 0001:001072a0       ?_Winerror_map@std@@YAPBDH@Z 101082a0 f   libcpmtd:syserror.obj
 0001:001072f0       ??_U@YAPAXI@Z              101082f0 f   libcpmtd:newaop.obj
 0001:00107310       __Mtxdst                   10108310 f   libcpmtd:xmtx.obj
 0001:00107320       __Mtxinit                  10108320 f   libcpmtd:xmtx.obj
 0001:00107340       __Mtxlock                  10108340 f   libcpmtd:xmtx.obj
 0001:00107350       __Mtxunlock                10108350 f   libcpmtd:xmtx.obj
 0001:00107360       __Once                     10108360 f   libcpmtd:xmtx.obj
 0001:001073c0       __get_purecall_handler     101083c0 f   LIBCMTD:purevirt.obj
 0001:001073e0       __purecall                 101083e0 f   LIBCMTD:purevirt.obj
 0001:00107420       __set_purecall_handler     10108420 f   LIBCMTD:purevirt.obj
 0001:00107450       ??2@YAPAXI@Z               10108450 f   LIBCMTD:new.obj
 0001:001074a0       ??3@YAXPAX@Z               101084a0 f   LIBCMTD:dbgdel.obj
 0001:00107590       ___onexitinit              10108590 f   LIBCMTD:onexit.obj
 0001:001075f0       __onexit                   101085f0 f   LIBCMTD:onexit.obj
 0001:001077b0       _atexit                    101087b0 f   LIBCMTD:onexit.obj
 0001:00107990       _memcmp                    10108990 f   LIBCMTD:memcmp.obj
 0001:00108260       _memcpy                    10109260 f   LIBCMTD:memcpy.obj
 0001:001088b0       _memset                    101098b0 f   LIBCMTD:memset.obj
 0001:00108940       _strcmp                    10109940 f   LIBCMTD:strcmp.obj
 0001:001089d0       _strlen                    101099d0 f   LIBCMTD:strlen.obj
 0001:00108a60       _memmove                   10109a60 f   LIBCMTD:memmove.obj
 0001:001090b0       _strstr                    1010a0b0 f   LIBCMTD:strstr.obj
 0001:00109320       __atoi64                   1010a320 f   LIBCMTD:atox.obj
 0001:00109340       __atoi64_l                 1010a340 f   LIBCMTD:atox.obj
 0001:00109360       __atoi_l                   1010a360 f   LIBCMTD:atox.obj
 0001:00109380       __atol_l                   1010a380 f   LIBCMTD:atox.obj
 0001:001093a0       _atoi                      1010a3a0 f   LIBCMTD:atox.obj
 0001:001093c0       _atol                      1010a3c0 f   LIBCMTD:atox.obj
 0001:001093e0       @_RTC_AllocaHelper@12      1010a3e0 f   LIBCMTD:stack.obj
 0001:00109420       @_RTC_CheckStackVars2@12   1010a420 f   LIBCMTD:stack.obj
 0001:00109500       @_RTC_CheckStackVars@8     1010a500 f   LIBCMTD:stack.obj
 0001:00109560       __RTC_CheckEsp             1010a560 f   LIBCMTD:stack.obj
 0001:00109590       @__security_check_cookie@4 1010a590 f   LIBCMTD:secchk.obj
 0001:001095a0       __CxxThrowException@8      1010a5a0 f   LIBCMTD:throw.obj
 0001:00109630       __RTC_InitBase             1010a630 f   LIBCMTD:init.obj
 0001:00109660       __RTC_Shutdown             1010a660 f   LIBCMTD:init.obj
 0001:00109780       ?_CallCatchBlock2@@YAPAXPAUEHRegistrationNode@@PBU_s_FuncInfo@@PAXHK@Z 1010a780 f   LIBCMTD:_trnsctrl_.obj
 0001:001097f0       ?_CallMemberFunction0@@YGXPAX0@Z 1010a7f0 f   LIBCMTD:_trnsctrl_.obj
 0001:00109800       ?_CallMemberFunction1@@YGXPAX00@Z 1010a800 f   LIBCMTD:_trnsctrl_.obj
 0001:00109810       ?_CallMemberFunction2@@YGXPAX00H@Z 1010a810 f   LIBCMTD:_trnsctrl_.obj
 0001:00109820       ?_CallSETranslator@@YAHPAUEHExceptionRecord@@PAUEHRegistrationNode@@PAX2PBU_s_FuncInfo@@H1@Z 1010a820 f   LIBCMTD:_trnsctrl_.obj
 0001:00109910       ?_GetRangeOfTrysToCheck@@YAPBU_s_TryBlockMapEntry@@PBU_s_FuncInfo@@HHPAI1@Z 1010a910 f   LIBCMTD:_trnsctrl_.obj
 0001:001099a0       ?_JumpToContinuation@@YGXPAXPAUEHRegistrationNode@@@Z 1010a9a0 f   LIBCMTD:_trnsctrl_.obj
 0001:001099e0       ?_UnwindNestedFrames@@YGXPAUEHRegistrationNode@@PAUEHExceptionRecord@@@Z 1010a9e0 f   LIBCMTD:_trnsctrl_.obj
 0001:00109a40       __CreateFrameInfo          1010aa40 f   LIBCMTD:_trnsctrl_.obj
 0001:00109a70       __FindAndUnlinkFrame       1010aa70 f   LIBCMTD:_trnsctrl_.obj
 0001:00109ad0       __IsExceptionObjectToBeDestroyed 1010aad0 f   LIBCMTD:_trnsctrl_.obj
 0001:00109b00       ___CxxFrameHandler         1010ab00 f   LIBCMTD:_trnsctrl_.obj
 0001:00109b40       ___CxxFrameHandler2        1010ab40 f   LIBCMTD:_trnsctrl_.obj
 0001:00109b80       ___CxxFrameHandler3        1010ab80 f   LIBCMTD:_trnsctrl_.obj
 0001:00109bc0       ___CxxLongjmpUnwind@4      1010abc0 f   LIBCMTD:_trnsctrl_.obj
 0001:00109bf0       __ftol2_sse                1010abf0 f   LIBCMTD:ftol2.obj
 0001:00109bf9       __ftol2_pentium4           1010abf9 f   LIBCMTD:ftol2.obj
 0001:00109c0c       __ftol2_sse_excpt          1010ac0c f   LIBCMTD:ftol2.obj
 0001:00109c26       __ftol2                    1010ac26 f   LIBCMTD:ftol2.obj
 0001:00109ca0       ??0type_info@@AAE@ABV0@@Z  1010aca0 f   LIBCMTD:typinfo.obj
 0001:00109cc0       ??1type_info@@UAE@XZ       1010acc0 f   LIBCMTD:typinfo.obj
 0001:00109ce0       ??4type_info@@AAEAAV0@ABV0@@Z 1010ace0 f   LIBCMTD:typinfo.obj
 0001:00109cf0       ??8type_info@@QBE_NABV0@@Z 1010acf0 f   LIBCMTD:typinfo.obj
 0001:00109d30       ??9type_info@@QBE_NABV0@@Z 1010ad30 f   LIBCMTD:typinfo.obj
 0001:00109d70       ??_Etype_info@@UAEPAXI@Z   1010ad70 f i LIBCMTD:typinfo.obj
 0001:00109d70       ??_Gtype_info@@UAEPAXI@Z   1010ad70 f i LIBCMTD:typinfo.obj
 0001:00109da0       ?_name_internal_method@type_info@@QBEPBDPAU__type_info_node@@@Z 1010ada0 f   LIBCMTD:typinfo.obj
 0001:00109dc0       ?_type_info_dtor_internal_method@type_info@@QAEXXZ 1010adc0 f   LIBCMTD:typinfo.obj
 0001:00109de0       ?before@type_info@@QBE_NABV1@@Z 1010ade0 f   LIBCMTD:typinfo.obj
 0001:00109e20       ?name@type_info@@QBEPBDPAU__type_info_node@@@Z 1010ae20 f   LIBCMTD:typinfo.obj
 0001:00109e40       ?raw_name@type_info@@QBEPBDXZ 1010ae40 f   LIBCMTD:typinfo.obj
 0001:00109e60       __fpmath                   1010ae60 f   LIBCMTD:fpinit.obj
 0001:00109e80       ___setfflag                1010ae80 f   LIBCMTD:fpinit.obj
 0001:00109ea0       __cfltcvt_init             1010aea0 f   LIBCMTD:fpinit.obj
 0001:00109f60       _strncpy_s                 1010af60 f   LIBCMTD:strncpy_s.obj
 0001:0010a380       __fclose_nolock            1010b380 f   LIBCMTD:fclose.obj
 0001:0010a490       _fclose                    1010b490 f   LIBCMTD:fclose.obj
 0001:0010a5b0       __fflush_nolock            1010b5b0 f   LIBCMTD:fflush.obj
 0001:0010a620       __flush                    1010b620 f   LIBCMTD:fflush.obj
 0001:0010a6e0       __flushall                 1010b6e0 f   LIBCMTD:fflush.obj
 0001:0010a6f0       _fflush                    1010b6f0 f   LIBCMTD:fflush.obj
 0001:0010a930       __fileno                   1010b930 f   LIBCMTD:fileno.obj
 0001:0010a9c0       __fsopen                   1010b9c0 f   LIBCMTD:fopen.obj
 0001:0010ac10       _fopen                     1010bc10 f   LIBCMTD:fopen.obj
 0001:0010ac30       _fopen_s                   1010bc30 f   LIBCMTD:fopen.obj
 0001:0010acf0       __fprintf_l                1010bcf0 f   LIBCMTD:fprintf.obj
 0001:0010ad20       __fprintf_p                1010bd20 f   LIBCMTD:fprintf.obj
 0001:0010ad50       __fprintf_p_l              1010bd50 f   LIBCMTD:fprintf.obj
 0001:0010ad80       __fprintf_s_l              1010bd80 f   LIBCMTD:fprintf.obj
 0001:0010adb0       _fprintf                   1010bdb0 f   LIBCMTD:fprintf.obj
 0001:0010b090       _fprintf_s                 1010c090 f   LIBCMTD:fprintf.obj
 0001:0010b0c0       __fread_nolock             1010c0c0 f   LIBCMTD:fread.obj
 0001:0010b0e0       __fread_nolock_s           1010c0e0 f   LIBCMTD:fread.obj
 0001:0010b710       _fread                     1010c710 f   LIBCMTD:fread.obj
 0001:0010b730       _fread_s                   1010c730 f   LIBCMTD:fread.obj
 0001:0010b880       __fseek_nolock             1010c880 f   LIBCMTD:fseek.obj
 0001:0010b970       _fseek                     1010c970 f   LIBCMTD:fseek.obj
 0001:0010bb00       __vsnprintf_c              1010cb00 f   LIBCMTD:vsnprnc.obj
 0001:0010bb50       __vsnprintf_c_l            1010cb50 f   LIBCMTD:vsnprnc.obj
 0001:0010bba0       __vsnprintf_helper         1010cba0 f   LIBCMTD:vsnprnc.obj
 0001:0010bda0       __vsnprintf_s              1010cda0 f   LIBCMTD:vsnprnc.obj
 0001:0010bdd0       __vsnprintf_s_l            1010cdd0 f   LIBCMTD:vsnprnc.obj
 0001:0010c190       __vsprintf_p               1010d190 f   LIBCMTD:vsnprnc.obj
 0001:0010c1e0       __vsprintf_p_l             1010d1e0 f   LIBCMTD:vsnprnc.obj
 0001:0010c230       __vsprintf_s_l             1010d230 f   LIBCMTD:vsnprnc.obj
 0001:0010c4c0       _vsprintf_s                1010d4c0 f   LIBCMTD:vsnprnc.obj
 0001:0010c4e0       __filelength               1010d4e0 f   LIBCMTD:flength.obj
 0001:0010c770       ??_V@YAXPAX@Z              1010d770 f   LIBCMTD:delete2.obj
 0001:0010c790       _memchr                    1010d790 f   LIBCMTD:memchr.obj
 0001:0010c840       __snprintf                 1010d840 f   LIBCMTD:snprintf.obj
 0001:0010ca20       __snprintf_l               1010da20 f   LIBCMTD:snprintf.obj
 0001:0010ca50       ?_invalid_parameter@@YAXPBG00II@Z 1010da50 f   LIBCMTD:invarg.obj
 0001:0010ca80       ?_invoke_watson@@YAXPBG00II@Z 1010da80 f   LIBCMTD:invarg.obj
 0001:0010caa0       __call_reportfault         1010daa0 f   LIBCMTD:invarg.obj
 0001:0010cc00       __get_invalid_parameter_handler 1010dc00 f   LIBCMTD:invarg.obj
 0001:0010cc30       __initp_misc_invarg        1010dc30 f   LIBCMTD:invarg.obj
 0001:0010cc40       __invalid_parameter        1010dc40 f   LIBCMTD:invarg.obj
 0001:0010cca0       __invoke_watson            1010dca0 f   LIBCMTD:invarg.obj
 0001:0010cce0       __set_invalid_parameter_handler 1010dce0 f   LIBCMTD:invarg.obj
 0001:0010cd20       _strcpy_s                  1010dd20 f   LIBCMTD:strcpy_s.obj
 0001:0010d020       __scprintf                 1010e020 f   LIBCMTD:sprintf.obj
 0001:0010d040       __scprintf_l               1010e040 f   LIBCMTD:sprintf.obj
 0001:0010d070       __scprintf_p               1010e070 f   LIBCMTD:sprintf.obj
 0001:0010d090       __scprintf_p_l             1010e090 f   LIBCMTD:sprintf.obj
 0001:0010d0c0       __snprintf_s               1010e0c0 f   LIBCMTD:sprintf.obj
 0001:0010d0f0       __snprintf_s_l             1010e0f0 f   LIBCMTD:sprintf.obj
 0001:0010d120       __sprintf_l                1010e120 f   LIBCMTD:sprintf.obj
 0001:0010d150       __sprintf_p                1010e150 f   LIBCMTD:sprintf.obj
 0001:0010d180       __sprintf_p_l              1010e180 f   LIBCMTD:sprintf.obj
 0001:0010d1b0       __sprintf_s_l              1010e1b0 f   LIBCMTD:sprintf.obj
 0001:0010d1e0       _sprintf                   1010e1e0 f   LIBCMTD:sprintf.obj
 0001:0010d3a0       _sprintf_s                 1010e3a0 f   LIBCMTD:sprintf.obj
 0001:0010d3d0       ___doserrno                1010e3d0 f   LIBCMTD:dosmap.obj
 0001:0010d400       __dosmaperr                1010e400 f   LIBCMTD:dosmap.obj
 0001:0010d430       __errno                    1010e430 f   LIBCMTD:dosmap.obj
 0001:0010d460       __get_doserrno             1010e460 f   LIBCMTD:dosmap.obj
 0001:0010d4f0       __get_errno                1010e4f0 f   LIBCMTD:dosmap.obj
 0001:0010d580       __get_errno_from_oserr     1010e580 f   LIBCMTD:dosmap.obj
 0001:0010d600       __set_doserrno             1010e600 f   LIBCMTD:dosmap.obj
 0001:0010d630       __set_errno                1010e630 f   LIBCMTD:dosmap.obj
 0001:0010d660       ??0_LocaleUpdate@@QAE@PAUlocaleinfo_struct@@@Z 1010e660 f i LIBCMTD:strtod.obj
 0001:0010d740       ??1_LocaleUpdate@@QAE@XZ   1010e740 f i LIBCMTD:strtod.obj
 0001:0010d770       ?GetLocaleT@_LocaleUpdate@@QAEPAUlocaleinfo_struct@@XZ 1010e770 f i LIBCMTD:strtod.obj
 0001:0010d780       __strtod_l                 1010e780 f   LIBCMTD:strtod.obj
 0001:0010d990       _strtod                    1010e990 f   LIBCMTD:strtod.obj
 0001:0010deb0       __strtol_l                 1010eeb0 f   LIBCMTD:strtol.obj
 0001:0010ded0       __strtoul_l                1010eed0 f   LIBCMTD:strtol.obj
 0001:0010def0       _strtol                    1010eef0 f   LIBCMTD:strtol.obj
 0001:0010df40       _strtoul                   1010ef40 f   LIBCMTD:strtol.obj
 0001:0010df90       ?_CrtDbgReportW@@YAHHPBGH00ZZ 1010ef90 f   LIBCMTD:dbgrptw.obj
 0001:0010dfe0       __CrtDbgReportW            1010efe0 f   LIBCMTD:dbgrptw.obj
 0001:0010e030       __CrtDbgReportWV           1010f030 f i LIBCMTD:dbgrptw.obj
 0001:0010e060       __CrtSetReportHookW2       1010f060 f   LIBCMTD:dbgrptw.obj
 0001:0010e3b0       ___crtMessageWindowW       1010f3b0 f   LIBCMTD:dbgrptw.obj
 0001:0010e860       __invoke_watson_if_error   1010f860 f i LIBCMTD:dbgrptw.obj
 0001:0010e890       __invoke_watson_if_oneof   1010f890 f i LIBCMTD:dbgrptw.obj
 0001:0010e8d0       __alloca_probe             1010f8d0     LIBCMTD:chkstk.obj
 0001:0010e8d0       __chkstk                   1010f8d0 f   LIBCMTD:chkstk.obj
 0001:0010e900       __beginthread              1010f900 f   LIBCMTD:thread.obj
 0001:0010eb00       __endthread                1010fb00 f   LIBCMTD:thread.obj
 0001:0010ebd0       ___raise_securityfailure   1010fbd0 f   LIBCMTD:gs_report.obj
 0001:0010ec20       ___report_gsfailure        1010fc20 f   LIBCMTD:gs_report.obj
 0001:0010ed30       ___report_rangecheckfailure 1010fd30 f   LIBCMTD:gs_report.obj
 0001:0010ed40       ___report_securityfailure  1010fd40 f   LIBCMTD:gs_report.obj
 0001:0010ee20       ___report_securityfailureEx 1010fe20 f   LIBCMTD:gs_report.obj
 0001:0010ef50       _free                      1010ff50 f   LIBCMTD:dbgfree.obj
 0001:0010ef70       _malloc                    1010ff70 f   LIBCMTD:dbgmalloc.obj
 0001:0010efa0       _realloc                   1010ffa0 f   LIBCMTD:dbgrealloc.obj
 0001:0010f460       __CrtCheckMemory           10110460 f   LIBCMTD:dbgheap.obj
 0001:0010f8c0       __CrtDoForAllClientObjects 101108c0 f   LIBCMTD:dbgheap.obj
 0001:0010f9f0       __CrtDumpMemoryLeaks       101109f0 f   LIBCMTD:dbgheap.obj
 0001:0010fa90       __CrtGetAllocHook          10110a90 f   LIBCMTD:dbgheap.obj
 0001:0010faa0       __CrtGetCheckCount         10110aa0 f   LIBCMTD:dbgheap.obj
 0001:0010fab0       __CrtGetDumpClient         10110ab0 f   LIBCMTD:dbgheap.obj
 0001:0010fac0       __CrtIsMemoryBlock         10110ac0 f   LIBCMTD:dbgheap.obj
 0001:0010fc30       __CrtIsValidHeapPointer    10110c30 f   LIBCMTD:dbgheap.obj
 0001:0010fc70       __CrtIsValidPointer        10110c70 f   LIBCMTD:dbgheap.obj
 0001:0010fca0       __CrtMemCheckpoint         10110ca0 f   LIBCMTD:dbgheap.obj
 0001:0010fed0       __CrtMemDifference         10110ed0 f   LIBCMTD:dbgheap.obj
 0001:00110130       __CrtMemDumpAllObjectsSince 10111130 f   LIBCMTD:dbgheap.obj
 0001:00110170       __CrtMemDumpStatistics     10111170 f   LIBCMTD:dbgheap.obj
 0001:00110290       __CrtReportBlockType       10111290 f   LIBCMTD:dbgheap.obj
 0001:001102c0       __CrtSetAllocHook          101112c0 f   LIBCMTD:dbgheap.obj
 0001:001102e0       __CrtSetBreakAlloc         101112e0 f   LIBCMTD:dbgheap.obj
 0001:00110300       __CrtSetCheckCount         10111300 f   LIBCMTD:dbgheap.obj
 0001:00110320       __CrtSetDbgBlockType       10111320 f   LIBCMTD:dbgheap.obj
 0001:00110410       __CrtSetDbgFlag            10111410 f   LIBCMTD:dbgheap.obj
 0001:00110560       __CrtSetDebugFillThreshold 10111560 f   LIBCMTD:dbgheap.obj
 0001:00110580       __CrtSetDumpClient         10111580 f   LIBCMTD:dbgheap.obj
 0001:001105a0       __aligned_free             101115a0 f   LIBCMTD:dbgheap.obj
 0001:001105c0       __aligned_free_dbg         101115c0 f   LIBCMTD:dbgheap.obj
 0001:00110670       __aligned_malloc           10111670 f   LIBCMTD:dbgheap.obj
 0001:00110690       __aligned_malloc_dbg       10111690 f   LIBCMTD:dbgheap.obj
 0001:001106b0       __aligned_msize            101116b0 f   LIBCMTD:dbgheap.obj
 0001:001106d0       __aligned_msize_dbg        101116d0 f   LIBCMTD:dbgheap.obj
 0001:001107f0       __aligned_offset_malloc    101117f0 f   LIBCMTD:dbgheap.obj
 0001:00110810       __aligned_offset_malloc_dbg 10111810 f   LIBCMTD:dbgheap.obj
 0001:001109f0       __aligned_offset_realloc   101119f0 f   LIBCMTD:dbgheap.obj
 0001:00110a20       __aligned_offset_realloc_dbg 10111a20 f   LIBCMTD:dbgheap.obj
 0001:00110d30       __aligned_offset_recalloc  10111d30 f   LIBCMTD:dbgheap.obj
 0001:00110d60       __aligned_offset_recalloc_dbg 10111d60 f   LIBCMTD:dbgheap.obj
 0001:00110e20       __aligned_realloc          10111e20 f   LIBCMTD:dbgheap.obj
 0001:00110e40       __aligned_realloc_dbg      10111e40 f   LIBCMTD:dbgheap.obj
 0001:00110e70       __aligned_recalloc         10111e70 f   LIBCMTD:dbgheap.obj
 0001:00110ea0       __aligned_recalloc_dbg     10111ea0 f   LIBCMTD:dbgheap.obj
 0001:00110ed0       __calloc_dbg               10111ed0 f   LIBCMTD:dbgheap.obj
 0001:00110f30       __calloc_dbg_impl          10111f30 f   LIBCMTD:dbgheap.obj
 0001:00110fb0       __expand                   10111fb0 f   LIBCMTD:dbgheap.obj
 0001:00110fe0       __expand_dbg               10111fe0 f   LIBCMTD:dbgheap.obj
 0001:00111100       __free_dbg                 10112100 f   LIBCMTD:dbgheap.obj
 0001:00111180       __free_dbg_nolock          10112180 f   LIBCMTD:dbgheap.obj
 0001:00111680       __free_nolock              10112680 f   LIBCMTD:dbgheap.obj
 0001:001116a0       __heap_alloc               101126a0 f   LIBCMTD:dbgheap.obj
 0001:001116c0       __heap_alloc_dbg           101126c0 f   LIBCMTD:dbgheap.obj
 0001:00111ae0       __malloc_dbg               10112ae0 f   LIBCMTD:dbgheap.obj
 0001:00111b10       __msize                    10112b10 f   LIBCMTD:dbgheap.obj
 0001:00111b30       __msize_dbg                10112b30 f   LIBCMTD:dbgheap.obj
 0001:00111d40       __nh_malloc                10112d40 f   LIBCMTD:dbgheap.obj
 0001:00111d60       __nh_malloc_dbg            10112d60 f   LIBCMTD:dbgheap.obj
 0001:00111ff0       __realloc_dbg              10112ff0 f   LIBCMTD:dbgheap.obj
 0001:00112080       __recalloc                 10113080 f   LIBCMTD:dbgheap.obj
 0001:001120b0       __recalloc_dbg             101130b0 f   LIBCMTD:dbgheap.obj
 0001:00112770       _strncmp                   10113770 f   LIBCMTD:strncmp.obj
 0001:001127f0       __localtime32              101137f0 f   LIBCMTD:localtim.obj
 0001:00112830       __localtime32_s            10113830 f   LIBCMTD:localtim.obj
 0001:00112c90       __beginthreadex            10113c90 f   LIBCMTD:threadex.obj
 0001:00112e90       __endthreadex              10113e90 f   LIBCMTD:threadex.obj
 0001:001131d0       ?_RTC_AllocaFailure@@YAXPAXPAU_RTC_ALLOCA_NODE@@H@Z 101141d0 f   LIBCMTD:error.obj
 0001:00113340       ?_RTC_Failure@@YAXPAXH@Z   10114340 f   LIBCMTD:error.obj
 0001:00113390       ?_RTC_StackFailure@@YAXPAXPBD@Z 10114390 f   LIBCMTD:error.obj
 0001:001136f0       __RTC_UninitUse            101146f0 f   LIBCMTD:error.obj
 0001:001137f0       __alldiv                   101147f0 f   LIBCMTD:lldiv.obj
 0001:001138a0       __allmul                   101148a0 f   LIBCMTD:llmul.obj
 0001:001138e0       __allrem                   101148e0 f   LIBCMTD:llrem.obj
 0001:001139a0       __allshl                   101149a0 f   LIBCMTD:llshl.obj
 0001:001139c0       __allshr                   101149c0 f   LIBCMTD:llshr.obj
 0001:001139f0       __aulldiv                  101149f0 f   LIBCMTD:ulldiv.obj
 0001:00113a60       __aullrem                  10114a60 f   LIBCMTD:ullrem.obj
 0001:00113ae0       __aullshr                  10114ae0 f   LIBCMTD:ullshr.obj
 0001:00113b00       __CRT_INIT@12              10114b00 f   LIBCMTD:dllcrt0.obj
 0001:00113d10       __DllMainCRTStartup@12     10114d10 f   LIBCMTD:dllcrt0.obj
 0001:00113f00       ___DllXcptFilter           10114f00 f   LIBCMTD:dllcrt0.obj
 0001:00113f30       __lock                     10114f30 f   LIBCMTD:mlock.obj
 0001:00113f70       __lockerr_exit             10114f70 f   LIBCMTD:mlock.obj
 0001:00113fa0       __mtdeletelocks            10114fa0 f   LIBCMTD:mlock.obj
 0001:00114060       __mtinitlocknum            10115060 f   LIBCMTD:mlock.obj
 0001:00114180       __mtinitlocks              10115180 f   LIBCMTD:mlock.obj
 0001:00114200       __unlock                   10115200 f   LIBCMTD:mlock.obj
 0001:00114220       ??0__non_rtti_object@std@@QAE@ABV01@@Z 10115220 f   LIBCMTD:stdexcpt.obj
 0001:00114250       ??0__non_rtti_object@std@@QAE@PBD@Z 10115250 f   LIBCMTD:stdexcpt.obj
 0001:00114280       ??0bad_cast@std@@QAE@ABV01@@Z 10115280 f   LIBCMTD:stdexcpt.obj
 0001:001142b0       ??0bad_cast@std@@QAE@PBD@Z 101152b0 f   LIBCMTD:stdexcpt.obj
 0001:001142e0       ??0bad_typeid@std@@QAE@ABV01@@Z 101152e0 f   LIBCMTD:stdexcpt.obj
 0001:00114310       ??0bad_typeid@std@@QAE@PBD@Z 10115310 f   LIBCMTD:stdexcpt.obj
 0001:00114340       ??0exception@std@@QAE@ABQBD@Z 10115340 f   LIBCMTD:stdexcpt.obj
 0001:00114380       ??0exception@std@@QAE@ABQBDH@Z 10115380 f   LIBCMTD:stdexcpt.obj
 0001:001143b0       ??0exception@std@@QAE@ABV01@@Z 101153b0 f   LIBCMTD:stdexcpt.obj
 0001:001143f0       ??0exception@std@@QAE@XZ   101153f0 f   LIBCMTD:stdexcpt.obj
 0001:00114420       ??1__non_rtti_object@std@@UAE@XZ 10115420 f   LIBCMTD:stdexcpt.obj
 0001:00114440       ??1bad_cast@std@@UAE@XZ    10115440 f   LIBCMTD:stdexcpt.obj
 0001:00114460       ??1bad_typeid@std@@UAE@XZ  10115460 f   LIBCMTD:stdexcpt.obj
 0001:00114480       ??1exception@std@@UAE@XZ   10115480 f   LIBCMTD:stdexcpt.obj
 0001:001144a0       ??4exception@std@@QAEAAV01@ABV01@@Z 101154a0 f   LIBCMTD:stdexcpt.obj
 0001:001144f0       ??_G__non_rtti_object@std@@UAEPAXI@Z 101154f0 f i LIBCMTD:stdexcpt.obj
 0001:001144f0       ??_E__non_rtti_object@std@@UAEPAXI@Z 101154f0 f i LIBCMTD:stdexcpt.obj
 0001:00114520       ??_Gbad_cast@std@@UAEPAXI@Z 10115520 f i LIBCMTD:stdexcpt.obj
 0001:00114520       ??_Ebad_cast@std@@UAEPAXI@Z 10115520 f i LIBCMTD:stdexcpt.obj
 0001:00114550       ??_Ebad_typeid@std@@UAEPAXI@Z 10115550 f i LIBCMTD:stdexcpt.obj
 0001:00114550       ??_Gbad_typeid@std@@UAEPAXI@Z 10115550 f i LIBCMTD:stdexcpt.obj
 0001:00114580       ??_Eexception@std@@UAEPAXI@Z 10115580 f i LIBCMTD:stdexcpt.obj
 0001:00114580       ??_Gexception@std@@UAEPAXI@Z 10115580 f i LIBCMTD:stdexcpt.obj
 0001:001145b0       ?_Copy_str@exception@std@@AAEXPBD@Z 101155b0 f   LIBCMTD:stdexcpt.obj
 0001:00114610       ?_Tidy@exception@std@@AAEXXZ 10115610 f   LIBCMTD:stdexcpt.obj
 0001:00114650       ?what@exception@std@@UBEPBDXZ 10115650 f   LIBCMTD:stdexcpt.obj
 0001:00114680       __FF_MSGBANNER             10115680 f   LIBCMTD:crt0msg.obj
 0001:001146d0       __GET_RTERRMSG             101156d0 f   LIBCMTD:crt0msg.obj
 0001:00114710       __NMSG_WRITE               10115710 f   LIBCMTD:crt0msg.obj
 0001:00114ad0       __set_abort_behavior       10115ad0 f   LIBCMTD:abort.obj
 0001:00114b00       _abort                     10115b00 f   LIBCMTD:abort.obj
 0001:00114b70       ___getlocaleinfo           10115b70 f   LIBCMTD:inithelp.obj
 0001:00114e70       __initp_misc_purevirt      10115e70 f   LIBCMTD:inithelp.obj
 0001:00114e80       ?_query_new_handler@@YAP6AHI@ZXZ 10115e80 f   LIBCMTD:handler.obj
 0001:00114ea0       ?_set_new_handler@@YAP6AHI@ZH@Z 10115ea0 f   LIBCMTD:handler.obj
 0001:00114ee0       ?_set_new_handler@@YAP6AHI@ZP6AHI@Z@Z 10115ee0 f   LIBCMTD:handler.obj
 0001:00114f20       __callnewh                 10115f20 f   LIBCMTD:handler.obj
 0001:00114f60       __initp_heap_handler       10115f60 f   LIBCMTD:handler.obj
 0001:00114fd0       __except_handler4          10115fd0 f   LIBCMTD:chandler4.obj
 0001:00115190       ___copy_path_to_wide_string 10116190 f   LIBCMTD:crt0dat.obj
 0001:00115380       ___crtCorExitProcess       10116380 f   LIBCMTD:crt0dat.obj
 0001:001153c0       ___crtExitProcess          101163c0 f   LIBCMTD:crt0dat.obj
 0001:001153e0       ___freeCrtMemory           101163e0 f   LIBCMTD:crt0dat.obj
 0001:001155a0       __amsg_exit                101165a0 f   LIBCMTD:crt0dat.obj
 0001:001155c0       __c_exit                   101165c0 f   LIBCMTD:crt0dat.obj
 0001:001155e0       __cexit                    101165e0 f   LIBCMTD:crt0dat.obj
 0001:00115600       __cinit                    10116600 f   LIBCMTD:crt0dat.obj
 0001:001156a0       __exit                     101166a0 f   LIBCMTD:crt0dat.obj
 0001:001156c0       __get_pgmptr               101166c0 f   LIBCMTD:crt0dat.obj
 0001:001157e0       __get_wpgmptr              101167e0 f   LIBCMTD:crt0dat.obj
 0001:00115900       __init_pointers            10116900 f   LIBCMTD:crt0dat.obj
 0001:00115990       __initterm_e               10116990 f   LIBCMTD:crt0dat.obj
 0001:001159d0       __lockexit                 101169d0 f   LIBCMTD:crt0dat.obj
 0001:001159e0       __unlockexit               101169e0 f   LIBCMTD:crt0dat.obj
 0001:00115bf0       _exit                      10116bf0 f   LIBCMTD:crt0dat.obj
 0001:00115c10       ___isa_available_init      10116c10 f   LIBCMTD:cpu_disp.obj
 0001:00115e10       __VEC_memset               10116e10 f   LIBCMTD:p4_memset.obj
 0001:00115ee0       _strchr                    10116ee0 f   LIBCMTD:strchr.obj
 0001:00115f4e       ___from_strstr_to_strchr   10116f4e     LIBCMTD:strchr.obj
 0001:00116540       __strtoi64                 10117540 f   LIBCMTD:strtoq.obj
 0001:00116590       __strtoi64_l               10117590 f   LIBCMTD:strtoq.obj
 0001:001165b0       __strtoui64                101175b0 f   LIBCMTD:strtoq.obj
 0001:00116600       __strtoui64_l              10117600 f   LIBCMTD:strtoq.obj
 0001:00116620       ?_RTC_GetErrorFunc@@YAP6AHHPBDH00ZZPBX@Z 10117620 f   LIBCMTD:userapi.obj
 0001:00116630       ?_RTC_GetErrorFuncW@@YAP6AHHPB_WH00ZZPBX@Z 10117630 f   LIBCMTD:userapi.obj
 0001:00116640       __RTC_GetErrDesc           10117640 f   LIBCMTD:userapi.obj
 0001:00116660       __RTC_NumErrors            10117660 f   LIBCMTD:userapi.obj
 0001:00116670       __RTC_SetErrorFunc         10117670 f   LIBCMTD:userapi.obj
 0001:00116690       __RTC_SetErrorFuncW        10117690 f   LIBCMTD:userapi.obj
 0001:001166b0       __RTC_SetErrorType         101176b0 f   LIBCMTD:userapi.obj
 0001:001166e0       __CRT_RTC_INIT             101176e0 f   LIBCMTD:chkesp.obj
 0001:001166f0       __CRT_RTC_INITW            101176f0 f   LIBCMTD:chkesp.obj
 0001:00116700       __chkesp                   10117700 f   LIBCMTD:chkesp.obj
 0001:00116740       ___get_flsindex            10117740 f   LIBCMTD:tidtable.obj
 0001:00116750       ___threadhandle            10117750 f   LIBCMTD:tidtable.obj
 0001:00116760       ___threadid                10117760 f   LIBCMTD:tidtable.obj
 0001:00116770       __freefls@4                10117770 f   LIBCMTD:tidtable.obj
 0001:00116970       __freeptd                  10117970 f   LIBCMTD:tidtable.obj
 0001:001169b0       __getptd                   101179b0 f   LIBCMTD:tidtable.obj
 0001:001169e0       __getptd_noexit            101179e0 f   LIBCMTD:tidtable.obj
 0001:00116a90       __initptd                  10117a90 f   LIBCMTD:tidtable.obj
 0001:00116bd0       __mtinit                   10117bd0 f   LIBCMTD:tidtable.obj
 0001:00116c80       __mtterm                   10117c80 f   LIBCMTD:tidtable.obj
 0001:00116cb0       __CallSettingFrame@12      10117cb0 f   LIBCMTD:lowhelpr.obj
 0001:00116cd7       __NLG_Return               10117cd7     LIBCMTD:lowhelpr.obj
 0001:00116d00       ?_inconsistency@@YAXXZ     10117d00 f   LIBCMTD:hooks.obj
 0001:00116d90       ?terminate@@YAXXZ          10117d90 f   LIBCMTD:hooks.obj
 0001:00116e10       ?unexpected@@YAXXZ         10117e10 f   LIBCMTD:hooks.obj
 0001:00116e40       __initp_eh_hooks           10117e40 f   LIBCMTD:hooks.obj
 0001:00116e60       ___DestructExceptionObject 10117e60 f   LIBCMTD:frame.obj
 0001:00116f80       ??0bad_exception@std@@QAE@ABV01@@Z 10117f80 f i LIBCMTD:frame.obj
 0001:00116fb0       ??0bad_exception@std@@QAE@PBD@Z 10117fb0 f i LIBCMTD:frame.obj
 0001:00116fe0       ??1bad_exception@std@@UAE@XZ 10117fe0 f i LIBCMTD:frame.obj
 0001:00117000       ??_Gbad_exception@std@@UAEPAXI@Z 10118000 f i LIBCMTD:frame.obj
 0001:00117000       ??_Ebad_exception@std@@UAEPAXI@Z 10118000 f i LIBCMTD:frame.obj
 0001:00117c00       ?__uncaught_exception@@YA_NXZ 10118c00 f   LIBCMTD:frame.obj
 0001:00117c30       ?_is_exception_typeof@@YAHABVtype_info@@PAU_EXCEPTION_POINTERS@@@Z 10118c30 f   LIBCMTD:frame.obj
 0001:00117d10       ___AdjustPointer           10118d10 f   LIBCMTD:frame.obj
 0001:00117d60       ___BuildCatchObject        10118d60 f   LIBCMTD:frame.obj
 0001:00117e70       ___BuildCatchObjectHelper  10118e70 f   LIBCMTD:frame.obj
 0001:001180f0       ___CxxDetectRethrow        101190f0 f   LIBCMTD:frame.obj
 0001:00118170       ___CxxExceptionFilter      10119170 f   LIBCMTD:frame.obj
 0001:00118370       ___CxxQueryExceptionSize   10119370 f   LIBCMTD:frame.obj
 0001:00118380       ___CxxRegisterExceptionObject 10119380 f   LIBCMTD:frame.obj
 0001:001184c0       ___CxxUnregisterExceptionObject 101194c0 f   LIBCMTD:frame.obj
 0001:00118640       ___FrameUnwindFilter       10119640 f   LIBCMTD:frame.obj
 0001:001186c0       ___FrameUnwindToState      101196c0 f   LIBCMTD:frame.obj
 0001:00118840       ___InternalCxxFrameHandler 10119840 f   LIBCMTD:frame.obj
 0001:001189b0       ___TypeMatch               101199b0 f   LIBCMTD:frame.obj
 0001:00118a70       ?_Name_base@type_info@@CAPBDPBV1@PAU__type_info_node@@@Z 10119a70 f   LIBCMTD:typname.obj
 0001:00118c20       ?_Name_base_internal@type_info@@CAPBDPBV1@PAU__type_info_node@@@Z 10119c20 f   LIBCMTD:typname.obj
 0001:00118de0       ?_Type_info_dtor@type_info@@CAXPAV1@@Z 10119de0 f   LIBCMTD:typname.obj
 0001:00118ef0       ?_Type_info_dtor_internal@type_info@@CAXPAV1@@Z 10119ef0 f   LIBCMTD:typname.obj
 0001:00119000       ___clean_type_info_names_internal 1011a000 f   LIBCMTD:typname.obj
 0001:001190b0       ___unDNameHelper           1011a0b0 f   LIBCMTD:typname.obj
 0001:001190f0       ?strrchr@@YAPADPADH@Z      1011a0f0 f i LIBCMTD:cvt.obj
 0001:00119110       __cfltcvt                  1011a110 f   LIBCMTD:cvt.obj
 0001:00119140       __cfltcvt_l                1011a140 f   LIBCMTD:cvt.obj
 0001:00119200       __cftoa                    1011a200 f   LIBCMTD:cvt.obj
 0001:00119230       __cftoa_l                  1011a230 f   LIBCMTD:cvt.obj
 0001:00119aa0       __cftoe                    1011aaa0 f   LIBCMTD:cvt.obj
 0001:00119ee0       __cftoe_l                  1011aee0 f   LIBCMTD:cvt.obj
 0001:0011a110       __cftof                    1011b110 f   LIBCMTD:cvt.obj
 0001:0011a3c0       __cftof_l                  1011b3c0 f   LIBCMTD:cvt.obj
 0001:0011a5c0       __cftog                    1011b5c0 f   LIBCMTD:cvt.obj
 0001:0011a5f0       __cftog_l                  1011b5f0 f   LIBCMTD:cvt.obj
 0001:0011a880       __cropzeros                1011b880 f   LIBCMTD:cvt.obj
 0001:0011a8a0       __cropzeros_l              1011b8a0 f   LIBCMTD:cvt.obj
 0001:0011a9c0       __fassign                  1011b9c0 f   LIBCMTD:cvt.obj
 0001:0011a9e0       __fassign_l                1011b9e0 f   LIBCMTD:cvt.obj
 0001:0011aa30       __forcdecpt                1011ba30 f   LIBCMTD:cvt.obj
 0001:0011aa50       __forcdecpt_l              1011ba50 f   LIBCMTD:cvt.obj
 0001:0011ab20       __positive                 1011bb20 f   LIBCMTD:cvt.obj
 0001:0011ab80       __setdefaultprecision      1011bb80 f   LIBCMTD:fp8.obj
 0001:0011abc0       __initp_misc_cfltcvt_tab   1011bbc0 f   LIBCMTD:cmiscdat.obj
 0001:0011ac00       ___initstdio               1011bc00 f   LIBCMTD:_file.obj
 0001:0011acd0       ___endstdio                1011bcd0 f   LIBCMTD:_file.obj
 0001:0011ad10       ___iob_func                1011bd10 f   LIBCMTD:_file.obj
 0001:0011ad20       __lock_file                1011bd20 f   LIBCMTD:_file.obj
 0001:0011ad80       __lock_file2               1011bd80 f   LIBCMTD:_file.obj
 0001:0011adc0       __unlock_file              1011bdc0 f   LIBCMTD:_file.obj
 0001:0011ae20       __unlock_file2             1011be20 f   LIBCMTD:_file.obj
 0001:0011ae60       __close                    1011be60 f   LIBCMTD:close.obj
 0001:0011b0a0       __close_nolock             1011c0a0 f   LIBCMTD:close.obj
 0001:0011b190       __freebuf                  1011c190 f   LIBCMTD:_freebuf.obj
 0001:0011b220       __commit                   1011c220 f   LIBCMTD:commit.obj
 0001:0011b470       __write                    1011c470 f   LIBCMTD:write.obj
 0001:0011b6d0       __write_nolock             1011c6d0 f   LIBCMTD:write.obj
 0001:0011c4e0       __getstream                1011d4e0 f   LIBCMTD:stream.obj
 0001:0011c710       __openfile                 1011d710 f   LIBCMTD:_open.obj
 0001:0011cf10       __local_unwind4            1011df10 f   LIBCMTD:exsup4.obj
 0001:0011cfe6       __seh_longjmp_unwind4@4    1011dfe6 f   LIBCMTD:exsup4.obj
 0001:0011d002       @_EH4_CallFilterFunc@8     1011e002 f   LIBCMTD:exsup4.obj
 0001:0011d019       @_EH4_TransferToHandler@8  1011e019 f   LIBCMTD:exsup4.obj
 0001:0011d032       @_EH4_GlobalUnwind2@8      1011e032 f   LIBCMTD:exsup4.obj
 0001:0011d04b       @_EH4_LocalUnwind@16       1011e04b f   LIBCMTD:exsup4.obj
 0001:0011d070       __vfprintf_l               1011e070 f   LIBCMTD:vfprintf.obj
 0001:0011d0a0       __vfprintf_p               1011e0a0 f   LIBCMTD:vfprintf.obj
 0001:0011d0c0       __vfprintf_p_l             1011e0c0 f   LIBCMTD:vfprintf.obj
 0001:0011d0f0       __vfprintf_s_l             1011e0f0 f   LIBCMTD:vfprintf.obj
 0001:0011d120       _vfprintf                  1011e120 f   LIBCMTD:vfprintf.obj
 0001:0011d140       _vfprintf_helper           1011e140 f   LIBCMTD:vfprintf.obj
 0001:0011d420       _vfprintf_s                1011e420 f   LIBCMTD:vfprintf.obj
 0001:0011d440       __ftbuf                    1011e440 f   LIBCMTD:_sftbuf.obj
 0001:0011d4d0       __stbuf                    1011e4d0 f   LIBCMTD:_sftbuf.obj
 0001:0011d640       __output_l                 1011e640 f   LIBCMTD:output.obj
 0001:0011ed00       _get_int64_arg             1011fd00 f i LIBCMTD:output.obj
 0001:0011ed20       _get_int_arg               1011fd20 f i LIBCMTD:output.obj
 0001:0011ed40       _get_short_arg             1011fd40 f i LIBCMTD:output.obj
 0001:0011ef00       __ioinit                   1011ff00 f   LIBCMTD:ioinit.obj
 0001:0011ef30       __ioinit0                  1011ff30 f   LIBCMTD:ioinit.obj
 0001:0011ef60       __ioinitCallback@12        1011ff60 f   LIBCMTD:ioinit.obj
 0001:0011f470       __ioterm                   10120470 f   LIBCMTD:ioinit.obj
 0001:0011f510       __filbuf                   10120510 f   LIBCMTD:_filbuf.obj
 0001:0011f790       _memcpy_s                  10120790 f   LIBCMTD:memcpy_s.obj
 0001:0011f960       __read                     10120960 f   LIBCMTD:read.obj
 0001:0011fc40       __read_nolock              10120c40 f   LIBCMTD:read.obj
 0001:00120e90       __ftell_nolock             10121e90 f   LIBCMTD:ftell.obj
 0001:00121550       _ftell                     10122550 f   LIBCMTD:ftell.obj
 0001:00121650       __lseek                    10122650 f   LIBCMTD:lseek.obj
 0001:001218b0       __lseek_nolock             101228b0 f   LIBCMTD:lseek.obj
 0001:00121990       __flsbuf                   10122990 f   LIBCMTD:_flsbuf.obj
 0001:00121c80       __output_s_l               10122c80 f   LIBCMTD:outputs.obj
 0001:00123650       __output_p_l               10124650 f   LIBCMTD:outputp.obj
 0001:00127470       __validate_param_reuseA    10128470 f   LIBCMTD:outputp.obj
 0001:00127760       _get_crtdouble_arg         10128760 f i LIBCMTD:outputp.obj
 0001:00127920       ___lock_fhandle            10128920 f   LIBCMTD:osfinfo.obj
 0001:00127a10       __alloc_osfhnd             10128a10 f   LIBCMTD:osfinfo.obj
 0001:00127cc0       __free_osfhnd              10128cc0 f   LIBCMTD:osfinfo.obj
 0001:00127db0       __get_osfhandle            10128db0 f   LIBCMTD:osfinfo.obj
 0001:00127f40       __open_osfhandle           10128f40 f   LIBCMTD:osfinfo.obj
 0001:00128170       __set_osfhnd               10129170 f   LIBCMTD:osfinfo.obj
 0001:00128240       __unlock_fhandle           10129240 f   LIBCMTD:osfinfo.obj
 0001:00128270       __vsnprintf                10129270 f   LIBCMTD:vsnprint.obj
 0001:00128290       __vsnprintf_l              10129290 f   LIBCMTD:vsnprint.obj
 0001:001284d0       ___crtFlsAlloc             101294d0 f   LIBCMTD:winapisupp.obj
 0001:001284e0       ___crtFlsFree              101294e0 f   LIBCMTD:winapisupp.obj
 0001:001284f0       ___crtFlsGetValue          101294f0 f   LIBCMTD:winapisupp.obj
 0001:00128500       ___crtFlsSetValue          10129500 f   LIBCMTD:winapisupp.obj
 0001:00128520       ___crtGetShowWindowMode    10129520 f   LIBCMTD:winapisupp.obj
 0001:00128550       ___crtIsPackagedApp        10129550 f   LIBCMTD:winapisupp.obj
 0001:00128590       ___crtSetUnhandledExceptionFilter 10129590 f   LIBCMTD:winapisupp.obj
 0001:001285a0       ___crtTerminateProcess     101295a0 f   LIBCMTD:winapisupp.obj
 0001:001285c0       ___crtUnhandledException   101295c0 f   LIBCMTD:winapisupp.obj
 0001:001285e0       __CrtDefaultAllocHook      101295e0 f   LIBCMTD:dbghook.obj
 0001:001285f0       __crt_debugger_hook        101295f0 f   LIBCMTD:dbghook.obj
 0001:00128600       __vscprintf                10129600 f   LIBCMTD:vsprintf.obj
 0001:00128620       __vscprintf_helper         10129620 f   LIBCMTD:vsprintf.obj
 0001:00128710       __vscprintf_l              10129710 f   LIBCMTD:vsprintf.obj
 0001:00128730       __vscprintf_p              10129730 f   LIBCMTD:vsprintf.obj
 0001:00128750       __vscprintf_p_l            10129750 f   LIBCMTD:vsprintf.obj
 0001:00128770       __vsprintf_l               10129770 f   LIBCMTD:vsprintf.obj
 0001:00128930       _vsprintf                  10129930 f   LIBCMTD:vsprintf.obj
 0001:00128950       __fltin2                   10129950 f   LIBCMTD:cfin.obj
 0001:00128a30       ___addlocaleref            10129a30 f   LIBCMTD:localref.obj
 0001:00128b50       ___freetlocinfo            10129b50 f   LIBCMTD:localref.obj
 0001:00128e40       ___removelocaleref         10129e40 f   LIBCMTD:localref.obj
 0001:00128f60       ___updatetlocinfo          10129f60 f   LIBCMTD:localref.obj
 0001:00129030       __updatetlocinfoEx_nolock  1012a030 f   LIBCMTD:localref.obj
 0001:001290b0       ___initmbctable            1012a0b0 f   LIBCMTD:mbctype.obj
 0001:001296d0       ___updatetmbcinfo          1012a6d0 f   LIBCMTD:mbctype.obj
 0001:001297e0       __getmbcp                  1012a7e0 f   LIBCMTD:mbctype.obj
 0001:00129850       __setmbcp                  1012a850 f   LIBCMTD:mbctype.obj
 0001:00129af0       __setmbcp_nolock           1012aaf0 f   LIBCMTD:mbctype.obj
 0001:00129e70       __chvalidator              1012ae70 f   LIBCMTD:isctype.obj
 0001:00129ec0       __chvalidator_l            1012aec0 f   LIBCMTD:isctype.obj
 0001:00129f80       __isctype                  1012af80 f   LIBCMTD:isctype.obj
 0001:00129fc0       __isctype_l                1012afc0 f   LIBCMTD:isctype.obj
 0001:0012a110       __locterm                  1012b110 f   LIBCMTD:wsetloca.obj
 0001:0012a1a0       ___init_dummy              1012b1a0 f   LIBCMTD:wsetloca.obj
 0001:0012a1b0       ____setlc_active_func      1012b1b0 f   LIBCMTD:wsetloca.obj
 0001:0012a1c0       ____unguarded_readlc_active_add_func 1012b1c0 f   LIBCMTD:wsetloca.obj
 0001:0012a1d0       ___copy_locale_name        1012b1d0 f   LIBCMTD:wsetloca.obj
 0001:0012a270       ___create_locale           1012b270 f   LIBCMTD:wsetloca.obj
 0001:0012a290       ___free_locale             1012b290 f   LIBCMTD:wsetloca.obj
 0001:0012a2b0       ___get_current_locale      1012b2b0 f   LIBCMTD:wsetloca.obj
 0001:0012a2c0       ___lc_lctowcs              1012b2c0 f   LIBCMTD:wsetloca.obj
 0001:0012a370       ___lc_wcstolc              1012b370 f   LIBCMTD:wsetloca.obj
 0001:0012a590       __configthreadlocale       1012b590 f   LIBCMTD:wsetloca.obj
 0001:0012a6f0       __create_locale            1012b6f0 f   LIBCMTD:wsetloca.obj
 0001:0012a760       __expandlocale             1012b760 f   LIBCMTD:wsetloca.obj
 0001:0012abe0       __free_locale              1012bbe0 f   LIBCMTD:wsetloca.obj
 0001:0012ad10       __get_current_locale       1012bd10 f   LIBCMTD:wsetloca.obj
 0001:0012ae30       __wcreate_locale           1012be30 f   LIBCMTD:wsetloca.obj
 0001:0012b010       __wcscats                  1012c010 f   LIBCMTD:wsetloca.obj
 0001:0012b090       __wsetlocale               1012c090 f   LIBCMTD:wsetloca.obj
 0001:0012c120       _wcscpy_s                  1012d120 f   LIBCMTD:wcscpy_s.obj
 0001:0012c430       _wcslen                    1012d430 f   LIBCMTD:wcslen.obj
 0001:0012c470       ___swprintf_l              1012d470 f   LIBCMTD:swprintf.obj
 0001:0012c4a0       __scwprintf                1012d4a0 f   LIBCMTD:swprintf.obj
 0001:0012c4c0       __scwprintf_l              1012d4c0 f   LIBCMTD:swprintf.obj
 0001:0012c4f0       __scwprintf_p              1012d4f0 f   LIBCMTD:swprintf.obj
 0001:0012c510       __scwprintf_p_l            1012d510 f   LIBCMTD:swprintf.obj
 0001:0012c540       __snwprintf_s              1012d540 f   LIBCMTD:swprintf.obj
 0001:0012c570       __snwprintf_s_l            1012d570 f   LIBCMTD:swprintf.obj
 0001:0012c5a0       __swprintf                 1012d5a0 f   LIBCMTD:swprintf.obj
 0001:0012c7c0       __swprintf_p               1012d7c0 f   LIBCMTD:swprintf.obj
 0001:0012c7f0       __swprintf_p_l             1012d7f0 f   LIBCMTD:swprintf.obj
 0001:0012c820       __swprintf_s_l             1012d820 f   LIBCMTD:swprintf.obj
 0001:0012c850       _swprintf_s                1012d850 f   LIBCMTD:swprintf.obj
 0001:0012c880       ___fpecode                 1012d880 f   LIBCMTD:winsig.obj
 0001:0012c890       ___get_sigabrt             1012d890 f   LIBCMTD:winsig.obj
 0001:0012c8b0       ___pxcptinfoptrs           1012d8b0 f   LIBCMTD:winsig.obj
 0001:0012c8c0       __initp_misc_winsig        1012d8c0 f   LIBCMTD:winsig.obj
 0001:0012c9e0       _raise                     1012d9e0 f   LIBCMTD:winsig.obj
 0001:0012cd50       _signal                    1012dd50 f   LIBCMTD:winsig.obj
 0001:0012d100       ___crtMessageBoxW          1012e100 f   LIBCMTD:crtmboxw.obj
 0001:0012d410       ___crtMessageBoxWaitThreadW@4 1012e410 f   LIBCMTD:crtmboxw.obj
 0001:0012d450       __CrtDbgBreak              1012e450 f   LIBCMTD:dbgrptt.obj
 0001:0012d460       __CrtGetReportHook         1012e460 f   LIBCMTD:dbgrptt.obj
 0001:0012d470       __CrtSetReportFile         1012e470 f   LIBCMTD:dbgrptt.obj
 0001:0012d570       __CrtSetReportHook         1012e570 f   LIBCMTD:dbgrptt.obj
 0001:0012d590       __CrtSetReportMode         1012e590 f   LIBCMTD:dbgrptt.obj
 0001:0012d6d0       __VCrtDbgReportA           1012e6d0 f   LIBCMTD:dbgrptt.obj
 0001:0012df40       __VCrtDbgReportW           1012ef40 f   LIBCMTD:dbgrptt.obj
 0001:0012e8b0       __XcptFilter               1012f8b0 f   LIBCMTD:winxfltr.obj
 0001:0012eab0       ___CppXcptFilter           1012fab0 f   LIBCMTD:winxfltr.obj
 0001:0012eb40       __free_base                1012fb40 f   LIBCMTD:free.obj
 0001:0012eb90       __realloc_base             1012fb90 f   LIBCMTD:realloc.obj
 0001:0012ec90       __expand_base              1012fc90 f   LIBCMTD:expand.obj
 0001:0012ee00       __CrtDbgReport             1012fe00 f   LIBCMTD:dbgrpt.obj
 0001:0012ee50       __CrtDbgReportV            1012fe50 f i LIBCMTD:dbgrpt.obj
 0001:0012ee80       __CrtSetReportHook2        1012fe80 f   LIBCMTD:dbgrpt.obj
 0001:0012f1d0       ___crtMessageWindowA       101301d0 f   LIBCMTD:dbgrpt.obj
 0001:0012f670       __heapchk                  10130670 f   LIBCMTD:heapchk.obj
 0001:0012f6a0       __heapset                  101306a0 f   LIBCMTD:heapchk.obj
 0001:0012f6b0       __heap_alloc_base          101306b0 f i LIBCMTD:malloc.obj
 0001:0012f710       __malloc_base              10130710 f   LIBCMTD:malloc.obj
 0001:0012f7a0       __get_heap_handle          101307a0 f   LIBCMTD:heapinit.obj
 0001:0012f7e0       __heap_init                101307e0 f   LIBCMTD:heapinit.obj
 0001:0012f810       __heap_term                10130810 f   LIBCMTD:heapinit.obj
 0001:0012f820       ___daylight                10130820 f   LIBCMTD:timeset.obj
 0001:0012f830       ___dstbias                 10130830 f   LIBCMTD:timeset.obj
 0001:0012f840       ___timezone                10130840 f   LIBCMTD:timeset.obj
 0001:0012f850       ___tzname                  10130850 f   LIBCMTD:timeset.obj
 0001:0012f860       __get_daylight             10130860 f   LIBCMTD:timeset.obj
 0001:0012f8f0       __get_dstbias              101308f0 f   LIBCMTD:timeset.obj
 0001:0012f980       __get_timezone             10130980 f   LIBCMTD:timeset.obj
 0001:0012fa10       __get_tzname               10130a10 f   LIBCMTD:timeset.obj
 0001:0012fc10       ___getgmtimebuf            10130c10 f   LIBCMTD:gmtime.obj
 0001:0012fc90       __gmtime32                 10130c90 f   LIBCMTD:gmtime.obj
 0001:0012fcd0       __gmtime32_s               10130cd0 f   LIBCMTD:gmtime.obj
 0001:0012ffb0       ___tzset                   10130fb0 f   LIBCMTD:tzset.obj
 0001:00130040       __isindst                  10131040 f   LIBCMTD:tzset.obj
 0001:00130410       __set_daylight             10131410 f i LIBCMTD:tzset.obj
 0001:00130420       __set_dstbias              10131420 f i LIBCMTD:tzset.obj
 0001:00130430       __set_timezone             10131430 f i LIBCMTD:tzset.obj
 0001:00130440       __tzset                    10131440 f   LIBCMTD:tzset.obj
 0001:00131170       ?_RTC_GetSrcLine@@YAHPAEPA_WKPAH1K@Z 10132170 f   LIBCMTD:pdblkup.obj
 0001:00131420       __set_pgmptr               10132420 f i LIBCMTD:stdargv.obj
 0001:00131430       __setargv                  10132430 f   LIBCMTD:stdargv.obj
 0001:00131900       __setenvp                  10132900 f   LIBCMTD:stdenvp.obj
 0001:00131aa0       ___security_init_cookie    10132aa0 f   LIBCMTD:gs_support.obj
 0001:00131b80       ___crtGetEnvironmentStringsA 10132b80 f   LIBCMTD:a_env.obj
 0001:00131c80       __RTC_Initialize           10132c80 f   LIBCMTD:initsect.obj
 0001:00131cb0       __RTC_Terminate            10132cb0 f   LIBCMTD:initsect.obj
 0001:00131ce0       _wcscat_s                  10132ce0 f   LIBCMTD:wcscat_s.obj
 0001:001320f0       _wcsncpy_s                 101330f0 f   LIBCMTD:wcsncpy_s.obj
 0001:00132520       ___set_app_type            10133520 f   LIBCMTD:errmode.obj
 0001:00132530       __set_error_mode           10133530 f   LIBCMTD:errmode.obj
 0001:00132700       __MarkAllocaS              10133700 f i LIBCMTD:a_loc.obj
 0001:00132720       ___crtGetLocaleInfoA       10133720 f   LIBCMTD:a_loc.obj
 0001:00132770       __freea                    10133770 f i LIBCMTD:a_loc.obj
 0001:001327e0       ___crtCompareStringEx      101337e0 f   LIBCMTD:winapinls.obj
 0001:00132810       ___crtEnumSystemLocalesEx  10133810 f   LIBCMTD:winapinls.obj
 0001:00132830       ___crtGetDateFormatEx      10133830 f   LIBCMTD:winapinls.obj
 0001:00132860       ___crtGetLocaleInfoEx      10133860 f   LIBCMTD:winapinls.obj
 0001:00132880       ___crtGetTimeFormatEx      10133880 f   LIBCMTD:winapinls.obj
 0001:001328b0       ___crtGetUserDefaultLocaleName 101338b0 f   LIBCMTD:winapinls.obj
 0001:001328d0       ___crtIsValidLocaleName    101338d0 f   LIBCMTD:winapinls.obj
 0001:001328e0       ___crtLCMapStringEx        101338e0 f   LIBCMTD:winapinls.obj
 0001:00132910       __FindPESection            10133910 f   LIBCMTD:pesect.obj
 0001:00132990       __IsNonwritableInCurrentImage 10133990 f   LIBCMTD:pesect.obj
 0001:00132ac0       __ValidateImageBase        10133ac0 f   LIBCMTD:pesect.obj
 0001:00132b20       __initp_misc_rand_s        10133b20 f   LIBCMTD:rand_s.obj
 0001:00132b30       _rand_s                    10133b30 f   LIBCMTD:rand_s.obj
 0001:00132da0       __global_unwind2           10133da0 f   LIBCMTD:exsup.obj
 0001:00132e05       __local_unwind2            10133e05 f   LIBCMTD:exsup.obj
 0001:00132e89       __abnormal_termination     10133e89 f   LIBCMTD:exsup.obj
 0001:00132eac       __NLG_Notify1              10133eac f   LIBCMTD:exsup.obj
 0001:00132eb5       __NLG_Notify               10133eb5 f   LIBCMTD:exsup.obj
 0001:00132ecc       __NLG_Dispatch             10133ecc     LIBCMTD:exsup.obj
 0001:00132ecc       __NLG_Dispatch2            10133ecc     LIBCMTD:exsup.obj
 0001:00132ed4       __NLG_Call                 10133ed4 f   LIBCMTD:exsup.obj
 0001:00132ed6       __NLG_Return2              10133ed6     LIBCMTD:exsup.obj
 0001:00132ee0       ?_ValidateExecute@@YAHP6GHXZ@Z 10133ee0 f   LIBCMTD:validate.obj
 0001:00132f00       ?_ValidateRead@@YAHPBXI@Z  10133f00 f   LIBCMTD:validate.obj
 0001:00132f20       ?_ValidateWrite@@YAHPAXI@Z 10133f20 f   LIBCMTD:validate.obj
 0001:00132f40       ??0Block@_HeapManager@@QAE@XZ 10133f40 f i LIBCMTD:undname.obj
 0001:00132f60       ??0DName@@QAE@AAPBDD@Z     10133f60 f   LIBCMTD:undname.obj
 0001:00133220       ??0DName@@QAE@ABV0@@Z      10134220 f i LIBCMTD:undname.obj
 0001:00133240       ??0DName@@QAE@D@Z          10134240 f   LIBCMTD:undname.obj
 0001:00133320       ??0DName@@QAE@PAV0@@Z      10134320 f   LIBCMTD:undname.obj
 0001:00133460       ??0DName@@QAE@PBD@Z        10134460 f   LIBCMTD:undname.obj
 0001:00133550       ??0DName@@QAE@W4DNameStatus@@@Z 10134550 f   LIBCMTD:undname.obj
 0001:00133670       ??0DName@@QAE@XZ           10134670 f i LIBCMTD:undname.obj
 0001:00133730       ??0DName@@QAE@_J@Z         10134730 f   LIBCMTD:undname.obj
 0001:001338b0       ??0DName@@QAE@_K@Z         101348b0 f   LIBCMTD:undname.obj
 0001:001339f0       ??0DNameNode@@IAE@XZ       101349f0 f   LIBCMTD:undname.obj
 0001:00133a10       ??0DNameStatusNode@@AAE@W4DNameStatus@@@Z 10134a10 f   LIBCMTD:undname.obj
 0001:00133a60       ??0Replicator@@QAE@XZ      10134a60 f i LIBCMTD:undname.obj
 0001:00133a80       ??0UnDecorator@@QAE@PADPBDHP6APADJ@ZK@Z 10134a80 f i LIBCMTD:undname.obj
 0001:00133b20       ??0charNode@@QAE@D@Z       10134b20 f   LIBCMTD:undname.obj
 0001:00133b50       ??0pDNameNode@@QAE@PAVDName@@@Z 10134b50 f   LIBCMTD:undname.obj
 0001:00133bb0       ??0pairNode@@QAE@PAVDNameNode@@0@Z 10134bb0 f   LIBCMTD:undname.obj
 0001:00133bf0       ??0pcharNode@@QAE@PBDH@Z   10134bf0 f   LIBCMTD:undname.obj
 0001:00133c90       ??2@YAPAXIAAV_HeapManager@@H@Z 10134c90 f i LIBCMTD:undname.obj
 0001:00133cb0       ??4DName@@QAEAAV0@ABV0@@Z  10134cb0 f   LIBCMTD:undname.obj
 0001:00133cd0       ??4DName@@QAEAAV0@D@Z      10134cd0 f i LIBCMTD:undname.obj
 0001:00133db0       ??4DName@@QAEAAV0@PAV0@@Z  10134db0 f   LIBCMTD:undname.obj
 0001:00133ee0       ??4DName@@QAEAAV0@PBD@Z    10134ee0 f   LIBCMTD:undname.obj
 0001:00133fc0       ??4DName@@QAEAAV0@W4DNameStatus@@@Z 10134fc0 f   LIBCMTD:undname.obj
 0001:001340c0       ??AReplicator@@QBE?AVDName@@H@Z 101350c0 f   LIBCMTD:undname.obj
 0001:00134130       ??BUnDecorator@@QAEPADXZ   10135130 f i LIBCMTD:undname.obj
 0001:001343c0       ??H@YA?AVDName@@DABV0@@Z   101353c0 f i LIBCMTD:undname.obj
 0001:001343f0       ??H@YA?AVDName@@PBDABV0@@Z 101353f0 f i LIBCMTD:undname.obj
 0001:00134420       ??H@YA?AVDName@@W4DNameStatus@@ABV0@@Z 10135420 f i LIBCMTD:undname.obj
 0001:00134450       ??HDName@@QBE?AV0@ABV0@@Z  10135450 f   LIBCMTD:undname.obj
 0001:00134490       ??HDName@@QBE?AV0@D@Z      10135490 f   LIBCMTD:undname.obj
 0001:001344d0       ??HDName@@QBE?AV0@PAV0@@Z  101354d0 f   LIBCMTD:undname.obj
 0001:00134510       ??HDName@@QBE?AV0@PBD@Z    10135510 f   LIBCMTD:undname.obj
 0001:00134550       ??HDName@@QBE?AV0@W4DNameStatus@@@Z 10135550 f   LIBCMTD:undname.obj
 0001:00134590       ??YDName@@QAEAAV0@ABV0@@Z  10135590 f   LIBCMTD:undname.obj
 0001:00134600       ??YDName@@QAEAAV0@D@Z      10135600 f   LIBCMTD:undname.obj
 0001:00134680       ??YDName@@QAEAAV0@PAV0@@Z  10135680 f   LIBCMTD:undname.obj
 0001:00134730       ??YDName@@QAEAAV0@PBD@Z    10135730 f   LIBCMTD:undname.obj
 0001:001347d0       ??YDName@@QAEAAV0@W4DNameStatus@@@Z 101357d0 f   LIBCMTD:undname.obj
 0001:00134830       ??YReplicator@@QAEAAV0@ABVDName@@@Z 10135830 f   LIBCMTD:undname.obj
 0001:001348c0       ??_5DName@@QAEAAV0@ABV0@@Z 101358c0 f   LIBCMTD:undname.obj
 0001:00134920       ?Constructor@_HeapManager@@QAEXP6APAXI@ZP6AXPAX@Z@Z 10135920 f i LIBCMTD:undname.obj
 0001:00134960       ?Destructor@_HeapManager@@QAEXXZ 10135960 f i LIBCMTD:undname.obj
 0001:001349b0       ?UScore@UnDecorator@@SAPBDW4Tokens@@@Z 101359b0 f   LIBCMTD:undname.obj
 0001:001349e0       ?append@DName@@AAEXPAVDNameNode@@@Z 101359e0 f   LIBCMTD:undname.obj
 0001:00134a70       ?composeDeclaration@UnDecorator@@CA?AVDName@@ABV2@@Z 10135a70 f i LIBCMTD:undname.obj
 0001:001366f0       ?dbGetString@DName@@QBEPADXZ 101376f0 f   LIBCMTD:undname.obj
 0001:00136710       ?doAccessSpecifiers@UnDecorator@@SAHXZ 10137710 f i LIBCMTD:undname.obj
 0001:00136740       ?doAllocationLanguage@UnDecorator@@SAHXZ 10137740 f i LIBCMTD:undname.obj
 0001:00136770       ?doAllocationModel@UnDecorator@@SAHXZ 10137770 f i LIBCMTD:undname.obj
 0001:001367a0       ?doEcsu@UnDecorator@@SAHXZ 101377a0 f i LIBCMTD:undname.obj
 0001:001367d0       ?doEllipsis@UnDecorator@@SAHXZ 101377d0 f i LIBCMTD:undname.obj
 0001:00136800       ?doFunctionReturns@UnDecorator@@SAHXZ 10137800 f i LIBCMTD:undname.obj
 0001:00136830       ?doMSKeywords@UnDecorator@@SAHXZ 10137830 f i LIBCMTD:undname.obj
 0001:00136860       ?doMemberTypes@UnDecorator@@SAHXZ 10137860 f i LIBCMTD:undname.obj
 0001:00136890       ?doNameOnly@UnDecorator@@SAHXZ 10137890 f i LIBCMTD:undname.obj
 0001:001368a0       ?doNoIdentCharCheck@UnDecorator@@SAHXZ 101378a0 f i LIBCMTD:undname.obj
 0001:001368b0       ?doPchar@DName@@AAEXPBDH@Z 101378b0 f   LIBCMTD:undname.obj
 0001:001369f0       ?doPtr64@UnDecorator@@SAHXZ 101379f0 f i LIBCMTD:undname.obj
 0001:00136a20       ?doRestrictionSpec@UnDecorator@@SAHXZ 10137a20 f i LIBCMTD:undname.obj
 0001:00136a50       ?doThisTypes@UnDecorator@@SAHXZ 10137a50 f i LIBCMTD:undname.obj
 0001:00136a80       ?doThrowTypes@UnDecorator@@SAHXZ 10137a80 f i LIBCMTD:undname.obj
 0001:00136ab0       ?doTypeOnly@UnDecorator@@SAHXZ 10137ab0 f i LIBCMTD:undname.obj
 0001:00136ac0       ?doUnderScore@UnDecorator@@SAHXZ 10137ac0 f i LIBCMTD:undname.obj
 0001:00136af0       ?getArgumentList@UnDecorator@@CA?AVDName@@XZ 10137af0 f   LIBCMTD:undname.obj
 0001:00136c40       ?getArgumentTypes@UnDecorator@@CA?AVDName@@XZ 10137c40 f   LIBCMTD:undname.obj
 0001:00136da0       ?getArrayType@UnDecorator@@CA?AVDName@@ABV2@@Z 10137da0 f i LIBCMTD:undname.obj
 0001:00136fe0       ?getBasedType@UnDecorator@@CA?AVDName@@XZ 10137fe0 f   LIBCMTD:undname.obj
 0001:001370a0       ?getBasicDataType@UnDecorator@@CA?AVDName@@ABV2@@Z 101380a0 f   LIBCMTD:undname.obj
 0001:00137660       ?getCallIndex@UnDecorator@@CA?AVDName@@XZ 10138660 f i LIBCMTD:undname.obj
 0001:00137680       ?getCallingConvention@UnDecorator@@CA?AVDName@@XZ 10138680 f   LIBCMTD:undname.obj
 0001:001377f0       ?getDataIndirectType@UnDecorator@@CA?AVDName@@ABV2@PBD0H@Z 101387f0 f   LIBCMTD:undname.obj
 0001:00137f00       ?getDataIndirectType@UnDecorator@@CA?AVDName@@XZ 10138f00 f i LIBCMTD:undname.obj
 0001:00137f40       ?getDataType@UnDecorator@@CA?AVDName@@PAV2@@Z 10138f40 f   LIBCMTD:undname.obj
 0001:00138060       ?getDecoratedName@UnDecorator@@CA?AVDName@@XZ 10139060 f   LIBCMTD:undname.obj
 0001:00138390       ?getDimension@UnDecorator@@CA?AVDName@@_N@Z 10139390 f   LIBCMTD:undname.obj
 0001:00138640       ?getDispatchTarget@UnDecorator@@CA?AVDName@@XZ 10139640 f   LIBCMTD:undname.obj
 0001:001386e0       ?getDisplacement@UnDecorator@@CA?AVDName@@XZ 101396e0 f i LIBCMTD:undname.obj
 0001:00138700       ?getECSUDataType@UnDecorator@@CA?AVDName@@XZ 10139700 f   LIBCMTD:undname.obj
 0001:001388d0       ?getECSUName@UnDecorator@@CA?AVDName@@XZ 101398d0 f i LIBCMTD:undname.obj
 0001:001388f0       ?getEnumType@UnDecorator@@CA?AVDName@@XZ 101398f0 f i LIBCMTD:undname.obj
 0001:00138a40       ?getExtendedDataIndirectType@UnDecorator@@CA?AVDName@@AAPBDAA_NH@Z 10139a40 f   LIBCMTD:undname.obj
 0001:00138c90       ?getExternalDataType@UnDecorator@@CA?AVDName@@ABV2@@Z 10139c90 f i LIBCMTD:undname.obj
 0001:00138d20       ?getFunctionIndirectType@UnDecorator@@CA?AVDName@@ABV2@@Z 10139d20 f   LIBCMTD:undname.obj
 0001:00139190       ?getGuardNumber@UnDecorator@@CA?AVDName@@XZ 1013a190 f i LIBCMTD:undname.obj
 0001:001391b0       ?getLastChar@DName@@QBEDXZ 1013a1b0 f i LIBCMTD:undname.obj
 0001:001391e0       ?getLastChar@DNameStatusNode@@UBEDXZ 1013a1e0 f i LIBCMTD:undname.obj
 0001:00139210       ?getLastChar@charNode@@UBEDXZ 1013a210 f i LIBCMTD:undname.obj
 0001:00139230       ?getLastChar@pDNameNode@@UBEDXZ 1013a230 f i LIBCMTD:undname.obj
 0001:00139260       ?getLastChar@pairNode@@UBEDXZ 1013a260 f i LIBCMTD:undname.obj
 0001:001392b0       ?getLastChar@pcharNode@@UBEDXZ 1013a2b0 f i LIBCMTD:undname.obj
 0001:001392f0       ?getLexicalFrame@UnDecorator@@CA?AVDName@@XZ 1013a2f0 f i LIBCMTD:undname.obj
 0001:00139330       ?getMemory@_HeapManager@@QAEPAXIH@Z 1013a330 f   LIBCMTD:undname.obj
 0001:00139440       ?getNumberOfDimensions@UnDecorator@@CAHXZ 1013a440 f   LIBCMTD:undname.obj
 0001:00139540       ?getOperatorName@UnDecorator@@CA?AVDName@@_NPA_N@Z 1013a540 f i LIBCMTD:undname.obj
 0001:00139ed0       ?getPointerType@UnDecorator@@CA?AVDName@@ABV2@0@Z 1013aed0 f i LIBCMTD:undname.obj
 0001:00139f00       ?getPointerTypeArray@UnDecorator@@CA?AVDName@@ABV2@0@Z 1013af00 f i LIBCMTD:undname.obj
 0001:00139f30       ?getPrimaryDataType@UnDecorator@@CA?AVDName@@ABV2@@Z 1013af30 f   LIBCMTD:undname.obj
 0001:0013a2d0       ?getPtrRefDataType@UnDecorator@@CA?AVDName@@ABV2@H@Z 1013b2d0 f i LIBCMTD:undname.obj
 0001:0013a410       ?getPtrRefType@UnDecorator@@CA?AVDName@@ABV2@0PBD@Z 1013b410 f   LIBCMTD:undname.obj
 0001:0013a580       ?getReferenceType@UnDecorator@@CA?AVDName@@ABV2@0PBD@Z 1013b580 f i LIBCMTD:undname.obj
 0001:0013a5a0       ?getRestrictionSpec@UnDecorator@@CA?AVDName@@XZ 1013b5a0 f   LIBCMTD:undname.obj
 0001:0013a6f0       ?getReturnType@UnDecorator@@CA?AVDName@@PAV2@@Z 1013b6f0 f   LIBCMTD:undname.obj
 0001:0013a740       ?getScope@UnDecorator@@CA?AVDName@@XZ 1013b740 f   LIBCMTD:undname.obj
 0001:0013ac30       ?getScopedName@UnDecorator@@CA?AVDName@@XZ 1013bc30 f   LIBCMTD:undname.obj
 0001:0013ad50       ?getSignedDimension@UnDecorator@@CA?AVDName@@XZ 1013bd50 f   LIBCMTD:undname.obj
 0001:0013add0       ?getStorageConvention@UnDecorator@@CA?AVDName@@XZ 1013bdd0 f i LIBCMTD:undname.obj
 0001:0013adf0       ?getString@DName@@QBEPADPAD0@Z 1013bdf0 f i LIBCMTD:undname.obj
 0001:0013ae30       ?getString@DName@@QBEPADPADH@Z 1013be30 f i LIBCMTD:undname.obj
 0001:0013aec0       ?getString@DNameStatusNode@@UBEPADPAD0@Z 1013bec0 f i LIBCMTD:undname.obj
 0001:0013af00       ?getString@charNode@@UBEPADPAD0@Z 1013bf00 f i LIBCMTD:undname.obj
 0001:0013af30       ?getString@pDNameNode@@UBEPADPAD0@Z 1013bf30 f i LIBCMTD:undname.obj
 0001:0013af70       ?getString@pairNode@@UBEPADPAD0@Z 1013bf70 f i LIBCMTD:undname.obj
 0001:0013afd0       ?getString@pcharNode@@UBEPADPAD0@Z 1013bfd0 f i LIBCMTD:undname.obj
 0001:0013b000       ?getStringEncoding@UnDecorator@@CA?AVDName@@PADH@Z 1013c000 f   LIBCMTD:undname.obj
 0001:0013b110       ?getStringHelper@@YAPADPAD00H@Z 1013c110 f i LIBCMTD:undname.obj
 0001:0013b150       ?getSymbolName@UnDecorator@@CA?AVDName@@XZ 1013c150 f i LIBCMTD:undname.obj
 0001:0013b1e0       ?getTemplateArgumentList@UnDecorator@@CA?AVDName@@XZ 1013c1e0 f   LIBCMTD:undname.obj
 0001:0013b460       ?getTemplateConstant@UnDecorator@@CA?AVDName@@XZ 1013c460 f   LIBCMTD:undname.obj
 0001:0013b930       ?getTemplateName@UnDecorator@@CA?AVDName@@_N@Z 1013c930 f   LIBCMTD:undname.obj
 0001:0013bb00       ?getThisType@UnDecorator@@CA?AVDName@@XZ 1013cb00 f i LIBCMTD:undname.obj
 0001:0013bb40       ?getThrowTypes@UnDecorator@@CA?AVDName@@XZ 1013cb40 f   LIBCMTD:undname.obj
 0001:0013bbf0       ?getTypeEncoding@UnDecorator@@CAHXZ 1013cbf0 f i LIBCMTD:undname.obj
 0001:0013c630       ?getVCallThunkType@UnDecorator@@CA?AVDName@@XZ 1013d630 f i LIBCMTD:undname.obj
 0001:0013c690       ?getVbTableType@UnDecorator@@CA?AVDName@@ABV2@@Z 1013d690 f i LIBCMTD:undname.obj
 0001:0013c6b0       ?getVdispMapType@UnDecorator@@CA?AVDName@@ABV2@@Z 1013d6b0 f i LIBCMTD:undname.obj
 0001:0013c720       ?getVfTableType@UnDecorator@@CA?AVDName@@ABV2@@Z 1013d720 f i LIBCMTD:undname.obj
 0001:0013c8e0       ?getZName@UnDecorator@@CA?AVDName@@_N0@Z 1013d8e0 f   LIBCMTD:undname.obj
 0001:0013cb90       ?haveTemplateParameters@UnDecorator@@SAHXZ 1013db90 f i LIBCMTD:undname.obj
 0001:0013cba0       ?isArray@DName@@QBEHXZ     1013dba0 f i LIBCMTD:undname.obj
 0001:0013cbc0       ?isComArray@DName@@QBEHXZ  1013dbc0 f i LIBCMTD:undname.obj
 0001:0013cbe0       ?isEmpty@DName@@QBEHXZ     1013dbe0 f i LIBCMTD:undname.obj
 0001:0013cc10       ?isFull@Replicator@@QBEHXZ 1013dc10 f i LIBCMTD:undname.obj
 0001:0013cc40       ?isNoTE@DName@@QBEHXZ      1013dc40 f i LIBCMTD:undname.obj
 0001:0013cc60       ?isPinPtr@DName@@QBEHXZ    1013dc60 f i LIBCMTD:undname.obj
 0001:0013cc80       ?isPtrRef@DName@@QBEHXZ    1013dc80 f i LIBCMTD:undname.obj
 0001:0013cca0       ?isUDC@DName@@QBEHXZ       1013dca0 f i LIBCMTD:undname.obj
 0001:0013cce0       ?isUDTThunk@DName@@QBEHXZ  1013dce0 f i LIBCMTD:undname.obj
 0001:0013cd20       ?isVCallThunk@DName@@QBEHXZ 1013dd20 f i LIBCMTD:undname.obj
 0001:0013cd40       ?isValid@DName@@QBEHXZ     1013dd40 f i LIBCMTD:undname.obj
 0001:0013cd80       ?length@DName@@QBEHXZ      1013dd80 f i LIBCMTD:undname.obj
 0001:0013cdb0       ?length@DNameStatusNode@@UBEHXZ 1013ddb0 f i LIBCMTD:undname.obj
 0001:0013cdd0       ?length@charNode@@UBEHXZ   1013ddd0 f i LIBCMTD:undname.obj
 0001:0013cde0       ?length@pDNameNode@@UBEHXZ 1013dde0 f i LIBCMTD:undname.obj
 0001:0013ce10       ?length@pairNode@@UBEHXZ   1013de10 f i LIBCMTD:undname.obj
 0001:0013ce60       ?length@pcharNode@@UBEHXZ  1013de60 f i LIBCMTD:undname.obj
 0001:0013ce80       ?make@DNameStatusNode@@SAPAV1@W4DNameStatus@@@Z 1013de80 f i LIBCMTD:undname.obj
 0001:0013cf30       ?setIsArray@DName@@QAEXXZ  1013df30 f i LIBCMTD:undname.obj
 0001:0013cf50       ?setIsComArray@DName@@QAEXXZ 1013df50 f i LIBCMTD:undname.obj
 0001:0013cf70       ?setIsNoTE@DName@@QAEXXZ   1013df70 f i LIBCMTD:undname.obj
 0001:0013cf90       ?setIsPinPtr@DName@@QAEXXZ 1013df90 f i LIBCMTD:undname.obj
 0001:0013cfb0       ?setIsUDC@DName@@QAEXXZ    1013dfb0 f i LIBCMTD:undname.obj
 0001:0013cfe0       ?setIsVCallThunk@DName@@QAEXXZ 1013dfe0 f i LIBCMTD:undname.obj
 0001:0013d000       ?setPtrRef@DName@@QAEAAV1@XZ 1013e000 f i LIBCMTD:undname.obj
 0001:0013d020       ?status@DName@@QBE?AW4DNameStatus@@XZ 1013e020 f i LIBCMTD:undname.obj
 0001:0013d120       ___unDName                 1013e120 f   LIBCMTD:undname.obj
 0001:0013d1f0       ___unDNameEx               1013e1f0 f   LIBCMTD:undname.obj
 0001:0013d2d0       ___isascii                 1013e2d0 f i LIBCMTD:_ctype.obj
 0001:0013d300       ___iscsym                  1013e300 f i LIBCMTD:_ctype.obj
 0001:0013d340       ___iscsymf                 1013e340 f i LIBCMTD:_ctype.obj
 0001:0013d380       ___toascii                 1013e380 f i LIBCMTD:_ctype.obj
 0001:0013d390       __isalnum_l                1013e390 f i LIBCMTD:_ctype.obj
 0001:0013d410       __isalpha_l                1013e410 f i LIBCMTD:_ctype.obj
 0001:0013d490       __iscntrl_l                1013e490 f i LIBCMTD:_ctype.obj
 0001:0013d510       __iscsym_l                 1013e510 f i LIBCMTD:_ctype.obj
 0001:0013d550       __iscsymf_l                1013e550 f i LIBCMTD:_ctype.obj
 0001:0013d590       __isdigit_l                1013e590 f i LIBCMTD:_ctype.obj
 0001:0013d610       __isgraph_l                1013e610 f i LIBCMTD:_ctype.obj
 0001:0013d690       __islower_l                1013e690 f i LIBCMTD:_ctype.obj
 0001:0013d710       __isprint_l                1013e710 f i LIBCMTD:_ctype.obj
 0001:0013d790       __ispunct_l                1013e790 f i LIBCMTD:_ctype.obj
 0001:0013d810       __isspace_l                1013e810 f i LIBCMTD:_ctype.obj
 0001:0013d890       __isupper_l                1013e890 f i LIBCMTD:_ctype.obj
 0001:0013d910       __isxdigit_l               1013e910 f i LIBCMTD:_ctype.obj
 0001:0013d990       _isalnum                   1013e990 f i LIBCMTD:_ctype.obj
 0001:0013d9d0       _isalpha                   1013e9d0 f i LIBCMTD:_ctype.obj
 0001:0013da10       _iscntrl                   1013ea10 f i LIBCMTD:_ctype.obj
 0001:0013da40       _isdigit                   1013ea40 f i LIBCMTD:_ctype.obj
 0001:0013da70       _isgraph                   1013ea70 f i LIBCMTD:_ctype.obj
 0001:0013dab0       _islower                   1013eab0 f i LIBCMTD:_ctype.obj
 0001:0013dae0       _isprint                   1013eae0 f i LIBCMTD:_ctype.obj
 0001:0013db20       _ispunct                   1013eb20 f i LIBCMTD:_ctype.obj
 0001:0013db50       _isspace                   1013eb50 f i LIBCMTD:_ctype.obj
 0001:0013db80       _isupper                   1013eb80 f i LIBCMTD:_ctype.obj
 0001:0013dbb0       _isxdigit                  1013ebb0 f i LIBCMTD:_ctype.obj
 0001:0013dbf0       __tolower                  1013ebf0 f   LIBCMTD:tolower.obj
 0001:0013dc00       __tolower_l                1013ec00 f   LIBCMTD:tolower.obj
 0001:0013de40       _tolower                   1013ee40 f   LIBCMTD:tolower.obj
 0001:0013de90       _strrchr                   1013ee90 f   LIBCMTD:strrchr.obj
 0001:0013dfd0       __fptostr                  1013efd0 f   LIBCMTD:_fptostr.obj
 0001:0013e2f0       __atodbl                   1013f2f0 f   LIBCMTD:atodbl.obj
 0001:0013e310       __atodbl_l                 1013f310 f   LIBCMTD:atodbl.obj
 0001:0013e410       __atoflt                   1013f410 f   LIBCMTD:atodbl.obj
 0001:0013e430       __atoflt_l                 1013f430 f   LIBCMTD:atodbl.obj
 0001:0013e530       __atoldbl                  1013f530 f   LIBCMTD:atodbl.obj
 0001:0013e550       __atoldbl_l                1013f550 f   LIBCMTD:atodbl.obj
 0001:0013e650       ___dtold                   1013f650 f   LIBCMTD:cfout.obj
 0001:0013e7b0       __fltout2                  1013f7b0 f   LIBCMTD:cfout.obj
 0001:0013e860       __get_output_format        1013f860 f   LIBCMTD:outputformat.obj
 0001:0013e870       __set_output_format        1013f870 f   LIBCMTD:outputformat.obj
 0001:0013e910       __controlfp_s              1013f910 f   LIBCMTD:contrlfp.obj
 0001:0013ea00       __fptrap                   1013fa00 f   LIBCMTD:crt0fp.obj
 0001:0013ea10       __fcloseall                1013fa10 f   LIBCMTD:closeall.obj
 0001:0013eb40       ___iswcsym                 1013fb40 f i LIBCMTD:_wctype.obj
 0001:0013eb80       ___iswcsymf                1013fb80 f i LIBCMTD:_wctype.obj
 0001:0013ebc0       __isleadbyte_l             1013fbc0 f i LIBCMTD:_wctype.obj
 0001:0013ec10       __iswalnum_l               1013fc10 f i LIBCMTD:_wctype.obj
 0001:0013ec30       __iswalpha_l               1013fc30 f i LIBCMTD:_wctype.obj
 0001:0013ec50       __iswcntrl_l               1013fc50 f i LIBCMTD:_wctype.obj
 0001:0013ec70       __iswcsym_l                1013fc70 f i LIBCMTD:_wctype.obj
 0001:0013ecb0       __iswcsymf_l               1013fcb0 f i LIBCMTD:_wctype.obj
 0001:0013ecf0       __iswdigit_l               1013fcf0 f i LIBCMTD:_wctype.obj
 0001:0013ed10       __iswgraph_l               1013fd10 f i LIBCMTD:_wctype.obj
 0001:0013ed30       __iswlower_l               1013fd30 f i LIBCMTD:_wctype.obj
 0001:0013ed50       __iswprint_l               1013fd50 f i LIBCMTD:_wctype.obj
 0001:0013ed70       __iswpunct_l               1013fd70 f i LIBCMTD:_wctype.obj
 0001:0013ed90       __iswspace_l               1013fd90 f i LIBCMTD:_wctype.obj
 0001:0013edb0       __iswupper_l               1013fdb0 f i LIBCMTD:_wctype.obj
 0001:0013edd0       __iswxdigit_l              1013fdd0 f i LIBCMTD:_wctype.obj
 0001:0013edf0       _isleadbyte                1013fdf0 f i LIBCMTD:_wctype.obj
 0001:0013ee10       _iswalnum                  1013fe10 f i LIBCMTD:_wctype.obj
 0001:0013ee30       _iswalpha                  1013fe30 f i LIBCMTD:_wctype.obj
 0001:0013ee50       _iswascii                  1013fe50 f i LIBCMTD:_wctype.obj
 0001:0013ee80       _iswcntrl                  1013fe80 f i LIBCMTD:_wctype.obj
 0001:0013eea0       _iswdigit                  1013fea0 f i LIBCMTD:_wctype.obj
 0001:0013eec0       _iswgraph                  1013fec0 f i LIBCMTD:_wctype.obj
 0001:0013eee0       _iswlower                  1013fee0 f i LIBCMTD:_wctype.obj
 0001:0013ef00       _iswprint                  1013ff00 f i LIBCMTD:_wctype.obj
 0001:0013ef20       _iswpunct                  1013ff20 f i LIBCMTD:_wctype.obj
 0001:0013ef40       _iswspace                  1013ff40 f i LIBCMTD:_wctype.obj
 0001:0013ef60       _iswupper                  1013ff60 f i LIBCMTD:_wctype.obj
 0001:0013ef80       _iswxdigit                 1013ff80 f i LIBCMTD:_wctype.obj
 0001:0013efa0       __isatty                   1013ffa0 f   LIBCMTD:isatty.obj
 0001:0013f080       __lseeki64                 10140080 f   LIBCMTD:lseeki64.obj
 0001:0013f300       __lseeki64_nolock          10140300 f   LIBCMTD:lseeki64.obj
 0001:0013f3d0       __mbtowc_l                 101403d0 f   LIBCMTD:mbtowc.obj
 0001:0013f610       _mbtowc                    10140610 f   LIBCMTD:mbtowc.obj
 0001:0013f630       __putwch                   10140630 f   LIBCMTD:putwch.obj
 0001:0013f6c0       __putwch_nolock            101406c0 f   LIBCMTD:putwch.obj
 0001:0013f710       __open                     10140710 f   LIBCMTD:open.obj
 0001:0013f8a0       __sopen                    101408a0 f   LIBCMTD:open.obj
 0001:0013f910       __sopen_helper             10140910 f   LIBCMTD:open.obj
 0001:0013fba0       __sopen_nolock             10140ba0 f   LIBCMTD:open.obj
 0001:0013fc10       __sopen_s                  10140c10 f   LIBCMTD:open.obj
 0001:0013fc40       __mbsnbcmp                 10140c40 f   LIBCMTD:mbsnbcmp.obj
 0001:0013fc60       __mbsnbcmp_l               10140c60 f   LIBCMTD:mbsnbcmp.obj
 0001:0013ff80       __mbsnbicmp                10140f80 f   LIBCMTD:mbsnbicm.obj
 0001:0013ffa0       __mbsnbicmp_l              10140fa0 f   LIBCMTD:mbsnbicm.obj
 0001:001404e0       __get_printf_count_output  101414e0 f   LIBCMTD:printf.obj
 0001:00140510       __printf_l                 10141510 f   LIBCMTD:printf.obj
 0001:00140540       __printf_p                 10141540 f   LIBCMTD:printf.obj
 0001:00140560       __printf_p_l               10141560 f   LIBCMTD:printf.obj
 0001:00140590       __printf_s_l               10141590 f   LIBCMTD:printf.obj
 0001:001405c0       __set_printf_count_output  101415c0 f   LIBCMTD:printf.obj
 0001:00140620       _printf                    10141620 f   LIBCMTD:printf.obj
 0001:00140790       _printf_s                  10141790 f   LIBCMTD:printf.obj
 0001:001407b0       __wctomb_l                 101417b0 f   LIBCMTD:wctomb.obj
 0001:00140830       __wctomb_s_l               10141830 f   LIBCMTD:wctomb.obj
 0001:00140b80       _wctomb                    10141b80 f   LIBCMTD:wctomb.obj
 0001:00140bd0       _wctomb_s                  10141bd0 f   LIBCMTD:wctomb.obj
 0001:00140bf0       __getbuf                   10141bf0 f   LIBCMTD:_getbuf.obj
 0001:00140cc0       __CopyMan                  10141cc0 f i LIBCMTD:intrncvt.obj
 0001:00140d10       __FillZeroMan              10141d10 f i LIBCMTD:intrncvt.obj
 0001:00140d40       __IncMan                   10141d40 f i LIBCMTD:intrncvt.obj
 0001:00140df0       __IsZeroMan                10141df0 f i LIBCMTD:intrncvt.obj
 0001:00140e30       __RoundMan                 10141e30 f i LIBCMTD:intrncvt.obj
 0001:00140f10       __ShrMan                   10141f10 f i LIBCMTD:intrncvt.obj
 0001:00141000       __ZeroTail                 10142000 f i LIBCMTD:intrncvt.obj
 0001:00141090       ___addl                    10142090 f i LIBCMTD:intrncvt.obj
 0001:001410d0       __ld12cvt                  101420d0 f i LIBCMTD:intrncvt.obj
 0001:00141390       __ld12tod                  10142390 f   LIBCMTD:intrncvt.obj
 0001:001413b0       __ld12tof                  101423b0 f   LIBCMTD:intrncvt.obj
 0001:001413d0       __ld12told                 101423d0 f   LIBCMTD:intrncvt.obj
 0001:001414d0       ___STRINGTOLD_L            101424d0 f   LIBCMTD:strgtold.obj
 0001:00141540       ___ld12mul                 10142540 f i LIBCMTD:strgtold.obj
 0001:00141950       ___multtenpow12            10142950 f i LIBCMTD:strgtold.obj
 0001:00141a30       ___shl_12                  10142a30 f i LIBCMTD:strgtold.obj
 0001:00141ab0       ___shr_12                  10142ab0 f i LIBCMTD:strgtold.obj
 0001:00141b30       ___strgtold12_l            10142b30 f   LIBCMTD:strgtold.obj
 0001:00142600       ___free_lconv_mon          10143600 f   LIBCMTD:initmon.obj
 0001:001427b0       ___init_monetary           101437b0 f   LIBCMTD:initmon.obj
 0001:00142dc0       ___free_lconv_num          10143dc0 f   LIBCMTD:initnum.obj
 0001:00142e70       ___init_numeric            10143e70 f   LIBCMTD:initnum.obj
 0001:00143240       ___free_lc_time            10144240 f   LIBCMTD:inittime.obj
 0001:00143b70       ___init_time               10144b70 f   LIBCMTD:inittime.obj
 0001:00144b70       _localeconv                10145b70 f   LIBCMTD:lconv.obj
 0001:00144eb0       ___crtLCMapStringA         10145eb0 f   LIBCMTD:a_map.obj
 0001:00145020       ___crtGetStringTypeA       10146020 f   LIBCMTD:a_str.obj
 0001:00145070       ___pctype_func             10146070 f   LIBCMTD:ctype.obj
 0001:001450c0       ___pwctype_func            101460c0 f   LIBCMTD:ctype.obj
 0001:001450d0       ___init_collate            101460d0 f   LIBCMTD:initcoll.obj
 0001:001450e0       ____lc_codepage_func       101460e0 f   LIBCMTD:initctyp.obj
 0001:00145130       ____lc_collate_cp_func     10146130 f   LIBCMTD:initctyp.obj
 0001:00145180       ____lc_locale_name_func    10146180 f   LIBCMTD:initctyp.obj
 0001:001451d0       ____mb_cur_max_func        101461d0 f   LIBCMTD:initctyp.obj
 0001:00145220       ____mb_cur_max_l_func      10146220 f   LIBCMTD:initctyp.obj
 0001:00145250       ___init_ctype              10146250 f   LIBCMTD:initctyp.obj
 0001:00145890       _wcscmp                    10146890 f   LIBCMTD:wcscmp.obj
 0001:001458f0       _wcscspn                   101468f0 f   LIBCMTD:wcscspn.obj
 0001:00145960       _wcsnlen                   10146960 f   LIBCMTD:wcslen_s.obj
 0001:001459a0       _wcsncmp                   101469a0 f   LIBCMTD:wcsncmp.obj
 0001:00145a00       _wcspbrk                   10146a00 f   LIBCMTD:wcspbrk.obj
 0001:001465a0       ___get_qualified_locale    101475a0 f   LIBCMTD:getqloc.obj
 0001:00146850       ___vswprintf_l             10147850 f   LIBCMTD:vswprint.obj
 0001:00146870       __vscwprintf               10147870 f   LIBCMTD:vswprint.obj
 0001:00146890       __vscwprintf_helper        10147890 f   LIBCMTD:vswprint.obj
 0001:00146980       __vscwprintf_l             10147980 f   LIBCMTD:vswprint.obj
 0001:001469a0       __vscwprintf_p             101479a0 f   LIBCMTD:vswprint.obj
 0001:001469c0       __vscwprintf_p_l           101479c0 f   LIBCMTD:vswprint.obj
 0001:001469e0       __vswprintf                101479e0 f   LIBCMTD:vswprint.obj
 0001:00146a00       __vswprintf_l              10147a00 f   LIBCMTD:vswprint.obj
 0001:00146c20       __vsnwprintf_s             10147c20 f   LIBCMTD:vswprnc.obj
 0001:00146c50       __vsnwprintf_s_l           10147c50 f   LIBCMTD:vswprnc.obj
 0001:00147030       __vswprintf_c              10148030 f   LIBCMTD:vswprnc.obj
 0001:00147080       __vswprintf_c_l            10148080 f   LIBCMTD:vswprnc.obj
 0001:001470d0       __vswprintf_helper         101480d0 f   LIBCMTD:vswprnc.obj
 0001:00147340       __vswprintf_p              10148340 f   LIBCMTD:vswprnc.obj
 0001:00147390       __vswprintf_p_l            10148390 f   LIBCMTD:vswprnc.obj
 0001:001473e0       __vswprintf_s_l            101483e0 f   LIBCMTD:vswprnc.obj
 0001:00147670       _vswprintf_s               10148670 f   LIBCMTD:vswprnc.obj
 0001:00147690       __woutput_l                10148690 f   LIBCMTD:woutput.obj
 0001:00148c90       _strcat_s                  10149c90 f   LIBCMTD:strcat_s.obj
 0001:001494c0       __i64toa_s                 1014a4c0 f   LIBCMTD:xtoas.obj
 0001:00149510       __itoa_s                   1014a510 f   LIBCMTD:xtoas.obj
 0001:00149570       __ltoa_s                   1014a570 f   LIBCMTD:xtoas.obj
 0001:001495b0       __ui64toa_s                1014a5b0 f   LIBCMTD:xtoas.obj
 0001:001495d0       __ultoa_s                  1014a5d0 f   LIBCMTD:xtoas.obj
 0001:001499d0       __mbstowcs_l               1014a9d0 f   LIBCMTD:mbstowcs.obj
 0001:001499f0       __mbstowcs_l_helper        1014a9f0 f   LIBCMTD:mbstowcs.obj
 0001:00149d80       __mbstowcs_s_l             1014ad80 f   LIBCMTD:mbstowcs.obj
 0001:0014a140       _mbstowcs                  1014b140 f   LIBCMTD:mbstowcs.obj
 0001:0014a190       _mbstowcs_s                1014b190 f   LIBCMTD:mbstowcs.obj
 0001:0014a220       __wcstombs_l               1014b220 f   LIBCMTD:wcstombs.obj
 0001:0014a240       __wcstombs_l_helper        1014b240 f   LIBCMTD:wcstombs.obj
 0001:0014a750       __wcstombs_s_l             1014b750 f   LIBCMTD:wcstombs.obj
 0001:0014aab0       _wcstombs                  1014bab0 f   LIBCMTD:wcstombs.obj
 0001:0014aad0       _wcstombs_s                1014bad0 f   LIBCMTD:wcstombs.obj
 0001:0014af40       __i64tow_s                 1014bf40 f   LIBCMTD:xtows.obj
 0001:0014af90       __itow_s                   1014bf90 f   LIBCMTD:xtows.obj
 0001:0014aff0       __ltow_s                   1014bff0 f   LIBCMTD:xtows.obj
 0001:0014b030       __ui64tow_s                1014c030 f   LIBCMTD:xtows.obj
 0001:0014b050       __ultow_s                  1014c050 f   LIBCMTD:xtows.obj
 0001:0014b470       __dupenv_s                 1014c470 f   LIBCMTD:getenv.obj
 0001:0014b490       __dupenv_s_dbg             1014c490 f   LIBCMTD:getenv.obj
 0001:0014b710       __getenv_helper_nolock     1014c710 f   LIBCMTD:getenv.obj
 0001:0014b9e0       _getenv                    1014c9e0 f   LIBCMTD:getenv.obj
 0001:0014bb60       _getenv_s                  1014cb60 f   LIBCMTD:getenv.obj
 0001:0014bbf0       __wmakepath_s              1014cbf0 f   LIBCMTD:wmakepath_s.obj
 0001:0014bfb0       __wsplitpath_s             1014cfb0 f   LIBCMTD:wsplitpath_s.obj
 0001:0014c6b0       __ismbbalnum               1014d6b0 f   LIBCMTD:ismbbyte.obj
 0001:0014c6d0       __ismbbalnum_l             1014d6d0 f   LIBCMTD:ismbbyte.obj
 0001:0014c6f0       __ismbbalpha               1014d6f0 f   LIBCMTD:ismbbyte.obj
 0001:0014c710       __ismbbalpha_l             1014d710 f   LIBCMTD:ismbbyte.obj
 0001:0014c730       __ismbbgraph               1014d730 f   LIBCMTD:ismbbyte.obj
 0001:0014c750       __ismbbgraph_l             1014d750 f   LIBCMTD:ismbbyte.obj
 0001:0014c770       __ismbbkalnum              1014d770 f   LIBCMTD:ismbbyte.obj
 0001:0014c790       __ismbbkalnum_l            1014d790 f   LIBCMTD:ismbbyte.obj
 0001:0014c7b0       __ismbbkana                1014d7b0 f   LIBCMTD:ismbbyte.obj
 0001:0014c7d0       __ismbbkana_l              1014d7d0 f   LIBCMTD:ismbbyte.obj
 0001:0014c840       __ismbbkprint              1014d840 f   LIBCMTD:ismbbyte.obj
 0001:0014c860       __ismbbkprint_l            1014d860 f   LIBCMTD:ismbbyte.obj
 0001:0014c880       __ismbbkpunct              1014d880 f   LIBCMTD:ismbbyte.obj
 0001:0014c8a0       __ismbbkpunct_l            1014d8a0 f   LIBCMTD:ismbbyte.obj
 0001:0014c8c0       __ismbblead                1014d8c0 f   LIBCMTD:ismbbyte.obj
 0001:0014c8e0       __ismbblead_l              1014d8e0 f   LIBCMTD:ismbbyte.obj
 0001:0014c900       __ismbbprint               1014d900 f   LIBCMTD:ismbbyte.obj
 0001:0014c920       __ismbbprint_l             1014d920 f   LIBCMTD:ismbbyte.obj
 0001:0014c940       __ismbbpunct               1014d940 f   LIBCMTD:ismbbyte.obj
 0001:0014c960       __ismbbpunct_l             1014d960 f   LIBCMTD:ismbbyte.obj
 0001:0014c980       __ismbbtrail               1014d980 f   LIBCMTD:ismbbyte.obj
 0001:0014c9a0       __ismbbtrail_l             1014d9a0 f   LIBCMTD:ismbbyte.obj
 0001:0014c9c0       _$I10_OUTPUT               1014d9c0 f   LIBCMTD:x10fout.obj
 0001:0014cfd0       ___add_12                  1014dfd0 f i LIBCMTD:x10fout.obj
 0001:0014d280       ___control87_2             1014e280 f   LIBCMTD:ieee87.obj
 0001:0014d720       __clearfp                  1014e720 f   LIBCMTD:ieee87.obj
 0001:0014d760       __control87                1014e760 f i LIBCMTD:ieee87.obj
 0001:0014d810       __controlfp                1014e810 f   LIBCMTD:ieee87.obj
 0001:0014d830       __fpreset                  1014e830 f   LIBCMTD:ieee87.obj
 0001:0014d9f0       __set_controlfp            1014e9f0 f   LIBCMTD:ieee87.obj
 0001:0014da80       __statusfp                 1014ea80 f   LIBCMTD:ieee87.obj
 0001:0014dac0       __statusfp2                1014eac0 f   LIBCMTD:ieee87.obj
 0001:0014db00       __iswctype_l               1014eb00 f   LIBCMTD:iswctype.obj
 0001:0014db20       _is_wctype                 1014eb20 f   LIBCMTD:iswctype.obj
 0001:0014db40       _iswctype                  1014eb40 f   LIBCMTD:iswctype.obj
 0001:0014dba0       ___termconout              1014eba0 f   LIBCMTD:initcon.obj
 0001:0014dbd0       ___initconout              1014ebd0 f   LIBCMTD:initcon.obj
 0001:0014dcb0       __wopen                    1014ecb0 f   LIBCMTD:wopen.obj
 0001:0014de40       __wsopen                   1014ee40 f   LIBCMTD:wopen.obj
 0001:0014deb0       __wsopen_helper            1014eeb0 f   LIBCMTD:wopen.obj
 0001:0014e140       __wsopen_nolock            1014f140 f   LIBCMTD:wopen.obj
 0001:0014f1e0       __wsopen_s                 101501e0 f   LIBCMTD:wopen.obj
 0001:0014f210       __strnicmp                 10150210 f   LIBCMTD:strnicmp.obj
 0001:0014f3e0       __strnicmp_l               101503e0 f   LIBCMTD:strnicmp.obj
 0001:0014f670       __vprintf_l                10150670 f   LIBCMTD:vprintf.obj
 0001:0014f690       __vprintf_p                10150690 f   LIBCMTD:vprintf.obj
 0001:0014f6b0       __vprintf_p_l              101506b0 f   LIBCMTD:vprintf.obj
 0001:0014f6d0       __vprintf_s_l              101506d0 f   LIBCMTD:vprintf.obj
 0001:0014f6f0       _vprintf                   101506f0 f   LIBCMTD:vprintf.obj
 0001:0014f710       _vprintf_helper            10150710 f   LIBCMTD:vprintf.obj
 0001:0014f850       _vprintf_s                 10150850 f   LIBCMTD:vprintf.obj
 0001:0014f870       ___mtold12                 10150870 f   LIBCMTD:mantold.obj
 0001:0014f9c0       __wtoi                     101509c0 f   LIBCMTD:wtox.obj
 0001:0014f9e0       __wtoi64                   101509e0 f   LIBCMTD:wtox.obj
 0001:0014fa00       __wtoi64_l                 10150a00 f   LIBCMTD:wtox.obj
 0001:0014fa20       __wtoi_l                   10150a20 f   LIBCMTD:wtox.obj
 0001:0014fa40       __wtol                     10150a40 f   LIBCMTD:wtox.obj
 0001:0014fa60       __wtol_l                   10150a60 f   LIBCMTD:wtox.obj
 0001:0014fa80       _wcschr                    10150a80 f   LIBCMTD:wcschr.obj
 0001:0014fc00       __wcsicmp                  10150c00 f   LIBCMTD:wcsicmp.obj
 0001:0014fdd0       __wcsicmp_l                10150dd0 f   LIBCMTD:wcsicmp.obj
 0001:00150040       __wcsnicmp                 10151040 f   LIBCMTD:wcsnicmp.obj
 0001:00150230       __wcsnicmp_l               10151230 f   LIBCMTD:wcsnicmp.obj
 0001:00150490       __validate_param_reuseW    10151490 f   LIBCMTD:woutputp.obj
 0001:00150770       __woutput_p_l              10151770 f   LIBCMTD:woutputp.obj
 0001:00154290       __woutput_s_l              10155290 f   LIBCMTD:woutputs.obj
 0001:00155a00       __fputwc_nolock            10156a00 f   LIBCMTD:fputwc.obj
 0001:00155cf0       _fputwc                    10156cf0 f   LIBCMTD:fputwc.obj
 0001:00155e10       _putwc                     10156e10 f   LIBCMTD:fputwc.obj
 0001:00155e30       _strnlen                   10156e30 f   LIBCMTD:strlen_s.obj
 0001:00155e70       ___wtomb_environ           10156e70 f   LIBCMTD:wtombenv.obj
 0001:00155f60       __mbsnbicoll               10156f60 f   LIBCMTD:mbsnbico.obj
 0001:00155f80       __mbsnbicoll_l             10156f80 f   LIBCMTD:mbsnbico.obj
 0001:00156200       ___clrfp_sse2              10157200 f   LIBCMTD:fpctrl.obj
 0001:00156240       ___ctrlfp_sse2             10157240 f   LIBCMTD:fpctrl.obj
 0001:001562a0       ___fclrf_sse2              101572a0 f   LIBCMTD:fpctrl.obj
 0001:001562c0       ___get_fpsr_sse2           101572c0 f   LIBCMTD:fpctrl.obj
 0001:001562f0       ___set_fpsr_sse2           101572f0 f   LIBCMTD:fpctrl.obj
 0001:001563d0       ___set_statfp_sse2         101573d0 f   LIBCMTD:fpctrl.obj
 0001:00156400       ___statfp_sse2             10157400 f   LIBCMTD:fpctrl.obj
 0001:00156430       __clrfp                    10157430 f   LIBCMTD:fpctrl.obj
 0001:00156450       __ctrlfp                   10157450 f   LIBCMTD:fpctrl.obj
 0001:00156480       __set_statfp               10157480 f   LIBCMTD:fpctrl.obj
 0001:001564f0       __statfp                   101574f0 f   LIBCMTD:fpctrl.obj
 0001:00156500       __chsize                   10157500 f   LIBCMTD:chsize.obj
 0001:00156540       __chsize_nolock            10157540 f   LIBCMTD:chsize.obj
 0001:001567f0       __chsize_s                 101577f0 f   LIBCMTD:chsize.obj
 0001:00156ad0       __get_fmode                10157ad0 f   LIBCMTD:setmode.obj
 0001:00156b70       __set_fmode                10157b70 f   LIBCMTD:setmode.obj
 0001:00156c20       __setmode                  10157c20 f   LIBCMTD:setmode.obj
 0001:00156ef0       __setmode_nolock           10157ef0 f   LIBCMTD:setmode.obj
 0001:00157160       ___ascii_strnicmp          10158160 f   LIBCMTD:_strnicm.obj
 0001:00157590       __wcstol_l                 10158590 f   LIBCMTD:wcstol.obj
 0001:001575b0       __wcstoul_l                101585b0 f   LIBCMTD:wcstol.obj
 0001:001575d0       _wcstol                    101585d0 f   LIBCMTD:wcstol.obj
 0001:001575f0       _wcstoul                   101585f0 f   LIBCMTD:wcstol.obj
 0001:00157b60       __wcstoi64                 10158b60 f   LIBCMTD:wcstoq.obj
 0001:00157bb0       __wcstoi64_l               10158bb0 f   LIBCMTD:wcstoq.obj
 0001:00157bd0       __wcstoui64                10158bd0 f   LIBCMTD:wcstoq.obj
 0001:00157c20       __wcstoui64_l              10158c20 f   LIBCMTD:wcstoq.obj
 0001:00157c40       __towlower_l               10158c40 f   LIBCMTD:towlower.obj
 0001:00157d90       _towlower                  10158d90 f   LIBCMTD:towlower.obj
 0001:00157db0       __flswbuf                  10158db0 f   LIBCMTD:_flswbuf.obj
 0001:001580b0       ___crtsetenv               101590b0 f   LIBCMTD:setenv.obj
 0001:00158780       __strnicoll                10159780 f   LIBCMTD:strnicol.obj
 0001:001587c0       __strnicoll_l              101597c0 f   LIBCMTD:strnicol.obj
 0001:00158ea0       ___crtCompareStringA       10159ea0 f   LIBCMTD:a_cmp.obj
 0001:00158f00       __wchartodigit             10159f00 f   LIBCMTD:wchtodig.obj
 0001:00159220       ___crtLCMapStringW         1015a220 f   LIBCMTD:w_map.obj
 0001:00159260       __mbschr                   1015a260 f   LIBCMTD:mbschr.obj
 0001:00159280       __mbschr_l                 1015a280 f   LIBCMTD:mbschr.obj
 0001:0015941a       _inet_ntoa@4               1015a41a f   ws2_32:WS2_32.dll
 0001:00159420       _gethostbyname@4           1015a420 f   ws2_32:WS2_32.dll
 0001:00159426       _gethostname@8             1015a426 f   ws2_32:WS2_32.dll
 0001:0015942c       _WSAStartup@8              1015a42c f   ws2_32:WS2_32.dll
 0001:00159432       _WSACleanup@0              1015a432 f   ws2_32:WS2_32.dll
 0001:00159438       _accept@12                 1015a438 f   ws2_32:WS2_32.dll
 0001:0015943e       _bind@12                   1015a43e f   ws2_32:WS2_32.dll
 0001:00159444       _closesocket@4             1015a444 f   ws2_32:WS2_32.dll
 0001:0015944a       _htonl@4                   1015a44a f   ws2_32:WS2_32.dll
 0001:00159450       _htons@4                   1015a450 f   ws2_32:WS2_32.dll
 0001:00159456       _listen@8                  1015a456 f   ws2_32:WS2_32.dll
 0001:0015945c       _recv@16                   1015a45c f   ws2_32:WS2_32.dll
 0001:00159462       _send@16                   1015a462 f   ws2_32:WS2_32.dll
 0001:00159468       _socket@12                 1015a468 f   ws2_32:WS2_32.dll
 0001:0015946e       _WSAGetLastError@0         1015a46e f   ws2_32:WS2_32.dll
 0001:00159474       _InterlockedIncrement@4    1015a474 f   kernel32:KERNEL32.dll
 0001:0015947a       _InterlockedDecrement@4    1015a47a f   kernel32:KERNEL32.dll
 0001:00159480       _InitializeCriticalSectionEx@12 1015a480 f   kernel32:KERNEL32.dll
 0001:00159486       _InterlockedExchange@8     1015a486 f   kernel32:KERNEL32.dll
 0001:0015948c       _EncodePointer@4           1015a48c f   kernel32:KERNEL32.dll
 0001:00159492       _DecodePointer@4           1015a492 f   kernel32:KERNEL32.dll
 0001:00159498       _RaiseException@16         1015a498 f   kernel32:KERNEL32.dll
 0001:0015949e       _RtlUnwind@16              1015a49e f   kernel32:KERNEL32.dll
 0001:001594a4       _IsDebuggerPresent@0       1015a4a4 f   kernel32:KERNEL32.dll
 0001:001594aa       _IsProcessorFeaturePresent@4 1015a4aa f   kernel32:KERNEL32.dll
 0001:001594b0       _GetModuleFileNameW@12     1015a4b0 f   kernel32:KERNEL32.dll
 0001:001594b6       _GetModuleHandleExW@12     1015a4b6 f   kernel32:KERNEL32.dll
 0001:001594bc       _CreateThread@24           1015a4bc f   kernel32:KERNEL32.dll
 0001:001594c2       _ExitThread@4              1015a4c2 f   kernel32:KERNEL32.dll
 0001:001594c8       _ResumeThread@4            1015a4c8 f   kernel32:KERNEL32.dll
 0001:001594ce       _LoadLibraryExW@12         1015a4ce f   kernel32:KERNEL32.dll
 0001:001594d4       _lstrlenA@4                1015a4d4 f   kernel32:KERNEL32.dll
 0001:001594da       _GetCommandLineA@0         1015a4da f   kernel32:KERNEL32.dll
 0001:001594e0       _InitializeCriticalSectionAndSpinCount@8 1015a4e0 f   kernel32:KERNEL32.dll
 0001:001594e6       _FatalAppExitA@8           1015a4e6 f   kernel32:KERNEL32.dll
 0001:001594ec       _GetStdHandle@4            1015a4ec f   kernel32:KERNEL32.dll
 0001:001594f2       _ExitProcess@4             1015a4f2 f   kernel32:KERNEL32.dll
 0001:001594f8       _SetLastError@4            1015a4f8 f   kernel32:KERNEL32.dll
 0001:001594fe       _GetCurrentThread@0        1015a4fe f   kernel32:KERNEL32.dll
 0001:00159504       _GetConsoleCP@0            1015a504 f   kernel32:KERNEL32.dll
 0001:0015950a       _GetConsoleMode@8          1015a50a f   kernel32:KERNEL32.dll
 0001:00159510       _GetFileType@4             1015a510 f   kernel32:KERNEL32.dll
 0001:00159516       _InitOnceExecuteOnce@16    1015a516 f   kernel32:KERNEL32.dll
 0001:0015951c       _GetStartupInfoW@4         1015a51c f   kernel32:KERNEL32.dll
 0001:00159522       _ReadConsoleW@20           1015a522 f   kernel32:KERNEL32.dll
 0001:00159528       _SetStdHandle@8            1015a528 f   kernel32:KERNEL32.dll
 0001:0015952e       _UnhandledExceptionFilter@4 1015a52e f   kernel32:KERNEL32.dll
 0001:00159534       _SetUnhandledExceptionFilter@4 1015a534 f   kernel32:KERNEL32.dll
 0001:0015953a       _FlsAlloc@4                1015a53a f   kernel32:KERNEL32.dll
 0001:00159540       _FlsGetValue@4             1015a540 f   kernel32:KERNEL32.dll
 0001:00159546       _FlsSetValue@8             1015a546 f   kernel32:KERNEL32.dll
 0001:0015954c       _FlsFree@4                 1015a54c f   kernel32:KERNEL32.dll
 0001:00159552       _GetCurrentProcess@0       1015a552 f   kernel32:KERNEL32.dll
 0001:00159558       _TerminateProcess@8        1015a558 f   kernel32:KERNEL32.dll
 0001:0015955e       _GetModuleHandleW@4        1015a55e f   kernel32:KERNEL32.dll
 0001:00159564       _IsValidCodePage@4         1015a564 f   kernel32:KERNEL32.dll
 0001:0015956a       _GetACP@0                  1015a56a f   kernel32:KERNEL32.dll
 0001:00159570       _GetOEMCP@0                1015a570 f   kernel32:KERNEL32.dll
 0001:00159576       _GetCPInfo@8               1015a576 f   kernel32:KERNEL32.dll
 0001:0015957c       _SetConsoleCtrlHandler@8   1015a57c f   kernel32:KERNEL32.dll
 0001:00159582       _WriteConsoleW@20          1015a582 f   kernel32:KERNEL32.dll
 0001:00159588       _HeapQueryInformation@20   1015a588 f   kernel32:KERNEL32.dll
 0001:0015958e       _GetTimeZoneInformation@4  1015a58e f   kernel32:KERNEL32.dll
 0001:00159594       _VirtualQuery@12           1015a594 f   kernel32:KERNEL32.dll
 0001:0015959a       _GetTickCount64@0          1015a59a f   kernel32:KERNEL32.dll
 0001:001595a0       _GetEnvironmentStringsW@0  1015a5a0 f   kernel32:KERNEL32.dll
 0001:001595a6       _FreeEnvironmentStringsW@4 1015a5a6 f   kernel32:KERNEL32.dll
 0001:001595ac       _GetTimeFormatEx@24        1015a5ac f   kernel32:KERNEL32.dll
 0001:001595b2       _GetDateFormatEx@28        1015a5b2 f   kernel32:KERNEL32.dll
 0001:001595b8       _CompareStringEx@36        1015a5b8 f   kernel32:KERNEL32.dll
 0001:001595be       _GetLocaleInfoEx@16        1015a5be f   kernel32:KERNEL32.dll
 0001:001595c4       _GetUserDefaultLocaleName@8 1015a5c4 f   kernel32:KERNEL32.dll
 0001:001595ca       _LCMapStringEx@36          1015a5ca f   kernel32:KERNEL32.dll
 0001:001595d0       _IsValidLocaleName@4       1015a5d0 f   kernel32:KERNEL32.dll
 0001:001595d6       _EnumSystemLocalesEx@16    1015a5d6 f   kernel32:KERNEL32.dll
 0001:001595dc       _SetFilePointerEx@20       1015a5dc f   kernel32:KERNEL32.dll
 0001:001595e2       _GetStringTypeW@16         1015a5e2 f   kernel32:KERNEL32.dll
 0001:001595e8       _SetEnvironmentVariableA@8 1015a5e8 f   kernel32:KERNEL32.dll
 0002:00000000       ___xc_a                    1017a000     LIBCMTD:crt0init.obj
 0002:000003cc       ___xc_z                    1017a3cc     LIBCMTD:crt0init.obj
 0002:000004d0       ___xi_a                    1017a4d0     LIBCMTD:crt0init.obj
 0002:000006e8       ___xi_z                    1017a6e8     LIBCMTD:crt0init.obj
 0002:000007ec       ___xp_a                    1017a7ec     LIBCMTD:crt0init.obj
 0002:00000b00       ___xp_z                    1017ab00     LIBCMTD:crt0init.obj
 0002:00000c04       ___xt_a                    1017ac04     LIBCMTD:crt0init.obj
 0002:00000d08       ___xt_z                    1017ad08     LIBCMTD:crt0init.obj
 0002:00000e48       ?adjustfield@?$_Iosb@H@std@@2W4_Fmtflags@12@B 1017ae48     common.obj
 0002:00000e4c       ?value@?$integral_constant@I$0A@@std@@2IB 1017ae4c     common.obj
 0002:00000e50       ?basefield@?$_Iosb@H@std@@2W4_Fmtflags@12@B 1017ae50     common.obj
 0002:00000e54       ?floatfield@?$_Iosb@H@std@@2W4_Fmtflags@12@B 1017ae54     common.obj
 0002:00000e58       ?goodbit@?$_Iosb@H@std@@2W4_Iostate@12@B 1017ae58     common.obj
 0002:00000e5c       ?eofbit@?$_Iosb@H@std@@2W4_Iostate@12@B 1017ae5c     common.obj
 0002:00000e60       ?failbit@?$_Iosb@H@std@@2W4_Iostate@12@B 1017ae60     common.obj
 0002:00000e64       ?badbit@?$_Iosb@H@std@@2W4_Iostate@12@B 1017ae64     common.obj
 0002:00000e68       ?digits@?$numeric_limits@M@std@@2HB 1017ae68     common.obj
 0002:00000e6c       ?_Hardfail@?$_Iosb@H@std@@2W4_Iostate@12@B 1017ae6c     common.obj
 0002:00000e70       ?digits10@?$numeric_limits@M@std@@2HB 1017ae70     common.obj
 0002:00000e74       ?max_digits10@?$numeric_limits@M@std@@2HB 1017ae74     common.obj
 0002:00000e78       ?in@?$_Iosb@H@std@@2W4_Openmode@12@B 1017ae78     common.obj
 0002:00000e7c       ?out@?$_Iosb@H@std@@2W4_Openmode@12@B 1017ae7c     common.obj
 0002:00000e80       ?max_exponent@?$numeric_limits@M@std@@2HB 1017ae80     common.obj
 0002:00000e84       ?ate@?$_Iosb@H@std@@2W4_Openmode@12@B 1017ae84     common.obj
 0002:00000e88       ?max_exponent10@?$numeric_limits@M@std@@2HB 1017ae88     common.obj
 0002:00000e8c       ?app@?$_Iosb@H@std@@2W4_Openmode@12@B 1017ae8c     common.obj
 0002:00000e90       ?min_exponent@?$numeric_limits@M@std@@2HB 1017ae90     common.obj
 0002:00000e94       ?trunc@?$_Iosb@H@std@@2W4_Openmode@12@B 1017ae94     common.obj
 0002:00000e98       ?_Nocreate@?$_Iosb@H@std@@2W4_Openmode@12@B 1017ae98     common.obj
 0002:00000e9c       ?min_exponent10@?$numeric_limits@M@std@@2HB 1017ae9c     common.obj
 0002:00000ea0       ?_Noreplace@?$_Iosb@H@std@@2W4_Openmode@12@B 1017aea0     common.obj
 0002:00000ea4       ?binary@?$_Iosb@H@std@@2W4_Openmode@12@B 1017aea4     common.obj
 0002:00000ea8       ?beg@?$_Iosb@H@std@@2W4_Seekdir@12@B 1017aea8     common.obj
 0002:00000eac       ?cur@?$_Iosb@H@std@@2W4_Seekdir@12@B 1017aeac     common.obj
 0002:00000eb0       ?end@?$_Iosb@H@std@@2W4_Seekdir@12@B 1017aeb0     common.obj
 0002:00000eb4       ?digits@?$numeric_limits@N@std@@2HB 1017aeb4     common.obj
 0002:00000eb8       ?digits10@?$numeric_limits@N@std@@2HB 1017aeb8     common.obj
 0002:00000ebc       ?max_digits10@?$numeric_limits@N@std@@2HB 1017aebc     common.obj
 0002:00000ec0       ?max_exponent@?$numeric_limits@N@std@@2HB 1017aec0     common.obj
 0002:00000ec4       ?max_exponent10@?$numeric_limits@N@std@@2HB 1017aec4     common.obj
 0002:00000ec8       ?_Stream_err@failure@ios_base@std@@0W4io_errc@43@B 1017aec8     common.obj
 0002:00000ecc       ?min_exponent@?$numeric_limits@N@std@@2HB 1017aecc     common.obj
 0002:00000ed0       ?min_exponent10@?$numeric_limits@N@std@@2HB 1017aed0     common.obj
 0002:00000ed4       ?digits@?$numeric_limits@O@std@@2HB 1017aed4     common.obj
 0002:00000ed8       ?digits10@?$numeric_limits@O@std@@2HB 1017aed8     common.obj
 0002:00000edc       ?max_digits10@?$numeric_limits@O@std@@2HB 1017aedc     common.obj
 0002:00000ee0       ?max_exponent@?$numeric_limits@O@std@@2HB 1017aee0     common.obj
 0002:00000ee4       ?max_exponent10@?$numeric_limits@O@std@@2HB 1017aee4     common.obj
 0002:00000ee8       ?min_exponent@?$numeric_limits@O@std@@2HB 1017aee8     common.obj
 0002:00000eec       ?min_exponent10@?$numeric_limits@O@std@@2HB 1017aeec     common.obj
 0002:00000ef0       ?collate@?$_Locbase@H@std@@2HB 1017aef0     common.obj
 0002:00000ef4       ?ctype@?$_Locbase@H@std@@2HB 1017aef4     common.obj
 0002:00000ef8       ?monetary@?$_Locbase@H@std@@2HB 1017aef8     common.obj
 0002:00000efc       ?numeric@?$_Locbase@H@std@@2HB 1017aefc     common.obj
 0002:00000f00       ?time@?$_Locbase@H@std@@2HB 1017af00     common.obj
 0002:00000f04       ?messages@?$_Locbase@H@std@@2HB 1017af04     common.obj
 0002:00000f08       ?all@?$_Locbase@H@std@@2HB 1017af08     common.obj
 0002:00000f0c       ?none@?$_Locbase@H@std@@2HB 1017af0c     common.obj
 0002:00000f10       ?value@?$integral_constant@_N$0A@@std@@2_NB 1017af10     common.obj
 0002:00000f11       ?value@?$integral_constant@_N$00@std@@2_NB 1017af11     common.obj
 0002:00000f14       ?value@?$_Sizeof@U_Nil@std@@U12@U12@U12@U12@U12@U12@U12@@std@@2IB 1017af14     common.obj
 0002:00000f18       ?has_denorm@_Num_base@std@@2W4float_denorm_style@2@B 1017af18     common.obj
 0002:00000f1c       ?has_denorm_loss@_Num_base@std@@2_NB 1017af1c     common.obj
 0002:00000f1d       ?has_infinity@_Num_base@std@@2_NB 1017af1d     common.obj
 0002:00000f1e       ?has_quiet_NaN@_Num_base@std@@2_NB 1017af1e     common.obj
 0002:00000f1f       ?has_signaling_NaN@_Num_base@std@@2_NB 1017af1f     common.obj
 0002:00000f20       ?is_bounded@_Num_base@std@@2_NB 1017af20     common.obj
 0002:00000f21       ?is_exact@_Num_base@std@@2_NB 1017af21     common.obj
 0002:00000f22       ?is_iec559@_Num_base@std@@2_NB 1017af22     common.obj
 0002:00000f23       ?is_integer@_Num_base@std@@2_NB 1017af23     common.obj
 0002:00000f24       ?is_modulo@_Num_base@std@@2_NB 1017af24     common.obj
 0002:00000f25       ?is_signed@_Num_base@std@@2_NB 1017af25     common.obj
 0002:00000f26       ?is_specialized@_Num_base@std@@2_NB 1017af26     common.obj
 0002:00000f27       ?tinyness_before@_Num_base@std@@2_NB 1017af27     common.obj
 0002:00000f28       ?traps@_Num_base@std@@2_NB 1017af28     common.obj
 0002:00000f2c       ?round_style@_Num_base@std@@2W4float_round_style@2@B 1017af2c     common.obj
 0002:00000f30       ?digits@_Num_base@std@@2HB 1017af30     common.obj
 0002:00000f34       ?digits10@_Num_base@std@@2HB 1017af34     common.obj
 0002:00000f38       ?table_size@?$ctype@D@std@@2IB 1017af38     common.obj
 0002:00000f3c       ?max_digits10@_Num_base@std@@2HB 1017af3c     common.obj
 0002:00000f40       ?max_exponent@_Num_base@std@@2HB 1017af40     common.obj
 0002:00000f44       ?max_exponent10@_Num_base@std@@2HB 1017af44     common.obj
 0002:00000f48       ?min_exponent@_Num_base@std@@2HB 1017af48     common.obj
 0002:00000f4c       ?min_exponent10@_Num_base@std@@2HB 1017af4c     common.obj
 0002:00000f50       ?radix@_Num_base@std@@2HB  1017af50     common.obj
 0002:00000f54       ?is_bounded@_Num_int_base@std@@2_NB 1017af54     common.obj
 0002:00000f55       ?is_exact@_Num_int_base@std@@2_NB 1017af55     common.obj
 0002:00000f56       ?is_integer@_Num_int_base@std@@2_NB 1017af56     common.obj
 0002:00000f57       ?is_modulo@_Num_int_base@std@@2_NB 1017af57     common.obj
 0002:00000f58       ?is_specialized@_Num_int_base@std@@2_NB 1017af58     common.obj
 0002:00000f5c       ?radix@_Num_int_base@std@@2HB 1017af5c     common.obj
 0002:00000f60       ?has_denorm@_Num_float_base@std@@2W4float_denorm_style@2@B 1017af60     common.obj
 0002:00000f64       ?has_denorm_loss@_Num_float_base@std@@2_NB 1017af64     common.obj
 0002:00000f65       ?has_infinity@_Num_float_base@std@@2_NB 1017af65     common.obj
 0002:00000f66       ?has_quiet_NaN@_Num_float_base@std@@2_NB 1017af66     common.obj
 0002:00000f67       ?has_signaling_NaN@_Num_float_base@std@@2_NB 1017af67     common.obj
 0002:00000f68       ?is_bounded@_Num_float_base@std@@2_NB 1017af68     common.obj
 0002:00000f69       ?is_exact@_Num_float_base@std@@2_NB 1017af69     common.obj
 0002:00000f6a       ?is_iec559@_Num_float_base@std@@2_NB 1017af6a     common.obj
 0002:00000f6b       ?is_integer@_Num_float_base@std@@2_NB 1017af6b     common.obj
 0002:00000f6c       ?is_modulo@_Num_float_base@std@@2_NB 1017af6c     common.obj
 0002:00000f6d       ?is_signed@_Num_float_base@std@@2_NB 1017af6d     common.obj
 0002:00000f6e       ?is_specialized@_Num_float_base@std@@2_NB 1017af6e     common.obj
 0002:00000f6f       ?tinyness_before@_Num_float_base@std@@2_NB 1017af6f     common.obj
 0002:00000f70       ?traps@_Num_float_base@std@@2_NB 1017af70     common.obj
 0002:00000f74       ?round_style@_Num_float_base@std@@2W4float_round_style@2@B 1017af74     common.obj
 0002:00000f78       ?radix@_Num_float_base@std@@2HB 1017af78     common.obj
 0002:00000f7c       ?is_signed@?$numeric_limits@D@std@@2_NB 1017af7c     common.obj
 0002:00000f80       ?digits@?$numeric_limits@D@std@@2HB 1017af80     common.obj
 0002:00000f84       ?digits10@?$numeric_limits@D@std@@2HB 1017af84     common.obj
 0002:00000f88       ?is_signed@?$numeric_limits@_W@std@@2_NB 1017af88     common.obj
 0002:00000f8c       ?digits@?$numeric_limits@_W@std@@2HB 1017af8c     common.obj
 0002:00000f90       ?digits10@?$numeric_limits@_W@std@@2HB 1017af90     common.obj
 0002:00000f94       ?is_modulo@?$numeric_limits@_N@std@@2_NB 1017af94     common.obj
 0002:00000f95       ?is_signed@?$numeric_limits@_N@std@@2_NB 1017af95     common.obj
 0002:00000f98       ?digits@?$numeric_limits@_N@std@@2HB 1017af98     common.obj
 0002:00000f9c       ?digits10@?$numeric_limits@_N@std@@2HB 1017af9c     common.obj
 0002:00000fa0       ?is_signed@?$numeric_limits@C@std@@2_NB 1017afa0     common.obj
 0002:00000fa4       ?digits@?$numeric_limits@C@std@@2HB 1017afa4     common.obj
 0002:00000fa8       ?digits10@?$numeric_limits@C@std@@2HB 1017afa8     common.obj
 0002:00000fac       ?is_signed@?$numeric_limits@E@std@@2_NB 1017afac     common.obj
 0002:00000fb0       ?digits@?$numeric_limits@E@std@@2HB 1017afb0     common.obj
 0002:00000fb4       ?digits10@?$numeric_limits@E@std@@2HB 1017afb4     common.obj
 0002:00000fb8       ?is_signed@?$numeric_limits@F@std@@2_NB 1017afb8     common.obj
 0002:00000fbc       ?digits@?$numeric_limits@F@std@@2HB 1017afbc     common.obj
 0002:00000fc0       ?value@?$_Sizeof@HU_Nil@std@@U12@U12@U12@U12@U12@U12@@std@@2IB 1017afc0     common.obj
 0002:00000fc4       ?digits10@?$numeric_limits@F@std@@2HB 1017afc4     common.obj
 0002:00000fc8       ?is_signed@?$numeric_limits@G@std@@2_NB 1017afc8     common.obj
 0002:00000fcc       ?digits@?$numeric_limits@G@std@@2HB 1017afcc     common.obj
 0002:00000fd0       ?digits10@?$numeric_limits@G@std@@2HB 1017afd0     common.obj
 0002:00000fd4       ?is_signed@?$numeric_limits@H@std@@2_NB 1017afd4     common.obj
 0002:00000fd8       ?digits@?$numeric_limits@H@std@@2HB 1017afd8     common.obj
 0002:00000fdc       ?digits10@?$numeric_limits@H@std@@2HB 1017afdc     common.obj
 0002:00000fe0       ??_C@_03ODFDHHGP@buy?$AA@  1017afe0     common.obj
 0002:00000fe4       ??_C@_04DNCIDCD@sell?$AA@  1017afe4     common.obj
 0002:00000fec       ??_C@_09CBPMMPOH@buy?5limit?$AA@ 1017afec     common.obj
 0002:00000ff8       ??_C@_0L@BINFPCJD@sell?5limit?$AA@ 1017aff8     common.obj
 0002:00001008       ??_C@_08MHBEBFHG@buy?5stop?$AA@ 1017b008     common.obj
 0002:00001014       ??_C@_09ONJKKDJF@sell?5stop?$AA@ 1017b014     common.obj
 0002:00001020       ??_C@_07HHFEDLHG@balance?$AA@ 1017b020     common.obj
 0002:0000102c       ??_C@_06HHOEAOAH@credit?$AA@ 1017b02c     common.obj
 0002:00001034       ??_C@_05KKCIMGE@error?$AA@ 1017b034     common.obj
 0002:00001096       ?is_signed@?$numeric_limits@I@std@@2_NB 1017b096     common.obj
 0002:00001098       ?digits@?$numeric_limits@I@std@@2HB 1017b098     common.obj
 0002:0000109c       ?digits10@?$numeric_limits@I@std@@2HB 1017b09c     common.obj
 0002:000010a0       ?is_signed@?$numeric_limits@J@std@@2_NB 1017b0a0     common.obj
 0002:000010a4       ?digits@?$numeric_limits@J@std@@2HB 1017b0a4     common.obj
 0002:000010a8       ?digits10@?$numeric_limits@J@std@@2HB 1017b0a8     common.obj
 0002:000010ac       ?is_signed@?$numeric_limits@K@std@@2_NB 1017b0ac     common.obj
 0002:000010b0       ?digits@?$numeric_limits@K@std@@2HB 1017b0b0     common.obj
 0002:000010b4       ?digits10@?$numeric_limits@K@std@@2HB 1017b0b4     common.obj
 0002:000010b8       ?is_signed@?$numeric_limits@_J@std@@2_NB 1017b0b8     common.obj
 0002:000010bc       ?skipws@?$_Iosb@H@std@@2W4_Fmtflags@12@B 1017b0bc     common.obj
 0002:000010c0       ?digits@?$numeric_limits@_J@std@@2HB 1017b0c0     common.obj
 0002:000010c4       ?unitbuf@?$_Iosb@H@std@@2W4_Fmtflags@12@B 1017b0c4     common.obj
 0002:000010c8       ?digits10@?$numeric_limits@_J@std@@2HB 1017b0c8     common.obj
 0002:000010cc       ?uppercase@?$_Iosb@H@std@@2W4_Fmtflags@12@B 1017b0cc     common.obj
 0002:000010d0       ?showbase@?$_Iosb@H@std@@2W4_Fmtflags@12@B 1017b0d0     common.obj
 0002:000010d4       ?showpoint@?$_Iosb@H@std@@2W4_Fmtflags@12@B 1017b0d4     common.obj
 0002:000010d8       ?showpos@?$_Iosb@H@std@@2W4_Fmtflags@12@B 1017b0d8     common.obj
 0002:000010dc       ?left@?$_Iosb@H@std@@2W4_Fmtflags@12@B 1017b0dc     common.obj
 0002:000010e0       ?right@?$_Iosb@H@std@@2W4_Fmtflags@12@B 1017b0e0     common.obj
 0002:000010e4       ?internal@?$_Iosb@H@std@@2W4_Fmtflags@12@B 1017b0e4     common.obj
 0002:000010e8       ?dec@?$_Iosb@H@std@@2W4_Fmtflags@12@B 1017b0e8     common.obj
 0002:000010ec       ?oct@?$_Iosb@H@std@@2W4_Fmtflags@12@B 1017b0ec     common.obj
 0002:000010f0       ?hex@?$_Iosb@H@std@@2W4_Fmtflags@12@B 1017b0f0     common.obj
 0002:000010f4       ?is_signed@?$numeric_limits@_K@std@@2_NB 1017b0f4     common.obj
 0002:000010f8       ?scientific@?$_Iosb@H@std@@2W4_Fmtflags@12@B 1017b0f8     common.obj
 0002:000010fc       ?fixed@?$_Iosb@H@std@@2W4_Fmtflags@12@B 1017b0fc     common.obj
 0002:00001100       ?digits@?$numeric_limits@_K@std@@2HB 1017b100     common.obj
 0002:00001104       ?hexfloat@?$_Iosb@H@std@@2W4_Fmtflags@12@B 1017b104     common.obj
 0002:00001108       ?digits10@?$numeric_limits@_K@std@@2HB 1017b108     common.obj
 0002:0000110c       ?boolalpha@?$_Iosb@H@std@@2W4_Fmtflags@12@B 1017b10c     common.obj
 0002:00001110       ?_Stdio@?$_Iosb@H@std@@2W4_Fmtflags@12@B 1017b110     common.obj
 0002:00001118       ??_7error_category@std@@6B@ 1017b118     common.obj
 0002:0000113c       ??_7_Generic_error_category@std@@6B@ 1017b13c     common.obj
 0002:0000115c       ??_C@_07DCLBNMLN@generic?$AA@ 1017b15c     common.obj
 0002:00001168       ??_C@_0O@BFJCFAAK@unknown?5error?$AA@ 1017b168     common.obj
 0002:0000117c       ??_7_Iostream_error_category@std@@6B@ 1017b17c     common.obj
 0002:0000119c       ??_C@_08LLGCOLLL@iostream?$AA@ 1017b19c     common.obj
 0002:000011a8       ??_C@_0BG@PADBLCHM@iostream?5stream?5error?$AA@ 1017b1a8     common.obj
 0002:000011c8       ??_7_System_error_category@std@@6B@ 1017b1c8     common.obj
 0002:000011e8       ??_C@_06FHFOAHML@system?$AA@ 1017b1e8     common.obj
 0002:000011f0       ??_C@_1IO@BLKJFPEG@?$AAc?$AA?3?$AA?2?$AAp?$AAr?$AAo?$AAg?$AAr?$AAa?$AAm?$AA?5?$AAf?$AAi?$AAl?$AAe?$AAs?$AA?5?$AA?$CI?$AAx?$AA8?$AA6?$AA?$CJ?$AA?2?$AAm?$AAi?$AAc?$AAr?$AAo?$AAs?$AAo?$AAf?$AAt@ 1017b1f0     common.obj
 0002:0000129c       ??_C@_0BI@CFPLBAOH@invalid?5string?5position?$AA@ 1017b29c     common.obj
 0002:000012b8       ??_C@_0BA@JFNIOLAK@string?5too?5long?$AA@ 1017b2b8     common.obj
 0002:000012cc       ??_C@_1CK@EOPGIILJ@?$AAi?$AAn?$AAv?$AAa?$AAl?$AAi?$AAd?$AA?5?$AAn?$AAu?$AAl?$AAl?$AA?5?$AAp?$AAo?$AAi?$AAn?$AAt?$AAe?$AAr?$AA?$AA@ 1017b2cc     common.obj
 0002:00001300       __real@0000000000000000    1017b300     common.obj
 0002:00001310       __real@3fe0000035afe535    1017b310     common.obj
 0002:00001319       ??_C@_00CNPNBAHC@?$AA@     1017b319     Logger.obj
 0002:0000131c       ??_C@_0P@LDGIHOMA@plugin_log?4log?$AA@ 1017b31c     Logger.obj
 0002:00001330       ??_C@_02CPIDLAI@at?$AA@    1017b330     Logger.obj
 0002:00001334       ??_C@_0CI@KHOMFGGO@?$CFd?7?$CF04d?4?$CF02d?4?$CF02d?5?$CF02d?3?$CF02d?3?$CF02d@ 1017b334     Logger.obj
 0002:00001364       ??_C@_02BMJICGCB@rt?$AA@   1017b364     Logger.obj
 0002:00001368       ?npos@?$basic_string@DU?$char_traits@D@std@@V?$allocator@D@2@@std@@2IB 1017b368     ServerPlugin.obj
 0002:0000136c       ??_C@_02DPKJAMEF@?$CFd?$AA@ 1017b36c     ServerPlugin.obj
 0002:00001370       ??_C@_01KICIPPFI@?2?$AA@   1017b370     ServerPlugin.obj
 0002:00001374       ??_C@_0P@OHBKMJPN@?2copytrade?4log?$AA@ 1017b374     ServerPlugin.obj
 0002:00001388       ??_C@_0P@KBBOMAED@copytrade?4s3db?$AA@ 1017b388     ServerPlugin.obj
 0002:0000139c       ??_C@_05FAGFPHJG@start?$AA@ 1017b39c     ServerPlugin.obj
 0002:000013a4       ??_C@_0CE@HKLOMEPO@SocialTrade?3?3MtSrvTradeRequestAp@ 1017b3a4     ServerPlugin.obj
 0002:000013d0       ??_C@_0CG@DNGNLAPH@SocialTrade?3?3MtSrvTradeRequestRe@ 1017b3d0     ServerPlugin.obj
 0002:00001400       ??_C@_0BM@HPKOOLAE@SocialTrade?3?3MtSrvTradesAdd?$AA@ 1017b400     ServerPlugin.obj
 0002:00001424       ??_C@_0BP@EINDDLDD@SocialTrade?3?3MtSrvTradesUpdate?$AA@ 1017b424     ServerPlugin.obj
 0002:0000144c       ??_C@_0BP@DGJGCBHO@SocialTrade?3?3MtSrvTradesAddExt?$AA@ 1017b44c     ServerPlugin.obj
 0002:00001474       ??_C@_0CA@POIPOKDK@SocialTrade?3?3MtSrvTradesCloseBy?$AA@ 1017b474     ServerPlugin.obj
 0002:0000149c       ??_C@_0BP@PPGGPPMK@SocialTrade?3?3tradeRequestApply?$AA@ 1017b49c     ServerPlugin.obj
 0002:000014c4       ??_C@_0BE@DBMPEEN@OK?$AN?6LOGIN?$DN?$CFd?$AN?6end?$AN?6?$AA@ 1017b4c4     ServerPlugin.obj
 0002:000014dc       ?value@?$_Sizeof@$$QAU?$pair@$$CBV?$basic_string@DU?$char_traits@D@std@@V?$allocator@D@2@@std@@UPluginCfg@@@std@@U_Nil@2@U32@U32@U32@U32@U32@U32@@std@@2IB 1017b4dc     Setting.obj
 0002:000014e0       ?value@?$_Sizeof@H$$QAU?$pair@$$CBV?$basic_string@DU?$char_traits@D@std@@V?$allocator@D@2@@std@@UPluginCfg@@@std@@U_Nil@2@U32@U32@U32@U32@U32@@std@@2IB 1017b4e0     Setting.obj
 0002:000014e8       ??_C@_1JA@MHFMCCH@?$AAc?$AA?3?$AA?2?$AAp?$AAr?$AAo?$AAg?$AAr?$AAa?$AAm?$AA?5?$AAf?$AAi?$AAl?$AAe?$AAs?$AA?5?$AA?$CI?$AAx?$AA8?$AA6?$AA?$CJ?$AA?2?$AAm?$AAi?$AAc?$AAr?$AAo?$AAs?$AAo?$AAf?$AAt@ 1017b4e8     Setting.obj
 0002:00001594       ??_C@_1DC@POOIKBAO@?$AAI?$AAT?$AAE?$AAR?$AAA?$AAT?$AAO?$AAR?$AA?5?$AAL?$AAI?$AAS?$AAT?$AA?5?$AAC?$AAO?$AAR?$AAR?$AAU?$AAP?$AAT?$AAE?$AAD?$AA?$CB?$AA?$AA@ 1017b594     Setting.obj
 0002:000015d0       ??_C@_0BG@HGEDEDEC@invalid?5stoi?5argument?$AA@ 1017b5d0     Setting.obj
 0002:000015ec       ??_C@_0BL@MFFNMGGC@stoi?5argument?5out?5of?5range?$AA@ 1017b5ec     Setting.obj
 0002:0000160c       ??_C@_0BG@LNNHAOEF@invalid?5stod?5argument?$AA@ 1017b60c     Setting.obj
 0002:00001628       ??_C@_0BL@PPHDABKE@stod?5argument?5out?5of?5range?$AA@ 1017b628     Setting.obj
 0002:00001648       ??_C@_0O@IGEEEBGB@Setting?3?3init?$AA@ 1017b648     Setting.obj
 0002:00001658       ??_C@_0FM@OAHALDME@CREATE?5TABLE?5IF?5NOT?5EXISTS?5setti@ 1017b658     Setting.obj
 0002:000016c8       ??_C@_0BP@GNFHJFEG@select?5name?0value?5from?5setting?$AA@ 1017b6c8     Setting.obj
 0002:000016f0       ??_C@_0L@FKNLPKPA@Setting?5?$CFs?$AA@ 1017b6f0     Setting.obj
 0002:00001700       ??_C@_0BC@OMONLLDJ@Setting?3?3init?5end?$AA@ 1017b700     Setting.obj
 0002:00001718       ??_C@_0EA@DOPPCBKO@insert?5or?5replace?5into?5setting?$CIn@ 1017b718     Setting.obj
 0002:00001764       ??_C@_03IPOLGNHD@?$FLn?$FN?$AA@ 1017b764     Setting.obj
 0002:00001768       ??_C@_03JNNOJPLL@?$FLv?$FN?$AA@ 1017b768     Setting.obj
 0002:0000176c       ??_C@_0CH@MJBPLOMJ@delete?5from?5?$GAsetting?$GA?5where?5name@ 1017b76c     Setting.obj
 0002:0000179c       ??_C@_0CE@PHEKDCKJ@select?5?$GAname?$GA?5from?5?$GAsetting?$GA?5lim@ 1017b79c     Setting.obj
 0002:000017c8       ??_C@_02PHLEJONL@?01?$AA@  1017b7c8     Setting.obj
 0002:000017cc       ??_C@_0BP@MBOIGICL@select?5count?$CI?$CK?$CJ?5from?5?$GAsetting?$GA?$AA@ 1017b7cc     Setting.obj
 0002:000017f8       ??_C@_1IK@EJDFLFME@?$AAc?$AA?3?$AA?2?$AAp?$AAr?$AAo?$AAg?$AAr?$AAa?$AAm?$AA?5?$AAf?$AAi?$AAl?$AAe?$AAs?$AA?5?$AA?$CI?$AAx?$AA8?$AA6?$AA?$CJ?$AA?2?$AAm?$AAi?$AAc?$AAr?$AAo?$AAs?$AAo?$AAf?$AAt@ 1017b7f8     Setting.obj
 0002:000018a0       ??_C@_1DO@CFEEPGGJ@?$AAm?$AAa?$AAp?$AA?1?$AAs?$AAe?$AAt?$AA?5?$AAi?$AAt?$AAe?$AAr?$AAa?$AAt?$AAo?$AAr?$AAs?$AA?5?$AAi?$AAn?$AAc?$AAo?$AAm?$AAp?$AAa?$AAt?$AAi?$AAb?$AAl?$AAe?$AA?$AA@ 1017b8a0     Setting.obj
 0002:000018ec       ??_C@_0CI@FNPHFCCM@Standard?5C?$CL?$CL?5Libraries?5Invalid?5A@ 1017b8ec     Setting.obj
 0002:00001920       ??_C@_1FO@GJIHNDLM@?$AA?$CC?$AAS?$AAt?$AAa?$AAn?$AAd?$AAa?$AAr?$AAd?$AA?5?$AAC?$AA?$CL?$AA?$CL?$AA?5?$AAL?$AAi?$AAb?$AAr?$AAa?$AAr?$AAi?$AAe?$AAs?$AA?5?$AAI?$AAn?$AAv?$AAa?$AAl?$AAi?$AAd?$AA?5@ 1017b920     Setting.obj
 0002:00001990       ??_C@_15GANGMFKL@?$AA?$CF?$AAs?$AA?$AA@ 1017b990     Setting.obj
 0002:00001998       ??_C@_1BMG@JKOKMFBK@?$AAs?$AAt?$AAd?$AA?3?$AA?3?$AA_?$AAT?$AAr?$AAe?$AAe?$AA_?$AAc?$AAo?$AAn?$AAs?$AAt?$AA_?$AAi?$AAt?$AAe?$AAr?$AAa?$AAt?$AAo?$AAr?$AA?$DM?$AAc?$AAl?$AAa?$AAs?$AAs?$AA?5@ 1017b998     Setting.obj
 0002:00001bb8       ??_C@_1CG@JNLFBNGN@?$AA?$CC?$AAi?$AAn?$AAv?$AAa?$AAl?$AAi?$AAd?$AA?5?$AAa?$AAr?$AAg?$AAu?$AAm?$AAe?$AAn?$AAt?$AA?$CC?$AA?$AA@ 1017bbb8     Setting.obj
 0002:00001be8       ??_C@_1EI@FHEHNNNM@?$AAm?$AAa?$AAp?$AA?1?$AAs?$AAe?$AAt?$AA?5?$AAi?$AAt?$AAe?$AAr?$AAa?$AAt?$AAo?$AAr?$AA?5?$AAn?$AAo?$AAt?$AA?5?$AAd?$AAe?$AAr?$AAe?$AAf?$AAe?$AAr?$AAe?$AAn?$AAc?$AAa@ 1017bbe8     Setting.obj
 0002:00001c40       ??_C@_0CE@OFMIGAMM@Standard?5C?$CL?$CL?5Libraries?5Out?5of?5Ra@ 1017bc40     Setting.obj
 0002:00001c70       ??_C@_1FG@IBPIFFN@?$AA?$CC?$AAS?$AAt?$AAa?$AAn?$AAd?$AAa?$AAr?$AAd?$AA?5?$AAC?$AA?$CL?$AA?$CL?$AA?5?$AAL?$AAi?$AAb?$AAr?$AAa?$AAr?$AAi?$AAe?$AAs?$AA?5?$AAO?$AAu?$AAt?$AA?5?$AAo?$AAf?$AA?5?$AAR@ 1017bc70     Setting.obj
 0002:00001cd8       ??_C@_1BME@NEKMIJCP@?$AAs?$AAt?$AAd?$AA?3?$AA?3?$AA_?$AAT?$AAr?$AAe?$AAe?$AA_?$AAc?$AAo?$AAn?$AAs?$AAt?$AA_?$AAi?$AAt?$AAe?$AAr?$AAa?$AAt?$AAo?$AAr?$AA?$DM?$AAc?$AAl?$AAa?$AAs?$AAs?$AA?5@ 1017bcd8     Setting.obj
 0002:00001ef8       ??_C@_1BO@MEPPHOO@?$AA?$CC?$AAo?$AAu?$AAt?$AA?5?$AAo?$AAf?$AA?5?$AAr?$AAa?$AAn?$AAg?$AAe?$AA?$CC?$AA?$AA@ 1017bef8     Setting.obj
 0002:00001f20       ??_C@_1EG@EHJFMBHJ@?$AAm?$AAa?$AAp?$AA?1?$AAs?$AAe?$AAt?$AA?5?$AAi?$AAt?$AAe?$AAr?$AAa?$AAt?$AAo?$AAr?$AA?5?$AAn?$AAo?$AAt?$AA?5?$AAi?$AAn?$AAc?$AAr?$AAe?$AAm?$AAe?$AAn?$AAt?$AAa?$AAb@ 1017bf20     Setting.obj
 0002:00001f78       ??_C@_1BMG@DKBHCMNP@?$AAs?$AAt?$AAd?$AA?3?$AA?3?$AA_?$AAT?$AAr?$AAe?$AAe?$AA_?$AAc?$AAo?$AAn?$AAs?$AAt?$AA_?$AAi?$AAt?$AAe?$AAr?$AAa?$AAt?$AAo?$AAr?$AA?$DM?$AAc?$AAl?$AAa?$AAs?$AAs?$AA?5@ 1017bf78     Setting.obj
 0002:00002198       ??_C@_1EK@PPDBPCAN@?$AAm?$AAa?$AAp?$AA?1?$AAs?$AAe?$AAt?$AA?5?$AAe?$AAr?$AAa?$AAs?$AAe?$AA?5?$AAi?$AAt?$AAe?$AAr?$AAa?$AAt?$AAo?$AAr?$AA?5?$AAo?$AAu?$AAt?$AAs?$AAi?$AAd?$AAe?$AA?5?$AAr@ 1017c198     Setting.obj
 0002:000021f0       ??_C@_1CE@IGJMOCCK@?$AAi?$AAn?$AAv?$AAa?$AAl?$AAi?$AAd?$AA?5?$AAo?$AAp?$AAe?$AAr?$AAa?$AAt?$AAo?$AAr?$AA?$DM?$AA?$AA@ 1017c1f0     Setting.obj
 0002:00002220       ??_C@_1EM@MHOKKPFH@?$AAm?$AAa?$AAp?$AA?1?$AAs?$AAe?$AAt?$AA?5?$AAi?$AAn?$AAs?$AAe?$AAr?$AAt?$AA?5?$AAi?$AAt?$AAe?$AAr?$AAa?$AAt?$AAo?$AAr?$AA?5?$AAo?$AAu?$AAt?$AAs?$AAi?$AAd?$AAe?$AA?5@ 1017c220     Setting.obj
 0002:00002280       ??_C@_1EG@OKCGOALM@?$AAm?$AAa?$AAp?$AA?1?$AAs?$AAe?$AAt?$AA?5?$AAi?$AAt?$AAe?$AAr?$AAa?$AAt?$AAo?$AAr?$AA?5?$AAn?$AAo?$AAt?$AA?5?$AAd?$AAe?$AAc?$AAr?$AAe?$AAm?$AAe?$AAn?$AAt?$AAa?$AAb@ 1017c280     Setting.obj
 0002:000022d8       ??_C@_1BMG@MJCFJABO@?$AAs?$AAt?$AAd?$AA?3?$AA?3?$AA_?$AAT?$AAr?$AAe?$AAe?$AA_?$AAc?$AAo?$AAn?$AAs?$AAt?$AA_?$AAi?$AAt?$AAe?$AAr?$AAa?$AAt?$AAo?$AAr?$AA?$DM?$AAc?$AAl?$AAa?$AAs?$AAs?$AA?5@ 1017c2d8     Setting.obj
 0002:000024f8       ??_C@_0BE@JONHPENG@map?1set?$DMT?$DO?5too?5long?$AA@ 1017c4f8     Setting.obj
 0002:00002510       ??_C@_01HIHLOKLC@1?$AA@    1017c510     SocialTrade.obj
 0002:00002514       ??_C@_01IHBHIGKO@?0?$AA@   1017c514     SocialTrade.obj
 0002:00002518       ??_C@_0BF@LKBHGKPE@addSubscribe?5code?5?$CFd?$AA@ 1017c518     SocialTrade.obj
 0002:00002534       ??_C@_0DO@FMBPLODP@insert?5into?5socialtrade?$CI?$GAlogin?$GA?0@ 1017c534     SocialTrade.obj
 0002:00002580       ??_C@_0DP@FFKGANBE@delete?5from?5socialtrade?5where?5?$GAl@ 1017c580     SocialTrade.obj
 0002:000025cc       ??_C@_03IMGPLJBN@?$FLl?$FN?$AA@ 1017c5cc     SocialTrade.obj
 0002:000025d0       ??_C@_03JLBFFNFA@?$FLs?$FN?$AA@ 1017c5d0     SocialTrade.obj
 0002:000025d4       ??_C@_0M@OPEEEPIL@start?5canal?$AA@ 1017c5d4     SocialTrade.obj
 0002:000025e4       ??_C@_0BA@NMFJDCPE@mainSocialTrade?$AA@ 1017c5e4     SocialTrade.obj
 0002:000025f8       ??_C@_0P@HEBFKHFL@start?5canal?5?$CFd?$AA@ 1017c5f8     SocialTrade.obj
 0002:0000260c       ??_C@_0BB@CPIIELJF@mainSocialTrade?5?$AA@ 1017c60c     SocialTrade.obj
 0002:00002620       ??_C@_0BE@EEBGKIFA@mainSocialTrade?5end?$AA@ 1017c620     SocialTrade.obj
 0002:00002638       ??_C@_0DP@BPAEMLOG@insert?5into?5?$GAorder?$GA?$CI?$GAorder?$GA?0?5sub@ 1017c638     SocialTrade.obj
 0002:00002684       ??_C@_03IOCJAHEE@?$FLo?$FN?$AA@ 1017c684     SocialTrade.obj
 0002:00002688       ??_C@_04EDAKFGEO@?$FLso?$FN?$AA@ 1017c688     SocialTrade.obj
 0002:00002690       ??_C@_0DE@FCPAEOC@update?5?$GAorder?$GA?5set?5subscribe_ord@ 1017c690     SocialTrade.obj
 0002:000026d0       ??_C@_03IKKEHLPG@?$FLi?$FN?$AA@ 1017c6d0     SocialTrade.obj
 0002:000026d4       ??_C@_0CD@JLKOMFDJ@select?5?$CK?5from?5?$GAorder?$GA?5where?5id?$DN?$FL@ 1017c6d4     SocialTrade.obj
 0002:00002700       ??_C@_0DM@MHNONMJK@delete?5from?5?$GAorder?$GA?5where?5order?$DN@ 1017c700     SocialTrade.obj
 0002:00002748       ??_C@_0BH@IBDAPIF@SocialTrade?3?3tradesAdd?$AA@ 1017c748     SocialTrade.obj
 0002:00002764       ??_C@_07LALHLCBA@License?$AA@ 1017c764     SocialTrade.obj
 0002:00002770       ??_C@_05MBDCODDP@Group?$AA@ 1017c770     SocialTrade.obj
 0002:00002778       ??_C@_0DG@OKHPNNMN@select?5subscriber?0id?5from?5social@ 1017c778     SocialTrade.obj
 0002:000027b8       ??_C@_0BN@LPMEONP@SocialTrade?3?3tradesAdd?5perc?5?$AA@ 1017c7b8     SocialTrade.obj
 0002:000027dc       ??_C@_02NJPGOMH@?$CFf?$AA@ 1017c7dc     SocialTrade.obj
 0002:000027e0       ??_C@_0BO@BOEGIFIG@SocialTrade?3?3tradesAdd?5volume?$AA@ 1017c7e0     SocialTrade.obj
 0002:00002804       ??_C@_0BB@EJFCBMGN@coverage?5for?5?$CD?$CFd?$AA@ 1017c804     SocialTrade.obj
 0002:00002818       ??_C@_0DG@LJLODHGB@select?5subscribe_order?5from?5?$GAord@ 1017c818     SocialTrade.obj
 0002:00002858       ??_C@_0CA@GNBKFPEC@SocialTrade?3?3tradesUpdate?5order?$AA@ 1017c858     SocialTrade.obj
 0002:00002880       ??_C@_02DKCKIIND@?$CFs?$AA@ 1017c880     SocialTrade.obj
 0002:00002884       ??_C@_0DD@GOKCJPBN@select?5subscriber?5from?5socialtra@ 1017c884     SocialTrade.obj
 0002:000028c4       ??_C@_0BJ@ODNHOKKG@SocialTrade?3?3SocialTrade?$AA@ 1017c8c4     SocialTrade.obj
 0002:000028e8       ??_C@_0HB@JGGBJFAO@CREATE?5TABLE?5IF?5NOT?5EXISTS?5socia@ 1017c8e8     SocialTrade.obj
 0002:00002970       ??_C@_0EM@GDGPIGIO@CREATE?5TABLE?5IF?5NOT?5EXISTS?5?8orde@ 1017c970     SocialTrade.obj
 0002:000029cc       ??_C@_0CF@ENKODKKB@SocialTrade?3?3SocialTrade?5init?5So@ 1017c9cc     SocialTrade.obj
 0002:000029f8       ??_C@_08IKOENAGA@group?5?$CFs?$AA@ 1017c9f8     SocialTrade.obj
 0002:00002a04       ??_C@_0BF@ELHFOPGD@SocialTrade?3?3addTurn?$AA@ 1017ca04     SocialTrade.obj
 0002:00002a20       ??_C@_08CPBMBMEF@trade?5?$CFs?$AA@ 1017ca20     SocialTrade.obj
 0002:00002a2c       ??_C@_0M@FGGHEIJM@SocialTrade?$AA@ 1017ca2c     SocialTrade.obj
 0002:00002a40       ??_C@_1II@LDGLJLGO@?$AAc?$AA?3?$AA?2?$AAp?$AAr?$AAo?$AAg?$AAr?$AAa?$AAm?$AA?5?$AAf?$AAi?$AAl?$AAe?$AAs?$AA?5?$AA?$CI?$AAx?$AA8?$AA6?$AA?$CJ?$AA?2?$AAm?$AAi?$AAc?$AAr?$AAo?$AAs?$AAo?$AAf?$AAt@ 1017ca40     SocialTrade.obj
 0002:00002ae8       ??_C@_1EC@HILJLMMC@?$AAl?$AAi?$AAs?$AAt?$AA?5?$AAi?$AAt?$AAe?$AAr?$AAa?$AAt?$AAo?$AAr?$AA?5?$AAn?$AAo?$AAt?$AA?5?$AAd?$AAe?$AAr?$AAe?$AAf?$AAe?$AAr?$AAe?$AAn?$AAc?$AAa?$AAb?$AAl?$AAe@ 1017cae8     SocialTrade.obj
 0002:00002b38       ??_C@_1OE@HBOIFLJN@?$AAs?$AAt?$AAd?$AA?3?$AA?3?$AA_?$AAL?$AAi?$AAs?$AAt?$AA_?$AAc?$AAo?$AAn?$AAs?$AAt?$AA_?$AAi?$AAt?$AAe?$AAr?$AAa?$AAt?$AAo?$AAr?$AA?$DM?$AAc?$AAl?$AAa?$AAs?$AAs?$AA?5@ 1017cb38     SocialTrade.obj
 0002:00002c50       ??_C@_1EA@DOGAGKDH@?$AAl?$AAi?$AAs?$AAt?$AA?5?$AAi?$AAt?$AAe?$AAr?$AAa?$AAt?$AAo?$AAr?$AA?5?$AAn?$AAo?$AAt?$AA?5?$AAi?$AAn?$AAc?$AAr?$AAe?$AAm?$AAe?$AAn?$AAt?$AAa?$AAb?$AAl?$AAe?$AA?$AA@ 1017cc50     SocialTrade.obj
 0002:00002ca0       ??_C@_1OG@IEDJPGFJ@?$AAs?$AAt?$AAd?$AA?3?$AA?3?$AA_?$AAL?$AAi?$AAs?$AAt?$AA_?$AAc?$AAo?$AAn?$AAs?$AAt?$AA_?$AAi?$AAt?$AAe?$AAr?$AAa?$AAt?$AAo?$AAr?$AA?$DM?$AAc?$AAl?$AAa?$AAs?$AAs?$AA?5@ 1017cca0     SocialTrade.obj
 0002:00002db4       ??_C@_1DI@MDELDGPI@?$AAl?$AAi?$AAs?$AAt?$AA?5?$AAi?$AAt?$AAe?$AAr?$AAa?$AAt?$AAo?$AAr?$AAs?$AA?5?$AAi?$AAn?$AAc?$AAo?$AAm?$AAp?$AAa?$AAt?$AAi?$AAb?$AAl?$AAe?$AA?$AA@ 1017cdb4     SocialTrade.obj
 0002:00002df8       ??_C@_1OG@CEMEBPJM@?$AAs?$AAt?$AAd?$AA?3?$AA?3?$AA_?$AAL?$AAi?$AAs?$AAt?$AA_?$AAc?$AAo?$AAn?$AAs?$AAt?$AA_?$AAi?$AAt?$AAe?$AAr?$AAa?$AAt?$AAo?$AAr?$AA?$DM?$AAc?$AAl?$AAa?$AAs?$AAs?$AA?5@ 1017cdf8     SocialTrade.obj
 0002:00002f10       ??_C@_1OG@OFCJMNGI@?$AAs?$AAt?$AAd?$AA?3?$AA?3?$AA_?$AAL?$AAi?$AAs?$AAt?$AA_?$AAc?$AAo?$AAn?$AAs?$AAt?$AA_?$AAi?$AAt?$AAe?$AAr?$AAa?$AAt?$AAo?$AAr?$AA?$DM?$AAc?$AAl?$AAa?$AAs?$AAs?$AA?5@ 1017cf10     SocialTrade.obj
 0002:00003028       ??_C@_1OI@PEJOEBBB@?$AAs?$AAt?$AAd?$AA?3?$AA?3?$AA_?$AAL?$AAi?$AAs?$AAt?$AA_?$AAc?$AAo?$AAn?$AAs?$AAt?$AA_?$AAi?$AAt?$AAe?$AAr?$AAa?$AAt?$AAo?$AAr?$AA?$DM?$AAc?$AAl?$AAa?$AAs?$AAs?$AA?5@ 1017d028     SocialTrade.obj
 0002:00003140       ??_C@_1OI@FEGDKINE@?$AAs?$AAt?$AAd?$AA?3?$AA?3?$AA_?$AAL?$AAi?$AAs?$AAt?$AA_?$AAc?$AAo?$AAn?$AAs?$AAt?$AA_?$AAi?$AAt?$AAe?$AAr?$AAa?$AAt?$AAo?$AAr?$AA?$DM?$AAc?$AAl?$AAa?$AAs?$AAs?$AA?5@ 1017d140     SocialTrade.obj
 0002:00003258       ??_C@_0BB@MOGOBHAF@list?$DMT?$DO?5too?5long?$AA@ 1017d258     SocialTrade.obj
 0002:00003270       ??_C@_1EE@BBMFLDOC@?$AAl?$AAi?$AAs?$AAt?$AA?5?$AAe?$AAr?$AAa?$AAs?$AAe?$AA?5?$AAi?$AAt?$AAe?$AAr?$AAa?$AAt?$AAo?$AAr?$AA?5?$AAo?$AAu?$AAt?$AAs?$AAi?$AAd?$AAe?$AA?5?$AAr?$AAa?$AAn?$AAg@ 1017d270     SocialTrade.obj
 0002:000032c8       __real@4059000000000000    1017d2c8     SocialTrade.obj
 0002:000032d4       ??_C@_02GMHACPFF@?$CFu?$AA@ 1017d2d4     SocketServer.obj
 0002:000032d8       ??_C@_0CC@OBEPALHA@SocketServer?3?3SocketServer?5Error@ 1017d2d8     SocketServer.obj
 0002:00003300       ??_C@_0O@ENLKOCEB@Size?5input?5?$CFd?$AA@ 1017d300     SocketServer.obj
 0002:00003310       ??_C@_0CB@LEKKDMLC@SocketServer?3?3_proc_soket?5Error?5@ 1017d310     SocketServer.obj
 0002:00003338       ??_C@_1IM@FAGLHIHN@?$AAc?$AA?3?$AA?2?$AAp?$AAr?$AAo?$AAg?$AAr?$AAa?$AAm?$AA?5?$AAf?$AAi?$AAl?$AAe?$AAs?$AA?5?$AA?$CI?$AAx?$AA8?$AA6?$AA?$CJ?$AA?2?$AAm?$AAi?$AAc?$AAr?$AAo?$AAs?$AAo?$AAf?$AAt@ 1017d338     SocketServer.obj
 0002:000033e0       ??_C@_1EG@FOHJJHAC@?$AAv?$AAe?$AAc?$AAt?$AAo?$AAr?$AA?5?$AAi?$AAt?$AAe?$AAr?$AAa?$AAt?$AAo?$AAr?$AA?5?$AAn?$AAo?$AAt?$AA?5?$AAd?$AAe?$AAr?$AAe?$AAf?$AAe?$AAr?$AAe?$AAn?$AAc?$AAa?$AAb@ 1017d3e0     SocketServer.obj
 0002:00003438       ??_C@_1MK@JDIHKFIK@?$AAs?$AAt?$AAd?$AA?3?$AA?3?$AA_?$AAV?$AAe?$AAc?$AAt?$AAo?$AAr?$AA_?$AAc?$AAo?$AAn?$AAs?$AAt?$AA_?$AAi?$AAt?$AAe?$AAr?$AAa?$AAt?$AAo?$AAr?$AA?$DM?$AAc?$AAl?$AAa?$AAs@ 1017d438     SocketServer.obj
 0002:00003530       ??_C@_1EE@EJDKCLKB@?$AAv?$AAe?$AAc?$AAt?$AAo?$AAr?$AA?5?$AAi?$AAt?$AAe?$AAr?$AAa?$AAt?$AAo?$AAr?$AA?5?$AAn?$AAo?$AAt?$AA?5?$AAi?$AAn?$AAc?$AAr?$AAe?$AAm?$AAe?$AAn?$AAt?$AAa?$AAb?$AAl@ 1017d530     SocketServer.obj
 0002:00003588       ??_C@_1MM@NLLPEPLL@?$AAs?$AAt?$AAd?$AA?3?$AA?3?$AA_?$AAV?$AAe?$AAc?$AAt?$AAo?$AAr?$AA_?$AAc?$AAo?$AAn?$AAs?$AAt?$AA_?$AAi?$AAt?$AAe?$AAr?$AAa?$AAt?$AAo?$AAr?$AA?$DM?$AAc?$AAl?$AAa?$AAs@ 1017d588     SocketServer.obj
 0002:00003680       ??_C@_1BMK@LNBEPJAC@?$AAs?$AAt?$AAd?$AA?3?$AA?3?$AA_?$AAT?$AAr?$AAe?$AAe?$AA_?$AAc?$AAo?$AAn?$AAs?$AAt?$AA_?$AAi?$AAt?$AAe?$AAr?$AAa?$AAt?$AAo?$AAr?$AA?$DM?$AAc?$AAl?$AAa?$AAs?$AAs?$AA?5@ 1017d680     SocketServer.obj
 0002:000038a8       ??_C@_1BMM@EKDIGOLE@?$AAs?$AAt?$AAd?$AA?3?$AA?3?$AA_?$AAT?$AAr?$AAe?$AAe?$AA_?$AAc?$AAo?$AAn?$AAs?$AAt?$AA_?$AAi?$AAt?$AAe?$AAr?$AAa?$AAt?$AAo?$AAr?$AA?$DM?$AAc?$AAl?$AAa?$AAs?$AAs?$AA?5@ 1017d8a8     SocketServer.obj
 0002:00003ad0       ??_C@_1BMM@OKMFIHHB@?$AAs?$AAt?$AAd?$AA?3?$AA?3?$AA_?$AAT?$AAr?$AAe?$AAe?$AA_?$AAc?$AAo?$AAn?$AAs?$AAt?$AA_?$AAi?$AAt?$AAe?$AAr?$AAa?$AAt?$AAo?$AAr?$AA?$DM?$AAc?$AAl?$AAa?$AAs?$AAs?$AA?5@ 1017dad0     SocketServer.obj
 0002:00003cf8       ??_C@_1BNI@OMCFGIDF@?$AAs?$AAt?$AAd?$AA?3?$AA?3?$AA_?$AAT?$AAr?$AAe?$AAe?$AA_?$AAc?$AAo?$AAn?$AAs?$AAt?$AA_?$AAi?$AAt?$AAe?$AAr?$AAa?$AAt?$AAo?$AAr?$AA?$DM?$AAc?$AAl?$AAa?$AAs?$AAs?$AA?5@ 1017dcf8     SocketServer.obj
 0002:00003f30       ??_C@_1BNK@FNDHDMGD@?$AAs?$AAt?$AAd?$AA?3?$AA?3?$AA_?$AAT?$AAr?$AAe?$AAe?$AA_?$AAc?$AAo?$AAn?$AAs?$AAt?$AA_?$AAi?$AAt?$AAe?$AAr?$AAa?$AAt?$AAo?$AAr?$AA?$DM?$AAc?$AAl?$AAa?$AAs?$AAs?$AA?5@ 1017df30     SocketServer.obj
 0002:00004168       ??_C@_1BNK@PNMKNFKG@?$AAs?$AAt?$AAd?$AA?3?$AA?3?$AA_?$AAT?$AAr?$AAe?$AAe?$AA_?$AAc?$AAo?$AAn?$AAs?$AAt?$AA_?$AAi?$AAt?$AAe?$AAr?$AAa?$AAt?$AAo?$AAr?$AA?$DM?$AAc?$AAl?$AAa?$AAs?$AAs?$AA?5@ 1017e168     SocketServer.obj
 0002:000043a0       ??_C@_1CIE@FPNKEKON@?$AAs?$AAt?$AAd?$AA?3?$AA?3?$AA_?$AAT?$AAr?$AAe?$AAe?$AA_?$AAc?$AAo?$AAn?$AAs?$AAt?$AA_?$AAi?$AAt?$AAe?$AAr?$AAa?$AAt?$AAo?$AAr?$AA?$DM?$AAc?$AAl?$AAa?$AAs?$AAs?$AA?5@ 1017e3a0     SocketServer.obj
 0002:000046a4       ??_C@_0BD@OLBABOEK@vector?$DMT?$DO?5too?5long?$AA@ 1017e6a4     SocketServer.obj
 0002:000046bc       ??_C@_1DM@HINDPMBP@?$AAv?$AAe?$AAc?$AAt?$AAo?$AAr?$AA?5?$AAi?$AAt?$AAe?$AAr?$AAa?$AAt?$AAo?$AAr?$AAs?$AA?5?$AAi?$AAn?$AAc?$AAo?$AAm?$AAp?$AAa?$AAt?$AAi?$AAb?$AAl?$AAe?$AA?$AA@ 1017e6bc     SocketServer.obj
 0002:00004708       ??_C@_1ME@CKKPHFLA@?$AAs?$AAt?$AAd?$AA?3?$AA?3?$AA_?$AAV?$AAe?$AAc?$AAt?$AAo?$AAr?$AA_?$AAc?$AAo?$AAn?$AAs?$AAt?$AA_?$AAi?$AAt?$AAe?$AAr?$AAa?$AAt?$AAo?$AAr?$AA?$DM?$AAc?$AAl?$AAa?$AAs@ 1017e708     SocketServer.obj
 0002:000047f8       ??_C@_1CIC@FCMNNDE@?$AAs?$AAt?$AAd?$AA?3?$AA?3?$AA_?$AAT?$AAr?$AAe?$AAe?$AA_?$AAc?$AAo?$AAn?$AAs?$AAt?$AA_?$AAi?$AAt?$AAe?$AAr?$AAa?$AAt?$AAo?$AAr?$AA?$DM?$AAc?$AAl?$AAa?$AAs?$AAs?$AA?5@ 1017e7f8     SocketServer.obj
 0002:00004b00       ??_C@_1CIE@PPCHKDCI@?$AAs?$AAt?$AAd?$AA?3?$AA?3?$AA_?$AAT?$AAr?$AAe?$AAe?$AA_?$AAc?$AAo?$AAn?$AAs?$AAt?$AA_?$AAi?$AAt?$AAe?$AAr?$AAa?$AAt?$AAo?$AAr?$AA?$DM?$AAc?$AAl?$AAa?$AAs?$AAs?$AA?5@ 1017eb00     SocketServer.obj
 0002:00004e04       ??_C@_1CO@DGLIKNHI@?$AAi?$AAn?$AAv?$AAa?$AAl?$AAi?$AAd?$AA?5?$AAi?$AAt?$AAe?$AAr?$AAa?$AAt?$AAo?$AAr?$AA?5?$AAr?$AAa?$AAn?$AAg?$AAe?$AA?$AA@ 1017ee04     SocketServer.obj
 0002:00004e40       ??_C@_1BMM@LJAKNCHF@?$AAs?$AAt?$AAd?$AA?3?$AA?3?$AA_?$AAT?$AAr?$AAe?$AAe?$AA_?$AAc?$AAo?$AAn?$AAs?$AAt?$AA_?$AAi?$AAt?$AAe?$AAr?$AAa?$AAt?$AAo?$AAr?$AA?$DM?$AAc?$AAl?$AAa?$AAs?$AAs?$AA?5@ 1017ee40     SocketServer.obj
 0002:00005068       ??_C@_1BNK@KOAFIAKC@?$AAs?$AAt?$AAd?$AA?3?$AA?3?$AA_?$AAT?$AAr?$AAe?$AAe?$AA_?$AAc?$AAo?$AAn?$AAs?$AAt?$AA_?$AAi?$AAt?$AAe?$AAr?$AAa?$AAt?$AAo?$AAr?$AA?$DM?$AAc?$AAl?$AAa?$AAs?$AAs?$AA?5@ 1017f068     SocketServer.obj
 0002:000052a0       ??_C@_1CIE@MBFBPOJ@?$AAs?$AAt?$AAd?$AA?3?$AA?3?$AA_?$AAT?$AAr?$AAe?$AAe?$AA_?$AAc?$AAo?$AAn?$AAs?$AAt?$AA_?$AAi?$AAt?$AAe?$AAr?$AAa?$AAt?$AAo?$AAr?$AA?$DM?$AAc?$AAl?$AAa?$AAs?$AAs?$AA?5@ 1017f2a0     SocketServer.obj
 0002:000055a8       ??_C@_1IO@PFCFKGJH@?$AAc?$AA?3?$AA?2?$AAp?$AAr?$AAo?$AAg?$AAr?$AAa?$AAm?$AA?5?$AAf?$AAi?$AAl?$AAe?$AAs?$AA?5?$AA?$CI?$AAx?$AA8?$AA6?$AA?$CJ?$AA?2?$AAm?$AAi?$AAc?$AAr?$AAo?$AAs?$AAo?$AAf?$AAt@ 1017f5a8     SocketServer.obj
 0002:00005d70       _sqlite3_version           1017fd70     sqlite3.obj
 0002:00009818       ??_C@_0O@PDAEIIFA@sqlite_detach?$AA@ 10183818     sqlite3.obj
 0002:00009828       ??_C@_0O@GJLGHGMJ@sqlite_attach?$AA@ 10183828     sqlite3.obj
 0002:00009838       ??_C@_09BPOICPEH@julianday?$AA@ 10183838     sqlite3.obj
 0002:00009844       ??_C@_04JNIHBGGH@date?$AA@ 10183844     sqlite3.obj
 0002:0000984c       ??_C@_04CLCEDBPF@time?$AA@ 1018384c     sqlite3.obj
 0002:00009854       ??_C@_08FGNPMIBK@datetime?$AA@ 10183854     sqlite3.obj
 0002:00009860       ??_C@_08EPGBJPHJ@strftime?$AA@ 10183860     sqlite3.obj
 0002:0000986c       ??_C@_0N@IPDKEGPB@current_time?$AA@ 1018386c     sqlite3.obj
 0002:0000987c       ??_C@_0BC@DDICBCEN@current_timestamp?$AA@ 1018387c     sqlite3.obj
 0002:00009894       ??_C@_05LCLENNFI@table?$AA@ 10183894     sqlite3.obj
 0002:0000989c       ??_C@_0N@DJJJGBGD@current_date?$AA@ 1018389c     sqlite3.obj
 0002:000098ac       ??_C@_0P@MIBGKNHF@application_id?$AA@ 101838ac     sqlite3.obj
 0002:000098c0       ??_C@_0M@ENMLGDH@auto_vacuum?$AA@ 101838c0     sqlite3.obj
 0002:000098d0       ??_C@_0BA@NMINPKHE@automatic_index?$AA@ 101838d0     sqlite3.obj
 0002:000098e4       ??_C@_0N@ELBKLHHC@busy_timeout?$AA@ 101838e4     sqlite3.obj
 0002:000098f4       ??_C@_0L@JIGNFOJJ@cache_size?$AA@ 101838f4     sqlite3.obj
 0002:00009904       ??_C@_0M@GAIOFEBI@cache_spill?$AA@ 10183904     sqlite3.obj
 0002:00009914       ??_C@_0BE@LKBHCIHN@case_sensitive_like?$AA@ 10183914     sqlite3.obj
 0002:0000992c       ??_C@_0BA@ILJBCKLF@cell_size_check?$AA@ 1018392c     sqlite3.obj
 0002:00009940       ??_C@_0BF@IOJNJBPA@checkpoint_fullfsync?$AA@ 10183940     sqlite3.obj
 0002:0000995c       ??_C@_0P@KOJNIGCH@collation_list?$AA@ 1018395c     sqlite3.obj
 0002:00009970       ??_C@_0BA@CFJEIIDP@compile_options?$AA@ 10183970     sqlite3.obj
 0002:00009984       ??_C@_0O@PEBBJPHD@count_changes?$AA@ 10183984     sqlite3.obj
 0002:00009994       ??_C@_0BF@OGPCDMDP@data_store_directory?$AA@ 10183994     sqlite3.obj
 0002:000099b0       ??_C@_0N@OFPBFGHH@data_version?$AA@ 101839b0     sqlite3.obj
 0002:000099c0       ??_C@_0O@EBMNDACF@database_list?$AA@ 101839c0     sqlite3.obj
 0002:000099d0       ??_C@_0BD@EMJOENCP@default_cache_size?$AA@ 101839d0     sqlite3.obj
 0002:000099e8       ??_C@_0BD@DIGJFFIE@defer_foreign_keys?$AA@ 101839e8     sqlite3.obj
 0002:00009a00       ??_C@_0BH@CMLDBHJP@empty_result_callbacks?$AA@ 10183a00     sqlite3.obj
 0002:00009a1c       ??_C@_08MLPGAEIK@encoding?$AA@ 10183a1c     sqlite3.obj
 0002:00009a28       ??_C@_0BC@CIFGNOOA@foreign_key_check?$AA@ 10183a28     sqlite3.obj
 0002:00009a40       ??_C@_0BB@KJMCGNAI@foreign_key_list?$AA@ 10183a40     sqlite3.obj
 0002:00009a54       ??_C@_0N@CEEMEAMB@foreign_keys?$AA@ 10183a54     sqlite3.obj
 0002:00009a64       ??_C@_0P@GDKICNML@freelist_count?$AA@ 10183a64     sqlite3.obj
 0002:00009a78       ??_C@_0BC@CBBNFKC@full_column_names?$AA@ 10183a78     sqlite3.obj
 0002:00009a90       ??_C@_09MLJLLBEB@fullfsync?$AA@ 10183a90     sqlite3.obj
 0002:00009a9c       ??_C@_0BJ@KLIMENGM@ignore_check_constraints?$AA@ 10183a9c     sqlite3.obj
 0002:00009abc       ??_C@_0BD@IEMDKFHA@incremental_vacuum?$AA@ 10183abc     sqlite3.obj
 0002:00009ad4       ??_C@_0L@CKPANNIC@index_info?$AA@ 10183ad4     sqlite3.obj
 0002:00009ae4       ??_C@_0L@MMBMMAEK@index_list?$AA@ 10183ae4     sqlite3.obj
 0002:00009af4       ??_C@_0M@FBDGHLPH@index_xinfo?$AA@ 10183af4     sqlite3.obj
 0002:00009b04       ??_C@_0BA@EDNFHOBJ@integrity_check?$AA@ 10183b04     sqlite3.obj
 0002:00009b18       ??_C@_0N@IPLFJDHP@journal_mode?$AA@ 10183b18     sqlite3.obj
 0002:00009b28       ??_C@_0BD@MCBLCGGI@journal_size_limit?$AA@ 10183b28     sqlite3.obj
 0002:00009b40       ??_C@_0BD@LEFOEGBK@legacy_file_format?$AA@ 10183b40     sqlite3.obj
 0002:00009b58       ??_C@_0N@NOOMDJH@locking_mode?$AA@ 10183b58     sqlite3.obj
 0002:00009b68       ??_C@_0P@FMLMLOHD@max_page_count?$AA@ 10183b68     sqlite3.obj
 0002:00009b7c       ??_C@_09CBABOEGE@mmap_size?$AA@ 10183b7c     sqlite3.obj
 0002:00009b88       ??_C@_0L@OBBCDPFM@page_count?$AA@ 10183b88     sqlite3.obj
 0002:00009b98       ??_C@_09OGOMKHMG@page_size?$AA@ 10183b98     sqlite3.obj
 0002:00009ba4       ??_C@_0L@LILGGAHH@query_only?$AA@ 10183ba4     sqlite3.obj
 0002:00009bb4       ??_C@_0M@EDPCDMIO@quick_check?$AA@ 10183bb4     sqlite3.obj
 0002:00009bc4       ??_C@_0BB@KLHJNGLH@read_uncommitted?$AA@ 10183bc4     sqlite3.obj
 0002:00009bd8       ??_C@_0BD@IAMNLMFM@recursive_triggers?$AA@ 10183bd8     sqlite3.obj
 0002:00009bf0       ??_C@_0BK@ECMFJINF@reverse_unordered_selects?$AA@ 10183bf0     sqlite3.obj
 0002:00009c10       ??_C@_0P@JGMMHBPP@schema_version?$AA@ 10183c10     sqlite3.obj
 0002:00009c24       ??_C@_0O@CPOJHNIK@secure_delete?$AA@ 10183c24     sqlite3.obj
 0002:00009c34       ??_C@_0BD@BFIEDLEP@short_column_names?$AA@ 10183c34     sqlite3.obj
 0002:00009c4c       ??_C@_0O@ILHLPNHH@shrink_memory?$AA@ 10183c4c     sqlite3.obj
 0002:00009c5c       ??_C@_04HLBMEOMD@addr?$AA@ 10183c5c     sqlite3.obj
 0002:00009c64       ??_C@_0BA@HCOALODB@soft_heap_limit?$AA@ 10183c64     sqlite3.obj
 0002:00009c78       ??_C@_06POMMAHJK@opcode?$AA@ 10183c78     sqlite3.obj
 0002:00009c80       ??_C@_05BLKJBNOD@stats?$AA@ 10183c80     sqlite3.obj
 0002:00009c88       ??_C@_02JCBCEJAP@p1?$AA@   10183c88     sqlite3.obj
 0002:00009c8c       ??_C@_0M@GKGFOGDE@synchronous?$AA@ 10183c8c     sqlite3.obj
 0002:00009c9c       ??_C@_02LJDPBKMM@p2?$AA@   10183c9c     sqlite3.obj
 0002:00009ca0       ??_C@_0L@NEMFJAGM@table_info?$AA@ 10183ca0     sqlite3.obj
 0002:00009cb0       ??_C@_02KACECLIN@p3?$AA@   10183cb0     sqlite3.obj
 0002:00009cb4       ??_C@_0L@JEPCDDIC@temp_store?$AA@ 10183cb4     sqlite3.obj
 0002:00009cc4       ??_C@_02OPGFLNEK@p4?$AA@   10183cc4     sqlite3.obj
 0002:00009cc8       ??_C@_0BF@OPALIJKE@temp_store_directory?$AA@ 10183cc8     sqlite3.obj
 0002:00009ce4       ??_C@_02PGHOIMAL@p5?$AA@   10183ce4     sqlite3.obj
 0002:00009ce8       ??_C@_07NFPADACG@threads?$AA@ 10183ce8     sqlite3.obj
 0002:00009cf4       ??_C@_07GJGNEJFD@comment?$AA@ 10183cf4     sqlite3.obj
 0002:00009d00       ??_C@_0N@MPKCHLKL@user_version?$AA@ 10183d00     sqlite3.obj
 0002:00009d10       ??_C@_08CAKEGGLM@selectid?$AA@ 10183d10     sqlite3.obj
 0002:00009d1c       ??_C@_0BD@JPABJEAI@wal_autocheckpoint?$AA@ 10183d1c     sqlite3.obj
 0002:00009d34       ??_C@_05NDNMCCJH@order?$AA@ 10183d34     sqlite3.obj
 0002:00009d3c       ??_C@_0P@OLFGCBDE@wal_checkpoint?$AA@ 10183d3c     sqlite3.obj
 0002:00009d50       ??_C@_0BM@FKBOKANJ@database?5schema?5has?5changed?$AA@ 10183d50     sqlite3.obj
 0002:00009d74       ??_C@_06EENFNEPD@detail?$AA@ 10183d74     sqlite3.obj
 0002:00009d7c       ??_C@_0BA@OHBCLCAL@writable_schema?$AA@ 10183d7c     sqlite3.obj
 0002:00009d90       ??_C@_0BE@JHJAJICL@sqlite_rename_table?$AA@ 10183d90     sqlite3.obj
 0002:00009da8       ??_C@_0BG@DKJJOMDK@sqlite_rename_trigger?$AA@ 10183da8     sqlite3.obj
 0002:00009dc4       ??_C@_0BF@CIKMGNA@sqlite_rename_parent?$AA@ 10183dc4     sqlite3.obj
 0002:00009de0       ??_C@_04DAMGJPCA@file?$AA@ 10183de0     sqlite3.obj
 0002:00009de8       ??_C@_06HLKELJGF@memory?$AA@ 10183de8     sqlite3.obj
 0002:00009df0       ??_C@_06FOBLBEIN@delete?$AA@ 10183df0     sqlite3.obj
 0002:00009df8       ??_C@_07EMFBDGOD@persist?$AA@ 10183df8     sqlite3.obj
 0002:00009e04       ??_C@_03MCADLMAF@off?$AA@  10183e04     sqlite3.obj
 0002:00009e08       ??_C@_08MABILMFG@truncate?$AA@ 10183e08     sqlite3.obj
 0002:00009e14       ??_C@_03KIAODNHK@wal?$AA@  10183e14     sqlite3.obj
 0002:00009e18       ??_C@_0N@FKKFHCIB@not?5an?5error?$AA@ 10183e18     sqlite3.obj
 0002:00009e28       ??_C@_0CE@BCMAPMOL@SQL?5logic?5error?5or?5missing?5datab@ 10183e28     sqlite3.obj
 0002:00009e54       ??_C@_0BJ@OFHFLJKH@access?5permission?5denied?$AA@ 10183e54     sqlite3.obj
 0002:00009e74       ??_C@_0BP@BFMDEDKN@callback?5requested?5query?5abort?$AA@ 10183e74     sqlite3.obj
 0002:00009e9c       ??_C@_0BD@DAAAMHOI@database?5is?5locked?$AA@ 10183e9c     sqlite3.obj
 0002:00009eb4       ??_C@_01CLKCMJKC@?5?$AA@   10183eb4     sqlite3.obj
 0002:00009eb8       ??_C@_0BJ@DNPONIEG@database?5table?5is?5locked?$AA@ 10183eb8     sqlite3.obj
 0002:00009ed8       ??_C@_0CF@JBLJEMGC@attempt?5to?5write?5a?5readonly?5data@ 10183ed8     sqlite3.obj
 0002:00009f04       ??_C@_0M@EGEKIIMP@interrupted?$AA@ 10183f04     sqlite3.obj
 0002:00009f14       ??_C@_0P@FOPPKBJH@disk?5I?1O?5error?$AA@ 10183f14     sqlite3.obj
 0002:00009f28       ??_C@_0CB@ONDDCPGK@database?5disk?5image?5is?5malformed@ 10183f28     sqlite3.obj
 0002:00009f50       ??_C@_0BC@BDMDPLFD@unknown?5operation?$AA@ 10183f50     sqlite3.obj
 0002:00009f68       ??_C@_0BJ@GDNBBAEL@database?5or?5disk?5is?5full?$AA@ 10183f68     sqlite3.obj
 0002:00009f88       ??_C@_0BN@JLONMGIA@unable?5to?5open?5database?5file?$AA@ 10183f88     sqlite3.obj
 0002:00009fac       ??_C@_0BB@MCPOJJBB@locking?5protocol?$AA@ 10183fac     sqlite3.obj
 0002:00009fc0       ??_C@_0BH@OCNELEJF@table?5contains?5no?5data?$AA@ 10183fc0     sqlite3.obj
 0002:00009fdc       ??_C@_0BC@IFKPGMGK@constraint?5failed?$AA@ 10183fdc     sqlite3.obj
 0002:00009ff4       ??_C@_0BC@FILINGOB@datatype?5mismatch?$AA@ 10183ff4     sqlite3.obj
 0002:0000a00c       ??_C@_0CH@GCDGLLPA@library?5routine?5called?5out?5of?5se@ 1018400c     sqlite3.obj
 0002:0000a03c       ??_C@_0BP@GMDPJID@large?5file?5support?5is?5disabled?$AA@ 1018403c     sqlite3.obj
 0002:0000a064       ??_C@_0BF@LMCDAPDN@authorization?5denied?$AA@ 10184064     sqlite3.obj
 0002:0000a080       ??_C@_0CA@DBBJFBEG@auxiliary?5database?5format?5error?$AA@ 10184080     sqlite3.obj
 0002:0000a0a8       ??_C@_0CC@OHMKLHEA@bind?5or?5column?5index?5out?5of?5rang@ 101840a8     sqlite3.obj
 0002:0000a0d0       ??_C@_0CH@JKOMOHHH@file?5is?5encrypted?5or?5is?5not?5a?5da@ 101840d0     sqlite3.obj
 0002:0000a100       ??_C@_0N@EIGEIEIJ@sqlite_stat1?$AA@ 10184100     sqlite3.obj
 0002:0000a110       ??_C@_0N@BCOBMINH@tbl?0idx?0stat?$AA@ 10184110     sqlite3.obj
 0002:0000a120       ??_C@_0N@HKFCOGAL@sqlite_stat3?$AA@ 10184120     sqlite3.obj
 0002:0000a130       ??_C@_0N@DFBDHAMM@sqlite_stat4?$AA@ 10184130     sqlite3.obj
 0002:0000a140       ??_C@_05FKHKFDID@index?$AA@ 10184140     sqlite3.obj
 0002:0000a148       ??_C@_09BGHEAMKF@stat_init?$AA@ 10184148     sqlite3.obj
 0002:0000a154       ??_C@_01OGPIMHDM@?$DP?$AA@ 10184154     sqlite3.obj
 0002:0000a158       ??_C@_09OJILMLHM@Savepoint?$AA@ 10184158     sqlite3.obj
 0002:0000a164       ??_C@_0L@BPKAOEDK@AutoCommit?$AA@ 10184164     sqlite3.obj
 0002:0000a174       ??_C@_0M@MEGKBOMN@Transaction?$AA@ 10184174     sqlite3.obj
 0002:0000a184       ??_C@_0L@MGGJHFHJ@SorterNext?$AA@ 10184184     sqlite3.obj
 0002:0000a194       ??_C@_0L@GJHBGGGF@PrevIfOpen?$AA@ 10184194     sqlite3.obj
 0002:0000a1a4       ??_C@_0L@EPCJLBGC@NextIfOpen?$AA@ 101841a4     sqlite3.obj
 0002:0000a1b4       ??_C@_04PHIBHIIF@Prev?$AA@ 101841b4     sqlite3.obj
 0002:0000a1bc       ??_C@_04MDFHGMOB@Next?$AA@ 101841bc     sqlite3.obj
 0002:0000a1c4       ??_C@_0L@IHLHABNJ@Checkpoint?$AA@ 101841c4     sqlite3.obj
 0002:0000a1d4       ??_C@_0M@FAIDBMDK@JournalMode?$AA@ 101841d4     sqlite3.obj
 0002:0000a1e4       ??_C@_06OBCEMCJB@Vacuum?$AA@ 101841e4     sqlite3.obj
 0002:0000a1ec       ??_C@_07OKDOHLDO@VFilter?$AA@ 101841ec     sqlite3.obj
 0002:0000a1f8       ??_C@_07NHABAPID@VUpdate?$AA@ 101841f8     sqlite3.obj
 0002:0000a204       ??_C@_04BNGNMAK@Goto?$AA@  10184204     sqlite3.obj
 0002:0000a20c       ??_C@_05DLHJCIPI@Gosub?$AA@ 1018420c     sqlite3.obj
 0002:0000a214       ??_C@_06HCFIKKEA@Return?$AA@ 10184214     sqlite3.obj
 0002:0000a21c       ??_C@_0O@OADCGMIE@InitCoroutine?$AA@ 1018421c     sqlite3.obj
 0002:0000a22c       ??_C@_0N@FPMLICGC@EndCoroutine?$AA@ 1018422c     sqlite3.obj
 0002:0000a23c       ??_C@_03KNKIDPAC@Not?$AA@  1018423c     sqlite3.obj
 0002:0000a240       ??_C@_05LNDKIJIJ@Yield?$AA@ 10184240     sqlite3.obj
 0002:0000a248       ??_C@_0L@GIACEIKJ@HaltIfNull?$AA@ 10184248     sqlite3.obj
 0002:0000a258       ??_C@_04NIFKAFLK@Halt?$AA@ 10184258     sqlite3.obj
 0002:0000a260       ??_C@_07EDADKEAH@Integer?$AA@ 10184260     sqlite3.obj
 0002:0000a26c       ??_C@_05DPPJJBMK@Int64?$AA@ 1018426c     sqlite3.obj
 0002:0000a274       ??_C@_06ENNEIMBA@String?$AA@ 10184274     sqlite3.obj
 0002:0000a27c       ??_C@_04KHKKIIL@Null?$AA@  1018427c     sqlite3.obj
 0002:0000a284       ??_C@_08BAJALCJE@SoftNull?$AA@ 10184284     sqlite3.obj
 0002:0000a290       ??_C@_04HOFOMOEI@Blob?$AA@ 10184290     sqlite3.obj
 0002:0000a298       ??_C@_08DMMJCAML@Variable?$AA@ 10184298     sqlite3.obj
 0002:0000a2a4       ??_C@_04LCANPIEP@Move?$AA@ 101842a4     sqlite3.obj
 0002:0000a2ac       ??_C@_03LBLPCGAC@cid?$AA@  101842ac     sqlite3.obj
 0002:0000a2b0       ??_C@_04OPMHGHMB@Copy?$AA@ 101842b0     sqlite3.obj
 0002:0000a2b8       ??_C@_04MEMAJGDJ@name?$AA@ 101842b8     sqlite3.obj
 0002:0000a2c0       ??_C@_05BCDNELCG@SCopy?$AA@ 101842c0     sqlite3.obj
 0002:0000a2c8       ??_C@_04GPMDFGEJ@type?$AA@ 101842c8     sqlite3.obj
 0002:0000a2d0       ??_C@_09BKHKEBMD@ResultRow?$AA@ 101842d0     sqlite3.obj
 0002:0000a2dc       ??_C@_07EAJHGOKJ@notnull?$AA@ 101842dc     sqlite3.obj
 0002:0000a2e8       ??_C@_07MCEFGNMJ@CollSeq?$AA@ 101842e8     sqlite3.obj
 0002:0000a2f4       ??_C@_0L@KNDFGGNJ@dflt_value?$AA@ 101842f4     sqlite3.obj
 0002:0000a304       ??_C@_09LAABOPGC@Function0?$AA@ 10184304     sqlite3.obj
 0002:0000a310       ??_C@_02NCEGPMNB@pk?$AA@   10184310     sqlite3.obj
 0002:0000a314       ??_C@_09LFKFCDD@stat_push?$AA@ 10184314     sqlite3.obj
 0002:0000a320       ??_C@_08PHKOHANG@Function?$AA@ 10184320     sqlite3.obj
 0002:0000a32c       ??_C@_06JHIJIKD@AddImm?$AA@ 1018432c     sqlite3.obj
 0002:0000a334       ??_C@_09LLJOBHN@MustBeInt?$AA@ 10184334     sqlite3.obj
 0002:0000a340       ??_C@_0N@KGPEGHPK@RealAffinity?$AA@ 10184340     sqlite3.obj
 0002:0000a350       ??_C@_04LIPANAOG@Cast?$AA@ 10184350     sqlite3.obj
 0002:0000a358       ??_C@_0M@LPEOJDB@Permutation?$AA@ 10184358     sqlite3.obj
 0002:0000a368       ??_C@_07MBOMJGGF@Compare?$AA@ 10184368     sqlite3.obj
 0002:0000a374       ??_C@_04BIEPDJCB@Jump?$AA@ 10184374     sqlite3.obj
 0002:0000a37c       ??_C@_04GKJMKNNB@Once?$AA@ 1018437c     sqlite3.obj
 0002:0000a384       ??_C@_02EMFCFMID@If?$AA@   10184384     sqlite3.obj
 0002:0000a388       ??_C@_08BBHBEGAC@NOT?5NULL?$AA@ 10184388     sqlite3.obj
 0002:0000a394       ??_C@_05DALJIPE@IfNot?$AA@ 10184394     sqlite3.obj
 0002:0000a39c       ??_C@_06OHAHIIGJ@UNIQUE?$AA@ 1018439c     sqlite3.obj
 0002:0000a3a4       ??_C@_06FFIACGFC@Column?$AA@ 101843a4     sqlite3.obj
 0002:0000a3ac       ??_C@_05GCOJDIEO@CHECK?$AA@ 101843ac     sqlite3.obj
 0002:0000a3b4       ??_C@_08MMCPABPC@Affinity?$AA@ 101843b4     sqlite3.obj
 0002:0000a3c0       ??_C@_0M@CFPAHGLH@FOREIGN?5KEY?$AA@ 101843c0     sqlite3.obj
 0002:0000a3d0       ??_C@_0L@PGPMFKDB@MakeRecord?$AA@ 101843d0     sqlite3.obj
 0002:0000a3e0       ??_C@_05IJGIMMHE@Count?$AA@ 101843e0     sqlite3.obj
 0002:0000a3e8       ??_C@_0L@LIFFPDNM@ReadCookie?$AA@ 101843e8     sqlite3.obj
 0002:0000a3f8       ??_C@_09FEDANMPL@SetCookie?$AA@ 101843f8     sqlite3.obj
 0002:0000a404       ??_C@_09GCNMLHFL@ReopenIdx?$AA@ 10184404     sqlite3.obj
 0002:0000a410       ??_C@_08FJFCCPFB@OpenRead?$AA@ 10184410     sqlite3.obj
 0002:0000a41c       ??_C@_09FPCAPNBB@OpenWrite?$AA@ 1018441c     sqlite3.obj
 0002:0000a428       ??_C@_0O@LLCBFLCA@OpenAutoindex?$AA@ 10184428     sqlite3.obj
 0002:0000a438       ??_C@_0O@MHKNMBPC@OpenEphemeral?$AA@ 10184438     sqlite3.obj
 0002:0000a448       ??_C@_05IGKADHGO@width?$AA@ 10184448     sqlite3.obj
 0002:0000a450       ??_C@_0L@DIBNDBJM@SorterOpen?$AA@ 10184450     sqlite3.obj
 0002:0000a460       ??_C@_06LNLHEAAG@height?$AA@ 10184460     sqlite3.obj
 0002:0000a468       ??_C@_0N@DGILIAAH@SequenceTest?$AA@ 10184468     sqlite3.obj
 0002:0000a478       ??_C@_0L@PKPPHKBP@OpenPseudo?$AA@ 10184478     sqlite3.obj
 0002:0000a488       ??_C@_05LGELBCGM@Close?$AA@ 10184488     sqlite3.obj
 0002:0000a490       ??_C@_0M@KKDBEJBG@ColumnsUsed?$AA@ 10184490     sqlite3.obj
 0002:0000a4a0       ??_C@_06DCDFCJIJ@SeekLT?$AA@ 101844a0     sqlite3.obj
 0002:0000a4a8       ??_C@_08FMENKBDE@stat_get?$AA@ 101844a8     sqlite3.obj
 0002:0000a4b4       ??_C@_06GBOMAKJJ@SeekLE?$AA@ 101844b4     sqlite3.obj
 0002:0000a4bc       ??_C@_06GNLJOFHI@SeekGE?$AA@ 101844bc     sqlite3.obj
 0002:0000a4c4       ??_C@_06DOGAMGGI@SeekGT?$AA@ 101844c4     sqlite3.obj
 0002:0000a4cc       ??_C@_04ICIDABGP@Seek?$AA@ 101844cc     sqlite3.obj
 0002:0000a4d4       ??_C@_0L@MAHEJOGD@NoConflict?$AA@ 101844d4     sqlite3.obj
 0002:0000a4e4       ??_C@_08MDBAGECB@NotFound?$AA@ 101844e4     sqlite3.obj
 0002:0000a4f0       ??_C@_05JDGHEPJG@Found?$AA@ 101844f0     sqlite3.obj
 0002:0000a4f8       ??_C@_05NMJMPJJB@win32?$AA@ 101844f8     sqlite3.obj
 0002:0000a500       ??_C@_02GGHBPHGE@Or?$AA@   10184500     sqlite3.obj
 0002:0000a504       ??_C@_03LOMLFHDC@And?$AA@  10184504     sqlite3.obj
 0002:0000a508       ??_C@_09HMMGFEAA@NotExists?$AA@ 10184508     sqlite3.obj
 0002:0000a514       ??_C@_08DOCONEG@Sequence?$AA@ 10184514     sqlite3.obj
 0002:0000a520       ??_C@_08FEDJPMPH@NewRowid?$AA@ 10184520     sqlite3.obj
 0002:0000a52c       ??_C@_0P@DDINIIBH@win32?9longpath?$AA@ 1018452c     sqlite3.obj
 0002:0000a540       ??_C@_06NBBMPCN@IsNull?$AA@ 10184540     sqlite3.obj
 0002:0000a548       ??_C@_07HICACDPL@NotNull?$AA@ 10184548     sqlite3.obj
 0002:0000a554       ??_C@_02GCDABJMF@Ne?$AA@   10184554     sqlite3.obj
 0002:0000a558       ??_C@_02EAMLCBHB@Eq?$AA@   10184558     sqlite3.obj
 0002:0000a55c       ??_C@_02DODIABFK@Gt?$AA@   1018455c     sqlite3.obj
 0002:0000a560       ??_C@_02GBLEMNKL@Le?$AA@   10184560     sqlite3.obj
 0002:0000a564       ??_C@_02DCGNOOLL@Lt?$AA@   10184564     sqlite3.obj
 0002:0000a568       ??_C@_05OBPGIPLF@seqno?$AA@ 10184568     sqlite3.obj
 0002:0000a570       ??_C@_02GNOBCCEK@Ge?$AA@   10184570     sqlite3.obj
 0002:0000a574       ??_C@_04EBPADADD@desc?$AA@ 10184574     sqlite3.obj
 0002:0000a57c       ??_C@_06CPFCODOD@Insert?$AA@ 1018457c     sqlite3.obj
 0002:0000a584       ??_C@_04MIPPEMF@coll?$AA@  10184584     sqlite3.obj
 0002:0000a58c       ??_C@_06PCNOCLJN@BitAnd?$AA@ 1018458c     sqlite3.obj
 0002:0000a594       ??_C@_03ICHNJLJF@key?$AA@  10184594     sqlite3.obj
 0002:0000a598       ??_C@_05BKBNAGEF@BitOr?$AA@ 10184598     sqlite3.obj
 0002:0000a5a0       ??_C@_09IIGOLNPP@ShiftLeft?$AA@ 101845a0     sqlite3.obj
 0002:0000a5ac       ??_C@_0L@DHHFIOFJ@ShiftRight?$AA@ 101845ac     sqlite3.obj
 0002:0000a5bc       ??_C@_03LDFMNCOE@Add?$AA@  101845bc     sqlite3.obj
 0002:0000a5c0       ??_C@_08DLEJPBEP@Subtract?$AA@ 101845c0     sqlite3.obj
 0002:0000a5cc       ??_C@_08EOBDLMOI@Multiply?$AA@ 101845cc     sqlite3.obj
 0002:0000a5d8       ??_C@_06JKMEHOIB@Divide?$AA@ 101845d8     sqlite3.obj
 0002:0000a5e0       ??_C@_09DPOHBCHJ@Remainder?$AA@ 101845e0     sqlite3.obj
 0002:0000a5ec       ??_C@_06ODAFHOMO@Concat?$AA@ 101845ec     sqlite3.obj
 0002:0000a5f4       ??_C@_09LEJELDEO@InsertInt?$AA@ 101845f4     sqlite3.obj
 0002:0000a600       ??_C@_06OBLNEDKN@BitNot?$AA@ 10184600     sqlite3.obj
 0002:0000a608       ??_C@_07KGFHIBD@String8?$AA@ 10184608     sqlite3.obj
 0002:0000a614       ??_C@_06JBKGCNBB@Delete?$AA@ 10184614     sqlite3.obj
 0002:0000a61c       ??_C@_0L@NDDNCBN@ResetCount?$AA@ 1018461c     sqlite3.obj
 0002:0000a62c       ??_C@_0O@GIINMLJL@SorterCompare?$AA@ 1018462c     sqlite3.obj
 0002:0000a63c       ??_C@_0L@DNBEOFPP@SorterData?$AA@ 1018463c     sqlite3.obj
 0002:0000a64c       ??_C@_06JIHNENAH@RowKey?$AA@ 1018464c     sqlite3.obj
 0002:0000a654       ??_C@_07OHPACBNN@RowData?$AA@ 10184654     sqlite3.obj
 0002:0000a660       ??_C@_05KEGGNBBF@Rowid?$AA@ 10184660     sqlite3.obj
 0002:0000a668       ??_C@_07HJJPPOKN@NullRow?$AA@ 10184668     sqlite3.obj
 0002:0000a674       ??_C@_04DKKAEHDH@Last?$AA@ 10184674     sqlite3.obj
 0002:0000a67c       ??_C@_03NPAJGOON@seq?$AA@  1018467c     sqlite3.obj
 0002:0000a680       ??_C@_0L@DMDDEDPI@SorterSort?$AA@ 10184680     sqlite3.obj
 0002:0000a690       ??_C@_06ODCMFGLL@unique?$AA@ 10184690     sqlite3.obj
 0002:0000a698       ??_C@_04DJANFKGA@Sort?$AA@ 10184698     sqlite3.obj
 0002:0000a6a0       ??_C@_06NHCMNMEH@origin?$AA@ 101846a0     sqlite3.obj
 0002:0000a6a8       ??_C@_06MAOEIKCJ@Rewind?$AA@ 101846a8     sqlite3.obj
 0002:0000a6b0       ??_C@_07JHIHCBKH@partial?$AA@ 101846b0     sqlite3.obj
 0002:0000a6bc       ??_C@_0N@PCKBEOAP@SorterInsert?$AA@ 101846bc     sqlite3.obj
 0002:0000a6cc       ??_C@_09ENCBCCAM@IdxInsert?$AA@ 101846cc     sqlite3.obj
 0002:0000a6d8       ??_C@_04HPDJJBAE@like?$AA@ 101846d8     sqlite3.obj
 0002:0000a6e0       ??_C@_09PDNFOMPO@IdxDelete?$AA@ 101846e0     sqlite3.obj
 0002:0000a6ec       ??_C@_08KLKOBEJ@IdxRowid?$AA@ 101846ec     sqlite3.obj
 0002:0000a6f8       ??_C@_04HHHPGODM@glob?$AA@ 101846f8     sqlite3.obj
 0002:0000a700       ??_C@_05FANNJDOC@IdxLE?$AA@ 10184700     sqlite3.obj
 0002:0000a708       ??_C@_05PFBFPBD@IdxGT?$AA@ 10184708     sqlite3.obj
 0002:0000a710       ??_C@_05DAELAPC@IdxLT?$AA@ 10184710     sqlite3.obj
 0002:0000a718       ??_C@_05FMIIHMAD@IdxGE?$AA@ 10184718     sqlite3.obj
 0002:0000a720       ??_C@_07BDCAJABG@Destroy?$AA@ 10184720     sqlite3.obj
 0002:0000a72c       ??_C@_05MDNHABIA@Clear?$AA@ 1018472c     sqlite3.obj
 0002:0000a734       ??_C@_0M@IJLMHKBN@ResetSorter?$AA@ 10184734     sqlite3.obj
 0002:0000a744       ??_C@_0M@PLDABJLA@CreateIndex?$AA@ 10184744     sqlite3.obj
 0002:0000a754       ??_C@_0M@BDPOJHGL@CreateTable?$AA@ 10184754     sqlite3.obj
 0002:0000a764       ??_C@_0M@IPJMJJPI@ParseSchema?$AA@ 10184764     sqlite3.obj
 0002:0000a774       ??_C@_0N@FEAPPFEN@LoadAnalysis?$AA@ 10184774     sqlite3.obj
 0002:0000a784       ??_C@_09ELPHDPAO@DropTable?$AA@ 10184784     sqlite3.obj
 0002:0000a790       ??_C@_09KDDJLBNF@DropIndex?$AA@ 10184790     sqlite3.obj
 0002:0000a79c       ??_C@_0M@JKNINGPB@DropTrigger?$AA@ 1018479c     sqlite3.obj
 0002:0000a7ac       ??_C@_0M@KCIGPGBI@IntegrityCk?$AA@ 101847ac     sqlite3.obj
 0002:0000a7bc       ??_C@_09KPGKMOML@RowSetAdd?$AA@ 101847bc     sqlite3.obj
 0002:0000a7c8       ??_C@_0L@JELPJHIJ@RowSetRead?$AA@ 101847c8     sqlite3.obj
 0002:0000a7d8       ??_C@_0L@EOJPAHGG@RowSetTest?$AA@ 101847d8     sqlite3.obj
 0002:0000a7e8       ??_C@_07DOMMNIGK@Program?$AA@ 101847e8     sqlite3.obj
 0002:0000a7f4       ??_C@_04PHKLBGME@Real?$AA@ 101847f4     sqlite3.obj
 0002:0000a7fc       ??_C@_05LOJBNELM@Param?$AA@ 101847fc     sqlite3.obj
 0002:0000a804       ??_C@_09EBKOHGDP@FkCounter?$AA@ 10184804     sqlite3.obj
 0002:0000a810       ??_C@_08PNIKOKNB@FkIfZero?$AA@ 10184810     sqlite3.obj
 0002:0000a81c       ??_C@_06LJFJMLCE@MemMax?$AA@ 1018481c     sqlite3.obj
 0002:0000a824       ??_C@_05PMIMCOJP@IfPos?$AA@ 10184824     sqlite3.obj
 0002:0000a82c       ??_C@_05GLDKFKCA@ltrim?$AA@ 1018482c     sqlite3.obj
 0002:0000a834       ??_C@_0M@BIALOOLK@SetIfNotPos?$AA@ 10184834     sqlite3.obj
 0002:0000a844       ??_C@_09ELLCPLME@IfNotZero?$AA@ 10184844     sqlite3.obj
 0002:0000a850       ??_C@_0N@IDMANBEA@DecrJumpZero?$AA@ 10184850     sqlite3.obj
 0002:0000a860       ??_C@_0N@ICBJCLAM@JumpZeroIncr?$AA@ 10184860     sqlite3.obj
 0002:0000a870       ??_C@_08EFCHECBI@AggStep0?$AA@ 10184870     sqlite3.obj
 0002:0000a87c       ??_C@_05FCOGDJML@rtrim?$AA@ 1018487c     sqlite3.obj
 0002:0000a884       ??_C@_07NOMHFNIB@AggStep?$AA@ 10184884     sqlite3.obj
 0002:0000a890       ??_C@_08FCKHNOBN@AggFinal?$AA@ 10184890     sqlite3.obj
 0002:0000a89c       ??_C@_0L@POHPJECG@IncrVacuum?$AA@ 1018489c     sqlite3.obj
 0002:0000a8ac       ??_C@_06GDNCIOGJ@Expire?$AA@ 101848ac     sqlite3.obj
 0002:0000a8b4       ??_C@_09FDKNKOOK@TableLock?$AA@ 101848b4     sqlite3.obj
 0002:0000a8c0       ??_C@_04GDOMMDLP@trim?$AA@ 101848c0     sqlite3.obj
 0002:0000a8c8       ??_C@_06CLFNNGGK@VBegin?$AA@ 101848c8     sqlite3.obj
 0002:0000a8d0       ??_C@_02EGCJHIOB@id?$AA@   101848d0     sqlite3.obj
 0002:0000a8d4       ??_C@_07KDKHCOMM@VCreate?$AA@ 101848d4     sqlite3.obj
 0002:0000a8e0       ??_C@_04HNEBHLOP@from?$AA@ 101848e0     sqlite3.obj
 0002:0000a8e8       ??_C@_08JBEDGDCN@VDestroy?$AA@ 101848e8     sqlite3.obj
 0002:0000a8f4       ??_C@_02LBCDJBAJ@to?$AA@   101848f4     sqlite3.obj
 0002:0000a8f8       ??_C@_05JABEJFFA@VOpen?$AA@ 101848f8     sqlite3.obj
 0002:0000a900       ??_C@_09DFBGJPOA@on_update?$AA@ 10184900     sqlite3.obj
 0002:0000a90c       ??_C@_07DOIHNMAE@VColumn?$AA@ 1018490c     sqlite3.obj
 0002:0000a918       ??_C@_09BILGEHCE@on_delete?$AA@ 10184918     sqlite3.obj
 0002:0000a924       ??_C@_03KLIPLJLL@min?$AA@  10184924     sqlite3.obj
 0002:0000a928       ??_C@_05GOGANBLF@VNext?$AA@ 10184928     sqlite3.obj
 0002:0000a930       ??_C@_05FNONLPDI@match?$AA@ 10184930     sqlite3.obj
 0002:0000a938       ??_C@_07BIPKCCHL@VRename?$AA@ 10184938     sqlite3.obj
 0002:0000a944       ??_C@_01GBGANLPD@0?$AA@    10184944     sqlite3.obj
 0002:0000a948       ??_C@_09CNCANJNI@Pagecount?$AA@ 10184948     sqlite3.obj
 0002:0000a954       ??_C@_08PCPIJAPH@MaxPgcnt?$AA@ 10184954     sqlite3.obj
 0002:0000a960       ??_C@_04LLJCPOLH@Init?$AA@ 10184960     sqlite3.obj
 0002:0000a968       ??_C@_04NBOPPMHE@Noop?$AA@ 10184968     sqlite3.obj
 0002:0000a970       ??_C@_07EMCFMDDO@Explain?$AA@ 10184970     sqlite3.obj
 0002:0000a97c       ??_C@_0O@KOHAPDOF@SYSTEM_MALLOC?$AA@ 1018497c     sqlite3.obj
 0002:0000a98c       ??_C@_03LJAEFNNE@max?$AA@  1018498c     sqlite3.obj
 0002:0000a990       ??_C@_0N@HEAGAILC@THREADSAFE?$DN1?$AA@ 10184990     sqlite3.obj
 0002:0000a9a0       ??_C@_06NDJPCPHC@typeof?$AA@ 101849a0     sqlite3.obj
 0002:0000a9a8       ??_C@_06IJDLPEM@length?$AA@ 101849a8     sqlite3.obj
 0002:0000a9b0       ??_C@_05HALPBNGI@instr?$AA@ 101849b0     sqlite3.obj
 0002:0000a9b8       ??_C@_06DAHFIGOC@substr?$AA@ 101849b8     sqlite3.obj
 0002:0000a9c0       ??_C@_06OHJFMFMB@printf?$AA@ 101849c0     sqlite3.obj
 0002:0000a9c8       ??_C@_0BH@BEFJIDGM@string?5or?5blob?5too?5big?$AA@ 101849c8     sqlite3.obj
 0002:0000a9e4       ??_C@_05KDMKNECD@rowid?$AA@ 101849e4     sqlite3.obj
 0002:0000a9ec       ??_C@_06MLKDMCBD@parent?$AA@ 101849ec     sqlite3.obj
 0002:0000a9f4       ??_C@_07GAJMMAJO@unicode?$AA@ 101849f4     sqlite3.obj
 0002:0000aa00       ??_C@_04IFBPKEAB@fkid?$AA@ 10184a00     sqlite3.obj
 0002:0000aa08       ??_C@_04ENMBGAPA@char?$AA@ 10184a08     sqlite3.obj
 0002:0000aa10       ??_C@_0BA@FHFNEAED@AreFileApisANSI?$AA@ 10184a10     sqlite3.obj
 0002:0000aa24       ??_C@_03BCGAIFPO@abs?$AA@  10184a24     sqlite3.obj
 0002:0000aa28       ??_C@_0L@CDADJILC@CharLowerW?$AA@ 10184a28     sqlite3.obj
 0002:0000aa38       ??_C@_0L@JBOFCNPB@CharUpperW?$AA@ 10184a38     sqlite3.obj
 0002:0000aa48       ??_C@_05MIMAKCN@round?$AA@ 10184a48     sqlite3.obj
 0002:0000aa50       ??_C@_0M@JHJNLFGC@CloseHandle?$AA@ 10184a50     sqlite3.obj
 0002:0000aa60       ??_C@_0M@HDHGNCCA@CreateFileA?$AA@ 10184a60     sqlite3.obj
 0002:0000aa70       ??_C@_05NECKJAMC@upper?$AA@ 10184a70     sqlite3.obj
 0002:0000aa78       ??_C@_0M@GPOOGHPH@CreateFileW?$AA@ 10184a78     sqlite3.obj
 0002:0000aa88       ??_C@_0BD@GJENCGJD@CreateFileMappingA?$AA@ 10184a88     sqlite3.obj
 0002:0000aaa0       ??_C@_05IPJEPLHL@lower?$AA@ 10184aa0     sqlite3.obj
 0002:0000aaa8       ??_C@_0BD@HFNFJDEE@CreateFileMappingW?$AA@ 10184aa8     sqlite3.obj
 0002:0000aac0       ??_C@_08FNGHHBID@coalesce?$AA@ 10184ac0     sqlite3.obj
 0002:0000aacc       ??_C@_0N@MDNOAJMP@CreateMutexW?$AA@ 10184acc     sqlite3.obj
 0002:0000aadc       ??_C@_0M@CBNKJACB@DeleteFileA?$AA@ 10184adc     sqlite3.obj
 0002:0000aaec       ??_C@_0M@DNECCFPG@DeleteFileW?$AA@ 10184aec     sqlite3.obj
 0002:0000aafc       ??_C@_0BI@EKFDIGHI@FileTimeToLocalFileTime?$AA@ 10184afc     sqlite3.obj
 0002:0000ab18       ??_C@_03IJNDAFDK@hex?$AA@  10184b18     sqlite3.obj
 0002:0000ab1c       ??_C@_0BF@KPJNHALE@FileTimeToSystemTime?$AA@ 10184b1c     sqlite3.obj
 0002:0000ab38       ??_C@_06FAHGEKJN@ifnull?$AA@ 10184b38     sqlite3.obj
 0002:0000ab40       ??_C@_0BB@MOGECGEP@FlushFileBuffers?$AA@ 10184b40     sqlite3.obj
 0002:0000ab54       ??_C@_0P@FKPELJOF@FormatMessageA?$AA@ 10184b54     sqlite3.obj
 0002:0000ab68       ??_C@_08FIGEBGNH@unlikely?$AA@ 10184b68     sqlite3.obj
 0002:0000ab74       ??_C@_0P@EGGMAMDC@FormatMessageW?$AA@ 10184b74     sqlite3.obj
 0002:0000ab88       ??_C@_0L@EOIJFFJE@likelihood?$AA@ 10184b88     sqlite3.obj
 0002:0000ab98       ??_C@_0M@FACAOGOA@FreeLibrary?$AA@ 10184b98     sqlite3.obj
 0002:0000aba8       ??_C@_0BE@BEODBHKD@GetCurrentProcessId?$AA@ 10184ba8     sqlite3.obj
 0002:0000abc0       ??_C@_06FMFEOJBE@likely?$AA@ 10184bc0     sqlite3.obj
 0002:0000abc8       ??_C@_0BC@CLHNLNI@GetDiskFreeSpaceA?$AA@ 10184bc8     sqlite3.obj
 0002:0000abe0       ??_C@_06NLFCANPD@random?$AA@ 10184be0     sqlite3.obj
 0002:0000abe8       ??_C@_0BC@BOCPGOAP@GetDiskFreeSpaceW?$AA@ 10184be8     sqlite3.obj
 0002:0000ac00       ??_C@_0BD@DJMMCMCB@GetFileAttributesA?$AA@ 10184c00     sqlite3.obj
 0002:0000ac18       ??_C@_0L@IDMFPHDO@randomblob?$AA@ 10184c18     sqlite3.obj
 0002:0000ac28       ??_C@_0BD@CFFEJJPG@GetFileAttributesW?$AA@ 10184c28     sqlite3.obj
 0002:0000ac40       ??_C@_06LLGGGFDC@nullif?$AA@ 10184c40     sqlite3.obj
 0002:0000ac48       ??_C@_0BF@JODNCFOA@GetFileAttributesExW?$AA@ 10184c48     sqlite3.obj
 0002:0000ac64       ??_C@_0M@BAICHOOE@GetFileSize?$AA@ 10184c64     sqlite3.obj
 0002:0000ac74       ??_C@_0P@IPDPEBN@sqlite_version?$AA@ 10184c74     sqlite3.obj
 0002:0000ac88       ??_C@_0BB@HALHENPC@GetFullPathNameA?$AA@ 10184c88     sqlite3.obj
 0002:0000ac9c       ??_C@_0BB@HPCCOLJC@sqlite_source_id?$AA@ 10184c9c     sqlite3.obj
 0002:0000acb0       ??_C@_0BB@GMCPPICF@GetFullPathNameW?$AA@ 10184cb0     sqlite3.obj
 0002:0000acc4       ??_C@_0N@HICKNDGL@GetLastError?$AA@ 10184cc4     sqlite3.obj
 0002:0000acd4       ??_C@_0L@HNFKFGGK@sqlite_log?$AA@ 10184cd4     sqlite3.obj
 0002:0000ace4       ??_C@_0BA@EJGIKKLP@GetProcAddressA?$AA@ 10184ce4     sqlite3.obj
 0002:0000acf8       ??_C@_0BK@NPIMPNGH@sqlite_compileoption_used?$AA@ 10184cf8     sqlite3.obj
 0002:0000ad18       ??_C@_0O@HJFFHIPG@GetSystemInfo?$AA@ 10184d18     sqlite3.obj
 0002:0000ad28       ??_C@_0O@IKEIBEBH@GetSystemTime?$AA@ 10184d28     sqlite3.obj
 0002:0000ad38       ??_C@_0BJ@BHKPGCCL@sqlite_compileoption_get?$AA@ 10184d38     sqlite3.obj
 0002:0000ad58       ??_C@_0BI@ENMDHCMK@GetSystemTimeAsFileTime?$AA@ 10184d58     sqlite3.obj
 0002:0000ad74       ??_C@_05JHEGFHLM@quote?$AA@ 10184d74     sqlite3.obj
 0002:0000ad7c       ??_C@_0N@CMNFBGGC@GetTempPathA?$AA@ 10184d7c     sqlite3.obj
 0002:0000ad8c       ??_C@_0N@DAENKDLF@GetTempPathW?$AA@ 10184d8c     sqlite3.obj
 0002:0000ad9c       ??_C@_0BC@EKKKCJJE@last_insert_rowid?$AA@ 10184d9c     sqlite3.obj
 0002:0000adb4       ??_C@_0N@JOMACIEF@GetTickCount?$AA@ 10184db4     sqlite3.obj
 0002:0000adc4       ??_C@_07HFLFHMNL@changes?$AA@ 10184dc4     sqlite3.obj
 0002:0000add0       ??_C@_0O@LLCLDPIK@GetVersionExA?$AA@ 10184dd0     sqlite3.obj
 0002:0000ade0       ??_C@_0O@KHLDIKFN@GetVersionExW?$AA@ 10184de0     sqlite3.obj
 0002:0000adf0       ??_C@_0O@MLEKHAGK@total_changes?$AA@ 10184df0     sqlite3.obj
 0002:0000ae00       ??_C@_09JDKINLHP@HeapAlloc?$AA@ 10184e00     sqlite3.obj
 0002:0000ae0c       ??_C@_07CLEHDIEJ@replace?$AA@ 10184e0c     sqlite3.obj
 0002:0000ae18       ??_C@_0L@ICEGIJOB@HeapCreate?$AA@ 10184e18     sqlite3.obj
 0002:0000ae28       ??_C@_0M@NELNNOPP@HeapDestroy?$AA@ 10184e28     sqlite3.obj
 0002:0000ae38       ??_C@_08OAGHJJOG@zeroblob?$AA@ 10184e38     sqlite3.obj
 0002:0000ae44       ??_C@_08ICEHPNNG@HeapFree?$AA@ 10184e44     sqlite3.obj
 0002:0000ae50       ??_C@_0P@BJKPICNH@load_extension?$AA@ 10184e50     sqlite3.obj
 0002:0000ae64       ??_C@_0M@HHKAEGMB@HeapReAlloc?$AA@ 10184e64     sqlite3.obj
 0002:0000ae74       ??_C@_08LKCFNBPH@HeapSize?$AA@ 10184e74     sqlite3.obj
 0002:0000ae80       ??_C@_0N@BKFJNCJM@HeapValidate?$AA@ 10184e80     sqlite3.obj
 0002:0000ae90       ??_C@_03CFFIJAMA@sum?$AA@  10184e90     sqlite3.obj
 0002:0000ae94       ??_C@_0M@EIEMDCNL@HeapCompact?$AA@ 10184e94     sqlite3.obj
 0002:0000aea4       ??_C@_05KBOMEDGA@total?$AA@ 10184ea4     sqlite3.obj
 0002:0000aeac       ??_C@_0N@LOMLCOFC@LoadLibraryA?$AA@ 10184eac     sqlite3.obj
 0002:0000aebc       ??_C@_0N@KCFDJLIF@LoadLibraryW?$AA@ 10184ebc     sqlite3.obj
 0002:0000aecc       ??_C@_03CHOBFJAH@avg?$AA@  10184ecc     sqlite3.obj
 0002:0000aed0       ??_C@_09FHKJECCN@LocalFree?$AA@ 10184ed0     sqlite3.obj
 0002:0000aedc       ??_C@_05IOMEMJEC@count?$AA@ 10184edc     sqlite3.obj
 0002:0000aee4       ??_C@_08DICMLIHC@LockFile?$AA@ 10184ee4     sqlite3.obj
 0002:0000aef0       ??_C@_0L@EJAEKEDD@LockFileEx?$AA@ 10184ef0     sqlite3.obj
 0002:0000af00       ??_C@_0O@IGIELGBD@MapViewOfFile?$AA@ 10184f00     sqlite3.obj
 0002:0000af10       ??_C@_0N@KKLIBDFO@group_concat?$AA@ 10184f10     sqlite3.obj
 0002:0000af20       ??_C@_0BE@HCIKGJGE@MultiByteToWideChar?$AA@ 10184f20     sqlite3.obj
 0002:0000af38       ??_C@_0BI@LFICGGHO@QueryPerformanceCounter?$AA@ 10184f38     sqlite3.obj
 0002:0000af54       ??_C@_08KLCHJOKF@ReadFile?$AA@ 10184f54     sqlite3.obj
 0002:0000af60       ??_C@_0N@KGGGLBCJ@SetEndOfFile?$AA@ 10184f60     sqlite3.obj
 0002:0000af70       ??_C@_0P@HKHKGCLN@SetFilePointer?$AA@ 10184f70     sqlite3.obj
 0002:0000af84       ??_C@_05PFDOMJEF@Sleep?$AA@ 10184f84     sqlite3.obj
 0002:0000af8c       ??_C@_0BF@HBHGIPOG@SystemTimeToFileTime?$AA@ 10184f8c     sqlite3.obj
 0002:0000afa8       ??_C@_0L@PBJENKDG@UnlockFile?$AA@ 10184fa8     sqlite3.obj
 0002:0000afb8       ??_C@_0N@HOKNOHPO@UnlockFileEx?$AA@ 10184fb8     sqlite3.obj
 0002:0000afc8       ??_C@_0BA@GLKNLELN@UnmapViewOfFile?$AA@ 10184fc8     sqlite3.obj
 0002:0000afdc       ??_C@_0BE@LJADKLBD@WideCharToMultiByte?$AA@ 10184fdc     sqlite3.obj
 0002:0000aff4       ??_C@_09NOIIIIGM@WriteFile?$AA@ 10184ff4     sqlite3.obj
 0002:0000b000       ??_C@_0P@DLHPPCNH@CreateEventExW?$AA@ 10185000     sqlite3.obj
 0002:0000b014       ??_C@_0BE@CLKLPNNG@WaitForSingleObject?$AA@ 10185014     sqlite3.obj
 0002:0000b02c       ??_C@_0BG@IFNJHLEG@WaitForSingleObjectEx?$AA@ 1018502c     sqlite3.obj
 0002:0000b048       ??_C@_0BB@GDGABGCO@SetFilePointerEx?$AA@ 10185048     sqlite3.obj
 0002:0000b05c       ??_C@_04OOMJJNCF@UTF8?$AA@ 1018505c     sqlite3.obj
 0002:0000b064       ??_C@_0BN@NEEHBBPO@GetFileInformationByHandleEx?$AA@ 10185064     sqlite3.obj
 0002:0000b088       ??_C@_05EGJIMALK@UTF?98?$AA@ 10185088     sqlite3.obj
 0002:0000b090       ??_C@_08HMPANPBC@UTF?916le?$AA@ 10185090     sqlite3.obj
 0002:0000b09c       ??_C@_0BF@ECJCKDGL@MapViewOfFileFromApp?$AA@ 1018509c     sqlite3.obj
 0002:0000b0b8       ??_C@_08HGGOPCBI@UTF?916be?$AA@ 101850b8     sqlite3.obj
 0002:0000b0c4       ??_C@_07JJMGGCAM@UTF16le?$AA@ 101850c4     sqlite3.obj
 0002:0000b0d0       ??_C@_0M@HHGEPIBF@CreateFile2?$AA@ 101850d0     sqlite3.obj
 0002:0000b0e0       ??_C@_07JDFIEPAG@UTF16be?$AA@ 101850e0     sqlite3.obj
 0002:0000b0ec       ??_C@_06KNDPGIKI@UTF?916?$AA@ 101850ec     sqlite3.obj
 0002:0000b0f4       ??_C@_0BE@GMOAPDKA@LoadPackagedLibrary?$AA@ 101850f4     sqlite3.obj
 0002:0000b10c       ??_C@_05MNCHLHCA@UTF16?$AA@ 1018510c     sqlite3.obj
 0002:0000b114       ??_C@_0P@CDHHOHKP@GetTickCount64?$AA@ 10185114     sqlite3.obj
 0002:0000b128       ??_C@_0BE@HLKFLAJF@GetNativeSystemInfo?$AA@ 10185128     sqlite3.obj
 0002:0000b140       ??_C@_0BD@ILGKEMFC@OutputDebugStringA?$AA@ 10185140     sqlite3.obj
 0002:0000b158       ??_C@_0BD@JHPCPJIF@OutputDebugStringW?$AA@ 10185158     sqlite3.obj
 0002:0000b170       ??_C@_0O@BNNCBLEN@out?5of?5memory?$AA@ 10185170     sqlite3.obj
 0002:0000b180       ??_C@_0P@BOLOPLNF@GetProcessHeap?$AA@ 10185180     sqlite3.obj
 0002:0000b194       ??_C@_0BJ@EKFPCGJA@CreateFileMappingFromApp?$AA@ 10185194     sqlite3.obj
 0002:0000b1b4       ??_C@_0BL@FOMKKFPM@InterlockedCompareExchange?$AA@ 101851b4     sqlite3.obj
 0002:0000b1d4       ??_C@_0L@IDKDBMAM@UuidCreate?$AA@ 101851d4     sqlite3.obj
 0002:0000b1e4       ??_C@_0BF@DJFPALMK@UuidCreateSequential?$AA@ 101851e4     sqlite3.obj
 0002:0000b200       ??_C@_0BA@IHGACFIJ@FlushViewOfFile?$AA@ 10185200     sqlite3.obj
 0002:0000b214       ??_C@_04COIEGINH@busy?$AA@ 10185214     sqlite3.obj
 0002:0000b21c       ??_C@_03MGHMBJCF@log?$AA@  1018521c     sqlite3.obj
 0002:0000b220       ??_C@_0N@NLAOCFOK@checkpointed?$AA@ 10185220     sqlite3.obj
 0002:0000b230       ??_C@_05JELAHNDG@?5TEXT?$AA@ 10185230     sqlite3.obj
 0002:0000b238       ??_C@_04KMHHNFPL@?5NUM?$AA@ 10185238     sqlite3.obj
 0002:0000b240       ??_C@_04LKNDAIML@?5INT?$AA@ 10185240     sqlite3.obj
 0002:0000b248       ??_C@_05IKBMIIDA@?5REAL?$AA@ 10185248     sqlite3.obj
 0002:0000b250       ??_C@_05ILMMJGEC@BEGIN?$AA@ 10185250     sqlite3.obj
 0002:0000b258       ??_C@_08COBEBGNM@ROLLBACK?$AA@ 10185258     sqlite3.obj
 0002:0000b264       ??_C@_07LDDIIHCM@RELEASE?$AA@ 10185264     sqlite3.obj
 0002:0000b270       ??_C@_03OCHKFGFI@dll?$AA@  10185270     sqlite3.obj
 0002:0000b274       ??_C@_06HBFNPGIC@shared?$AA@ 10185274     sqlite3.obj
 0002:0000b27c       ??_C@_07NMPLPEPB@private?$AA@ 1018527c     sqlite3.obj
 0002:0000b288       ??_C@_02LFKOONLL@ro?$AA@   10185288     sqlite3.obj
 0002:0000b28c       ??_C@_02DHLFHFOC@rw?$AA@   1018528c     sqlite3.obj
 0002:0000b290       ??_C@_03ODAOEF@rwc?$AA@    10185290     sqlite3.obj
 0002:0000b294       ??_C@_07OGLCFANK@SQLITE_?$AA@ 10185294     sqlite3.obj
 0002:0000b2a0       ??_C@_03CGLHMDPP@now?$AA@  101852a0     sqlite3.obj
 0002:0000b2a4       ??_C@_0BH@HEILFFIJ@local?5time?5unavailable?$AA@ 101852a4     sqlite3.obj
 0002:0000b2c0       ??_C@_09EKBOCLDN@localtime?$AA@ 101852c0     sqlite3.obj
 0002:0000b2cc       ??_C@_09KNIMKLBK@unixepoch?$AA@ 101852cc     sqlite3.obj
 0002:0000b2d8       ??_C@_03JPHCIIKF@utc?$AA@  101852d8     sqlite3.obj
 0002:0000b2dc       ??_C@_08IPAOEBNP@weekday?5?$AA@ 101852dc     sqlite3.obj
 0002:0000b2e8       ??_C@_09CABLEOFK@start?5of?5?$AA@ 101852e8     sqlite3.obj
 0002:0000b2f4       ??_C@_05MEBAADFH@month?$AA@ 101852f4     sqlite3.obj
 0002:0000b2fc       ??_C@_04JFPLDHAO@year?$AA@ 101852fc     sqlite3.obj
 0002:0000b304       ??_C@_03NNBHCDBP@day?$AA@  10185304     sqlite3.obj
 0002:0000b308       ??_C@_04LMOJGCPE@hour?$AA@ 10185308     sqlite3.obj
 0002:0000b310       ??_C@_06JGJIJFNK@minute?$AA@ 10185310     sqlite3.obj
 0002:0000b318       ??_C@_06BJCFNGJP@second?$AA@ 10185318     sqlite3.obj
 0002:0000b320       ??_C@_0BO@NGNOHJIK@?$CF04d?9?$CF02d?9?$CF02d?5?$CF02d?3?$CF02d?3?$CF02d?$AA@ 10185320     sqlite3.obj
 0002:0000b344       ??_C@_0P@PLMNPDMB@?$CF02d?3?$CF02d?3?$CF02d?$AA@ 10185344     sqlite3.obj
 0002:0000b358       ??_C@_0P@MCDGMPHH@?$CF04d?9?$CF02d?9?$CF02d?$AA@ 10185358     sqlite3.obj
 0002:0000b36c       ??_C@_04OGKJMPGK@?$CF02d?$AA@ 1018536c     sqlite3.obj
 0002:0000b374       ??_C@_06IAGKDDNE@?$CF06?43f?$AA@ 10185374     sqlite3.obj
 0002:0000b37c       ??_C@_04OHGLKFFN@?$CF03d?$AA@ 1018537c     sqlite3.obj
 0002:0000b384       ??_C@_05CFGAKADK@?$CF?416g?$AA@ 10185384     sqlite3.obj
 0002:0000b38c       ??_C@_04BFAHMMK@?$CFlld?$AA@ 1018538c     sqlite3.obj
 0002:0000b394       ??_C@_04OCCELDNI@?$CF04d?$AA@ 10185394     sqlite3.obj
 0002:0000b39c       ??_C@_0CG@DAAPKCCM@failed?5to?5allocate?5?$CFu?5bytes?5of?5m@ 1018539c     sqlite3.obj
 0002:0000b3cc       ??_C@_0CE@BFFKOBMD@failed?5memory?5resize?5?$CFu?5to?5?$CFu?5by@ 101853cc     sqlite3.obj
 0002:0000b3f8       ??_C@_01FGNFDNOH@?$CF?$AA@ 101853f8     sqlite3.obj
 0002:0000b3fc       ??_C@_03ICJPMMHB@NaN?$AA@  101853fc     sqlite3.obj
 0002:0000b400       ??_C@_03EJEJBNFP@Inf?$AA@  10185400     sqlite3.obj
 0002:0000b404       ??_C@_04HIBGFPH@NULL?$AA@  10185404     sqlite3.obj
 0002:0000b40c       ??_C@_06LHGEHABH@?$CINULL?$CJ?$AA@ 1018540c     sqlite3.obj
 0002:0000b414       ??_C@_01LFCBOECM@?4?$AA@   10185414     sqlite3.obj
 0002:0000b418       ??_C@_0BD@FKIFACO@922337203685477580?$AA@ 10185418     sqlite3.obj
 0002:0000b430       ??_C@_0CN@EOKIBNLJ@API?5call?5with?5?$CFs?5database?5connec@ 10185430     sqlite3.obj
 0002:0000b468       ??_C@_08NFNJDBOK@unopened?$AA@ 10185468     sqlite3.obj
 0002:0000b474       ??_C@_07MALOAKCI@invalid?$AA@ 10185474     sqlite3.obj
 0002:0000b480       ??_C@_0BE@MJECGBL@OsError?50x?$CFlx?5?$CI?$CFlu?$CJ?$AA@ 10185480     sqlite3.obj
 0002:0000b498       ??_C@_0BP@JDJJJHMH@os_win?4c?3?$CFd?3?5?$CI?$CFlu?$CJ?5?$CFs?$CI?$CFs?$CJ?5?9?5?$CFs?$AA@ 10185498     sqlite3.obj
 0002:0000b4c0       ??_C@_0DC@FIDAINO@delayed?5?$CFdms?5for?5lock?1sharing?5co@ 101854c0     sqlite3.obj
 0002:0000b4fc       ??_C@_0M@JAPMDKOE@winSeekFile?$AA@ 101854fc     sqlite3.obj
 0002:0000b50c       ??_C@_08GBGPIFFF@winClose?$AA@ 1018550c     sqlite3.obj
 0002:0000b518       ??_C@_07BGDHELCN@winRead?$AA@ 10185518     sqlite3.obj
 0002:0000b524       ??_C@_09GFOHNLGD@winWrite1?$AA@ 10185524     sqlite3.obj
 0002:0000b530       ??_C@_09EOMKIIKA@winWrite2?$AA@ 10185530     sqlite3.obj
 0002:0000b53c       ??_C@_0N@JHOIFHJA@winTruncate1?$AA@ 1018553c     sqlite3.obj
 0002:0000b54c       ??_C@_0N@LMMFAEFD@winTruncate2?$AA@ 1018554c     sqlite3.obj
 0002:0000b55c       ??_C@_08LAPEMDHJ@winSync1?$AA@ 1018555c     sqlite3.obj
 0002:0000b568       ??_C@_08JLNJJALK@winSync2?$AA@ 10185568     sqlite3.obj
 0002:0000b574       ??_C@_0M@DODNMLAG@winFileSize?$AA@ 10185574     sqlite3.obj
 0002:0000b584       ??_C@_0BC@CHABEBCJ@winUnlockReadLock?$AA@ 10185584     sqlite3.obj
 0002:0000b59c       ??_C@_09INENJOCI@winUnlock?$AA@ 1018559c     sqlite3.obj
 0002:0000b5a8       ??_C@_06KEOMCCGA@?$CFs?9shm?$AA@ 101855a8     sqlite3.obj
 0002:0000b5b0       ??_C@_0L@NHPDAEHO@winOpenShm?$AA@ 101855b0     sqlite3.obj
 0002:0000b5c0       ??_C@_0L@JMPNPFLA@winShmMap1?$AA@ 101855c0     sqlite3.obj
 0002:0000b5d0       ??_C@_0L@LHNAKGHD@winShmMap2?$AA@ 101855d0     sqlite3.obj
 0002:0000b5e0       ??_C@_0L@KOMLJHDC@winShmMap3?$AA@ 101855e0     sqlite3.obj
 0002:0000b5f0       ??_C@_0O@MBBPBMPM@winUnmapfile1?$AA@ 101855f0     sqlite3.obj
 0002:0000b600       ??_C@_0O@OKDCEPDP@winUnmapfile2?$AA@ 10185600     sqlite3.obj
 0002:0000b610       ??_C@_0M@FMIFOGHC@winMapfile1?$AA@ 10185610     sqlite3.obj
 0002:0000b620       ??_C@_0M@HHKILFLB@winMapfile2?$AA@ 10185620     sqlite3.obj
 0002:0000b630       ??_C@_07NBNPOOME@etilqs_?$AA@ 10185630     sqlite3.obj
 0002:0000b63c       ??_C@_0BA@KKAJEMJB@winGetTempname1?$AA@ 1018563c     sqlite3.obj
 0002:0000b650       ??_C@_0BA@IBCEBPFC@winGetTempname2?$AA@ 10185650     sqlite3.obj
 0002:0000b664       ??_C@_0BA@JIDPCOBD@winGetTempname3?$AA@ 10185664     sqlite3.obj
 0002:0000b678       ??_C@_0BA@NHHOLINE@winGetTempname4?$AA@ 10185678     sqlite3.obj
 0002:0000b68c       ??_C@_0BA@MOGFIJJF@winGetTempname5?$AA@ 1018568c     sqlite3.obj
 0002:0000b6a0       ??_C@_07BEGGPPOF@winOpen?$AA@ 101856a0     sqlite3.obj
 0002:0000b6ac       ??_C@_04JKHAIEHD@psow?$AA@ 101856ac     sqlite3.obj
 0002:0000b6b4       ??_C@_09MOHEIBIO@winDelete?$AA@ 101856b4     sqlite3.obj
 0002:0000b6c0       ??_C@_09NBJCHJLH@winAccess?$AA@ 101856c0     sqlite3.obj
 0002:0000b6cc       ??_C@_06GIIGBPHC@?$CFs?$CFc?$CFs?$AA@ 101856cc     sqlite3.obj
 0002:0000b6d4       ??_C@_0BB@OFJJKLCE@winFullPathname1?$AA@ 101856d4     sqlite3.obj
 0002:0000b6e8       ??_C@_0BB@MOLEPIOH@winFullPathname2?$AA@ 101856e8     sqlite3.obj
 0002:0000b6fc       ??_C@_0BB@NHKPMJKG@winFullPathname3?$AA@ 101856fc     sqlite3.obj
 0002:0000b710       ??_C@_0BB@JIOOFPGB@winFullPathname4?$AA@ 10185710     sqlite3.obj
 0002:0000b724       ??_C@_0BL@FJPGAHP@recovered?5?$CFd?5pages?5from?5?$CFs?$AA@ 10185724     sqlite3.obj
 0002:0000b744       ??_C@_09HKLPJOIM@?9journal?$AA?$AA@ 10185744     sqlite3.obj
 0002:0000b750       ??_C@_05HMKKNGEJ@?9wal?$AA?$AA@ 10185750     sqlite3.obj
 0002:0000b758       ??_C@_06LDKHBALK@nolock?$AA@ 10185758     sqlite3.obj
 0002:0000b760       ??_C@_09JFJMBHCC@immutable?$AA@ 10185760     sqlite3.obj
 0002:0000b76c       ??_C@_0CF@EDMDCOFB@recovered?5?$CFd?5frames?5from?5WAL?5fil@ 1018576c     sqlite3.obj
 0002:0000b798       ??_C@_0BK@NCCCKLLJ@cannot?5limit?5WAL?5size?3?5?$CFs?$AA@ 10185798     sqlite3.obj
 0002:0000b7b8       ??_C@_08CADOGOJM@?3memory?3?$AA@ 101857b8     sqlite3.obj
 0002:0000b7c4       ??_C@_03OIGGBKJM@?$EA?5?5?$AA@ 101857c4     sqlite3.obj
 0002:0000b7c8       ??_C@_01EEMJAFIK@?6?$AA@   101857c8     sqlite3.obj
 0002:0000b7cc       ??_C@_0BH@LLKFEBHC@invalid?5page?5number?5?$CFd?$AA@ 101857cc     sqlite3.obj
 0002:0000b7e8       ??_C@_0BJ@HHKCLCDH@2nd?5reference?5to?5page?5?$CFd?$AA@ 101857e8     sqlite3.obj
 0002:0000b808       ??_C@_0BN@NJCBBLIO@Failed?5to?5read?5ptrmap?5key?$DN?$CFd?$AA@ 10185808     sqlite3.obj
 0002:0000b82c       ??_C@_0DG@EAEHHDPC@Bad?5ptr?5map?5entry?5key?$DN?$CFd?5expecte@ 1018582c     sqlite3.obj
 0002:0000b86c       ??_C@_0DJ@PBFEOOMP@?$CFd?5of?5?$CFd?5pages?5missing?5from?5over@ 1018586c     sqlite3.obj
 0002:0000b8b0       ??_C@_0BG@GMIBDIEE@failed?5to?5get?5page?5?$CFd?$AA@ 101858b0     sqlite3.obj
